((dp0
S'arm_dbg_args'
p1
S'-via:"d:\\Marmalade\\Stage1\\build_stage1_vc14\\Stage1_vc14_arm_debug.via" -qemu'
p2
sS'game-icf'
p3
S''
p4
sS'dist'
p5
NsS'csproj'
p6
g4
sS'module_path_append'
p7
NsS'tizen_x86_dbg_exe'
p8
S'c:\\marmalade\\7.10\\s3e\\makefile_builder\\tool_launcher.exe'
p9
sS'global_path'
p10
S'd:\\marmalade'
p11
sS'system_path'
p12
S'c:\\marmalade\\7.10\\s3e\\makefile_builder'
p13
sS'android_x86_dbg_args'
p14
S'../../tools/DeployTool/DeployTool.exe --dir "d:\\Marmalade\\Stage1\\build_stage1_vc14"'
p15
sS'aarch64-arch-mod'
p16
g4
sS'no-emit'
p17
NsS'androidnativedebug'
p18
NsS'arm-float-abi'
p19
g4
sS'arm_rel_rtsm_args'
p20
S'-via:"d:\\Marmalade\\Stage1\\build_stage1_vc14\\Stage1_vc14_arm_release.via" -qemu'
p21
sS'amd64'
p22
NsS'line-width'
p23
I80
sS'gcc_dbg_args'
p24
S'-via:"d:\\Marmalade\\Stage1\\build_stage1_vc14\\Stage1_vc14_gcc_debug.via" -qemu'
p25
sS'sim-release-loader'
p26
NsS'android-x86'
p27
NsS'x86_dbg_exe'
p28
S'c:/marmalade/7.10/s3e\\win32\\s3e_simulator_debug.exe'
p29
sS'jflags'
p30
NsS'nacl_x86_64_rel_args'
p31
g15
sS'release'
p32
NsS'no-make'
p33
NsS'xcode-x86-build-settings'
p34
g4
sS'optimise-size'
p35
NsS'fat'
p36
NsS'output-name-debug'
p37
g4
sS'arm-fpu'
p38
g4
sS'proj_name'
p39
S'Stage1_vc14'
p40
sS'rvct-version'
p41
S'none'
p42
sS'compiler'
p43
g4
sS'execute'
p44
NsS'compile-static'
p45
NsS'nacl_x86_64_rel_exe'
p46
g9
sS'msvc-project'
p47
NsS'buildenv'
p48
S'VC14'
p49
sS'quick'
p50
NsS'module_path'
p51
(lp52
S'd:/Marmalade/modules'
p53
asS'mkf_default'
p54
S's3e-default.mkf'
p55
sS'use-release-std-libs'
p56
NsS'using_perforce'
p57
I00
sS'tizen-x86'
p58
NsS'mips-s3e'
p59
NsS's3e-api-lib-name'
p60
S's3e_api_iwgl'
p61
sS'ios-no-pic'
p62
NsS'shared-arm-lib'
p63
NsS'arm-cpu'
p64
g4
sS'compile-thumb'
p65
NsS'no-ide'
p66
NsS'msvc-version'
p67
S'6.0'
p68
sS'arm'
p69
NsS'nacl_x86_64_dbg_exe'
p70
g9
sS'builddir'
p71
g4
sS'compile-debug-as-release'
p72
I0
sS'arm-arch'
p73
g4
sS'brief'
p74
NsS'dll'
p75
NsS'buildenv-toolset'
p76
g4
sS'version'
p77
NsS'aarch64-arch'
p78
g4
sS'ccache'
p79
I0
sS'offline'
p80
NsS'ios-version'
p81
g4
sS'hub_data'
p82
g4
sS'fake_vc_call'
p83
I01
sS'jobs'
p84
I0
sS'linkflags'
p85
NsS'gcc_aarch64_dbg_args'
p86
g15
sS'nacl_x86_64_dbg_args'
p87
g15
sS'debug'
p88
NsS'xcode-build-order'
p89
g4
sS'gcc_aarch64_rel_rtsm_args'
p90
S'-via:"d:\\Marmalade\\Stage1\\build_stage1_vc14\\Stage1_vc14_gcc_aarch64_release.via" -qemu'
p91
sS'gcc_rel_rtsm_args'
p92
S'-via:"d:\\Marmalade\\Stage1\\build_stage1_vc14\\Stage1_vc14_gcc_release.via" -qemu'
p93
sS'done_defaults'
p94
I1
sS'path'
p95
(lp96
S'c:/marmalade/7.10/tools/gcc/x86_64/nacl_windows/toolchain/win_x86_glibc/bin'
p97
asS's3e-data-dir'
p98
S'd:/Marmalade/Stage1\\data'
p99
sS'enable-exceptions'
p100
NsS'osx-dll'
p101
NsS'extension'
p102
g4
sS'no-vc6'
p103
NsS'aarch64'
p104
NsS'win32-console'
p105
NsS'dist-format'
p106
g4
sS's3e-force-arch'
p107
NsS'dump_defines'
p108
NsS'use-shared-std-libs'
p109
NsS'gcc-version'
p110
g4
sS'x86_dbg_args'
p111
S'-via:"d:\\Marmalade\\Stage1\\build_stage1_vc14\\Stage1_vc14_debug.via"'
p112
sS'nacl'
p113
NsS'tizen_x86_dbg_args'
p114
g15
sS'arm-debugger'
p115
g4
sS'use_temp_extension'
p116
NsS'verbose'
p117
I0
sS'log'
p118
NsS'no-strip'
p119
NsS'rebuild'
p120
NsS'mips_dbg_args'
p121
g15
sS'win32-simulator-dll'
p122
NsS'strict'
p123
NsS'xcode-aarch64-build-settings'
p124
g4
sS'enable-global-path'
p125
NsS'gcc_aarch64_rel_args'
p126
g15
sS'cflags'
p127
NsS'dist-dir'
p128
g4
sS'xcode-arm-build-settings'
p129
g4
sS'disable-runtime-checks'
p130
NsS'csprojSDKRefs'
p131
g4
sS'tizen_x86_rel_exe'
p132
g9
sS'builddirroot'
p133
g4
sS'distcc'
p134
NsS'external-compiler'
p135
NsS'stripflags'
p136
NsS'retry-build'
p137
S'0'
p138
sS'preinclude'
p139
NsS'using_sdk'
p140
I01
sS'nologo'
p141
NsS'warn-level'
p142
I2
sS'mips_dbg_exe'
p143
g9
sS'mkb_in'
p144
S'd:/Marmalade/Stage1/Stage1.mkb'
p145
sS'no-objc-arc'
p146
NsS'app-icf'
p147
NsS'arm_dbg_exe'
p148
S'c:/marmalade/7.10/s3e\\bin\\armdebug.exe'
p149
sS'mdev-first'
p150
NsS'csprojDLLRef'
p151
NsS'tizen_x86_rel_args'
p152
g15
sS'android_x86_dbg_exe'
p153
g9
sS'naclx86_64'
p154
NsS'test-config'
p155
g4
sS'list-targets'
p156
NsS'arm_rel_exe'
p157
g9
sS'arm_rel_args'
p158
g15
sS'makedeps'
p159
NsS'android_x86_rel_exe'
p160
g9
sS'default-buildenv'
p161
S'VC14'
p162
sS'x86_rel_exe'
p163
S'c:/marmalade/7.10/s3e\\win32\\s3e_simulator_release.exe'
p164
sS'preprocess-java'
p165
NsS'mips_rel_args'
p166
g15
sS'test-assets'
p167
g4
sS'lib'
p168
NsS'non-interactive'
p169
NsS'global_argv'
p170
(lp171
S'C:\\Marmalade\\7.10\\s3e\\makefile_builder\\mkb.py'
p172
aS'D:/Marmalade/Stage1/Stage1.mkb'
p173
aS'--buildenv=VC14'
p174
aS'--fake-vc-call'
p175
asS'make'
p176
NsS'optimise-speed'
p177
NsS'internal'
p178
NsS'enable-stdinc'
p179
NsS'defines'
p180
NsS'deploy-only'
p181
NsS'x86'
p182
NsS'deploy'
p183
g4
sS'objc-arc'
p184
NsS'x86_run_exe'
p185
S'c:/marmalade/7.10/s3e\\win32\\s3e_simulator_debug.exe'
p186
sS'cxxflags'
p187
NsS'x86_rel_args'
p188
S'-via:"d:\\Marmalade\\Stage1\\build_stage1_vc14\\Stage1_vc14_release.via"'
p189
sS'gcc_rel_args'
p190
g15
sS'mips'
p191
NsS'xcode-build-settings'
p192
g4
sS'csprojPostBuildActions'
p193
NsS'incredibuild'
p194
NsS'strict-compile'
p195
NsS'use-auto-subdirs'
p196
NsS'mips_rel_exe'
p197
g9
sS'android_x86_rel_args'
p198
g15
sS'no-distcc'
p199
NsS'deployargs'
p200
NsS'iosnativedebug'
p201
NsS'use_prebuilt'
p202
NsS'win-target-platform'
p203
g4
sS'mkf_in'
p204
(lp205
S'c:\\marmalade\\7.10\\s3e\\s3e-default.mkf'
p206
aS'c:\\marmalade\\7.10\\extensions\\s3eamazonads\\s3eamazonads.mkf'
p207
aS'c:\\marmalade\\7.10\\modules\\iwutil\\iwutil.mkf'
p208
aS'c:\\marmalade\\7.10\\modules\\third_party\\libjpeg\\libjpeg.mkf'
p209
aS'c:\\marmalade\\7.10\\modules\\third_party\\libpng\\libpng.mkf'
p210
aS'c:\\marmalade\\7.10\\modules\\third_party\\zlib\\zlib.mkf'
p211
aS'c:\\marmalade\\7.10\\platform_libs\\android\\amazon-ads-android-sdk\\amazon-ads-android-sdk.mkf'
p212
aS'c:\\marmalade\\7.10\\platform_libs\\iphone\\amazon-ads-ios-sdk\\amazon-ads-ios-sdk.mkf'
p213
aS'c:\\marmalade\\7.10\\modules\\iw2d\\iw2d.mkf'
p214
aS'c:\\marmalade\\7.10\\modules\\iwgx\\iwgx.mkf'
p215
aS'c:\\marmalade\\7.10\\modules\\iwgl\\iwgl.mkf'
p216
aS'c:\\marmalade\\7.10\\modules\\iwgeom\\iwgeom.mkf'
p217
aS'c:\\marmalade\\7.10\\modules\\iwresmanager\\iwresmanager.mkf'
p218
aS'c:\\marmalade\\7.10\\extensions\\pvrtextool\\pvrtextool.mkf'
p219
aS'c:\\marmalade\\7.10\\modules\\iwgxfont\\iwgxfont.mkf'
p220
aS'c:\\marmalade\\7.10\\modules\\third_party\\tiniconv\\tiniconv.mkf'
p221
aS'c:\\marmalade\\7.10\\modules\\iw2dscenegraph\\iw2dscenegraph.mkf'
p222
aS'c:\\marmalade\\7.10\\modules\\iw2dscenegraphcore\\iw2dscenegraphcore.mkf'
p223
aS'd:\\marmalade\\modules\\soundengine\\soundengine.mkf'
p224
asS'strict-mkb'
p225
NsS'executeargs'
p226
NsS'clean'
p227
NsS'no-asm'
p228
NsS'output-name'
p229
g4
sS'no-modules'
p230
NsS'find_define'
p231
g4
s(dp232
S'c:\\marmalade\\7.10\\s3e\\makefile_builder\\templates\\aarch64_linker_script'
p233
F1443314056.0
sS'c:\\marmalade\\7.10\\s3e\\makefile_builder\\plugins\\xcode4_schememanagement.py'
p234
F1443314056.0
sS'c:\\marmalade\\7.10\\s3e\\makefile_builder\\templates\\wp81_csproj.pyc'
p235
F1443317622.0
sS'c:\\marmalade\\7.10\\s3e\\makefile_builder\\plugins\\s3e_win10.pyc'
p236
F1443317622.0
sS'c:\\marmalade\\7.10\\s3e\\makefile_builder\\mkb_launcher.exe'
p237
F1443315030.0
sS'c:\\marmalade\\7.10\\s3e\\makefile_builder\\templates\\win8_ext_csproj.pyc'
p238
F1443317622.0
sS'c:\\marmalade\\7.10\\s3e\\makefile_builder\\templates\\ws8_ext_sln.pyc'
p239
F1443317588.0
sS'c:\\marmalade\\7.10\\s3e\\makefile_builder\\templates\\ws81_sln.pyc'
p240
F1443317680.0
sS'c:\\marmalade\\7.10\\s3e\\makefile_builder\\templates\\xcode4_DeployTool.xcscheme'
p241
F1443314058.0
sS'c:\\marmalade\\7.10\\s3e\\makefile_builder\\plugins\\linux_vc14.pyc'
p242
F1443317654.0
sS'c:\\marmalade\\7.10\\s3e\\makefile_builder\\templates\\ws81_vcxproj.pyc'
p243
F1443317670.0
sS'c:\\marmalade\\7.10\\s3e\\makefile_builder\\plugins\\MakeEmitter.pyc'
p244
F1443317622.0
sS'c:\\marmalade\\7.10\\s3e\\makefile_builder\\templates\\win8_sln.pyc'
p245
F1443317610.0
sS'c:\\marmalade\\7.10\\s3e\\makefile_builder\\templates\\wp8_ext_csproj.pyc'
p246
F1443317704.0
sS'c:\\marmalade\\7.10\\s3e\\makefile_builder\\templates\\ws8_ext_csproj.pyc'
p247
F1443317594.0
sS'c:\\marmalade\\7.10\\s3e\\makefile_builder\\plugins\\deploy.pyc'
p248
F1443317634.0
sS'c:\\marmalade\\7.10\\s3e\\makefile_builder\\mkb_upstream.pyc'
p249
F1443317644.0
sS'c:\\marmalade\\7.10\\s3e\\makefile_builder\\templates\\wp81_vcxproj.pyc'
p250
F1443317612.0
sS'c:\\marmalade\\7.10\\s3e\\makefile_builder\\templates\\vc14_androidnative_ext_sln.pyc'
p251
F1443317640.0
sS'c:\\marmalade\\7.10\\s3e\\makefile_builder\\tool_launcher.exe'
p252
F1443315032.0
sS'c:\\marmalade\\7.10\\s3e\\makefile_builder\\plugins\\wp81_wp81.pyc'
p253
F1443317580.0
sS'c:\\marmalade\\7.10\\s3e\\makefile_builder\\templates\\qmake_user.py'
p254
F1443314056.0
sS'c:\\marmalade\\7.10\\s3e\\makefile_builder\\templates\\template.opt'
p255
F1443314056.0
sS'c:\\marmalade\\7.10\\s3e\\makefile_builder\\templates\\ws8_csproj_user.pyc'
p256
F1443317586.0
sS'c:\\marmalade\\7.10\\s3e\\makefile_builder\\plugins\\osx_scons.pyc'
p257
F1443317596.0
sS'c:\\marmalade\\7.10\\s3e\\makefile_builder\\plugins\\s3e_make.pyc'
p258
F1443317570.0
sS'c:\\marmalade\\7.10\\s3e\\makefile_builder\\templates\\win32_vcxproj.pyc'
p259
F1443317682.0
sS'c:\\marmalade\\7.10\\s3e\\makefile_builder\\templates\\win32_vcxproj_filters.pyc'
p260
F1443317594.0
sS'c:\\marmalade\\7.10\\s3e\\makefile_builder\\templates\\win32_dsp.pyc'
p261
F1443317690.0
sS'c:\\marmalade\\7.10\\s3e\\makefile_builder\\plugins\\linux_scons.pyc'
p262
F1443317710.0
sS'c:\\marmalade\\7.10\\s3e\\makefile_builder\\templates\\ws8_sln.pyc'
p263
F1443317680.0
sS'c:\\marmalade\\7.10\\s3e\\makefile_builder\\templates\\mips_linker_script'
p264
F1443314056.0
sS'c:\\marmalade\\7.10\\s3e\\makefile_builder\\templates\\wp8_vcxproj.pyc'
p265
F1443317624.0
sS'c:\\marmalade\\7.10\\s3e\\makefile_builder\\docs'
p266
F1446019855.710399
sS'c:\\marmalade\\7.10\\s3e\\makefile_builder\\templates\\xcode4_arm.xcscheme'
p267
F1443314058.0
sS'c:\\marmalade\\7.10\\s3e\\makefile_builder\\mkb_option.pyc'
p268
F1443317578.0
sS'c:\\marmalade\\7.10\\s3e\\makefile_builder\\templates\\xcode.py'
p269
F1443314058.0
sS'c:\\marmalade\\7.10\\s3e\\makefile_builder\\templates\\ws81_ext_sln.pyc'
p270
F1443317604.0
sS'c:\\marmalade\\7.10\\s3e\\makefile_builder\\templates\\win10_csproj.pyc'
p271
F1443317704.0
sS'c:\\marmalade\\7.10\\s3e\\makefile_builder\\templates\\wp8_csproj_user.pyc'
p272
F1443317658.0
sS'c:\\marmalade\\7.10\\s3e\\makefile_builder\\plugins\\s3e_wp8.pyc'
p273
F1443317680.0
sS'c:\\marmalade\\7.10\\s3e\\makefile_builder\\templates\\qmake.py'
p274
F1443314056.0
sS'c:\\marmalade\\7.10\\s3e\\makefile_builder\\templates\\win32_dsw.pyc'
p275
F1443317576.0
sS'c:\\marmalade\\7.10\\s3e\\makefile_builder\\templates\\wp8_sln.pyc'
p276
F1443317596.0
sS'c:\\marmalade\\7.10\\s3e\\makefile_builder\\templates\\vc6_opt.pyc'
p277
F1443317684.0
sS'c:\\marmalade\\7.10\\s3e\\makefile_builder\\plugins\\win10_win10.pyc'
p278
F1443317686.0
sS'c:\\marmalade\\7.10\\s3e\\makefile_builder\\templates\\linker_script'
p279
F1443314056.0
sS'c:\\marmalade\\7.10\\s3e\\makefile_builder\\templates\\win10_ext_sln.pyc'
p280
F1443317588.0
sS'c:\\marmalade\\7.10\\s3e\\makefile_builder\\plugins\\Win8Emitter.pyc'
p281
F1443317652.0
sS'c:\\marmalade\\7.10\\s3e\\makefile_builder\\nacl.mkf'
p282
F1443314056.0
sS'c:\\marmalade\\7.10\\s3e\\makefile_builder\\templates\\win10_ext_csproj.pyc'
p283
F1443317582.0
sS'c:\\marmalade\\7.10\\s3e\\makefile_builder\\templates\\wp81_ext_sln.pyc'
p284
F1443317610.0
sS'c:\\marmalade\\7.10\\s3e\\makefile_builder\\plugins\\s3e_wp81.pyc'
p285
F1443317678.0
sS'c:\\marmalade\\7.10\\s3e\\makefile_builder\\templates\\win8_csproj_user.pyc'
p286
F1443317596.0
sS'c:\\marmalade\\7.10\\s3e\\makefile_builder\\docs\\deployment_options.txt'
p287
F1443314056.0
sS'c:\\marmalade\\7.10\\s3e\\makefile_builder\\plugins\\s3e_vc14_androidnative.pyc'
p288
F1443317612.0
sS'c:\\marmalade\\7.10\\s3e\\makefile_builder\\templates\\wp8_csproj.pyc'
p289
F1443317690.0
sS'c:\\marmalade\\7.10\\s3e\\makefile_builder\\plugins\\VisualStudioEmitter.pyc'
p290
F1443317624.0
sS'c:\\marmalade\\7.10\\s3e\\makefile_builder\\mkb.py'
p291
F1443314056.0
sS'c:\\marmalade\\7.10\\s3e\\makefile_builder\\mkb_globals.pyc'
p292
F1443317674.0
sS'c:\\marmalade\\7.10\\s3e\\makefile_builder\\templates\\win10_sln.pyc'
p293
F1443317688.0
sS'c:\\marmalade\\7.10\\s3e\\makefile_builder\\plugins\\null.pyc'
p294
F1443317640.0
sS'c:\\marmalade\\7.10\\s3e\\makefile_builder\\docs\\mkb.defines.txt'
p295
F1443314056.0
sS'c:\\marmalade\\7.10\\s3e\\makefile_builder\\templates\\vc7_suo.pyc'
p296
F1443317678.0
sS'c:\\marmalade\\7.10\\s3e\\makefile_builder\\plugins\\S3EEmitter.pyc'
p297
F1443317686.0
sS'c:\\marmalade\\7.10\\s3e\\makefile_builder\\templates\\ws81_ext_csproj.pyc'
p298
F1443317660.0
sS'c:\\marmalade\\7.10\\s3e\\makefile_builder\\templates\\win8_vcxproj.pyc'
p299
F1443317706.0
sS'c:\\marmalade\\7.10\\s3e\\makefile_builder\\plugins\\s3e_vc6.pyc'
p300
F1443317594.0
sS'c:\\marmalade\\7.10\\s3e\\makefile_builder\\templates\\vc10_user.pyc'
p301
F1443317674.0
sS'c:\\marmalade\\7.10\\s3e\\makefile_builder\\docs\\deprecated.options.txt'
p302
F1443314056.0
sS'c:\\marmalade\\7.10\\s3e\\makefile_builder\\docs\\deprecated.defines.txt'
p303
F1443314056.0
sS'c:\\marmalade\\7.10\\s3e\\makefile_builder\\templates\\wp81_sln.pyc'
p304
F1443317634.0
sS'c:\\marmalade\\7.10\\s3e\\makefile_builder\\templates\\rvct_linker_script'
p305
F1443314056.0
sS'c:\\marmalade\\7.10\\s3e\\makefile_builder\\templates\\win10_vcxproj.pyc'
p306
F1443317618.0
sS'c:\\marmalade\\7.10\\s3e\\makefile_builder\\templates\\vc14_androidproj.pyc'
p307
F1443317640.0
sS'c:\\marmalade\\7.10\\s3e\\makefile_builder\\plugins\\XcodeEmitter.pyc'
p308
F1446052656.065168
sS'c:\\marmalade\\7.10\\s3e\\makefile_builder\\plugins\\s3e_scons.pyc'
p309
F1443317644.0
sS'c:\\marmalade\\7.10\\s3e\\makefile_builder\\templates\\win32_sln.pyc'
p310
F1443317704.0
sS'c:\\marmalade\\7.10\\s3e\\makefile_builder\\templates\\wp81_ext_csproj.pyc'
p311
F1443317684.0
sS'c:\\marmalade\\7.10\\s3e\\makefile_builder\\templates\\wp81_csproj_user.pyc'
p312
F1443317632.0
sS'c:\\marmalade\\7.10\\s3e\\makefile_builder\\plugins\\win8_utils.pyc'
p313
F1443317686.0
sS'c:\\marmalade\\7.10\\s3e\\makefile_builder\\plugins\\win32_vc6.pyc'
p314
F1443317604.0
sS'c:\\marmalade\\7.10\\s3e\\makefile_builder\\plugins\\ws8_ws8.pyc'
p315
F1443317676.0
sS'c:\\marmalade\\7.10\\s3e\\makefile_builder\\templates\\ws81_csproj.pyc'
p316
F1443317608.0
sS'c:\\marmalade\\7.10\\s3e\\makefile_builder\\plugins\\s3e_qmake.py'
p317
F1443314056.0
sS'c:\\marmalade\\7.10\\s3e\\makefile_builder\\plugins\\Emitter.pyc'
p318
F1443317632.0
sS'c:\\marmalade\\7.10\\s3e\\makefile_builder\\plugins\\wp8_wp8.pyc'
p319
F1443317650.0
sS'c:\\marmalade\\7.10\\s3e\\makefile_builder\\plugins\\s3e_win8.pyc'
p320
F1443317610.0
sS'c:\\marmalade\\7.10\\s3e\\makefile_builder\\templates\\gdb_start.txt'
p321
F1443314056.0
sS'c:\\marmalade\\7.10\\s3e\\makefile_builder\\templates\\Info.plist'
p322
F1443314056.0
sS'c:\\marmalade\\7.10\\s3e\\makefile_builder\\plugins\\vc7_utils.pyc'
p323
F1443317620.0
sS'c:\\marmalade\\7.10\\s3e\\makefile_builder\\templates\\vc8_user.pyc'
p324
F1443317650.0
sS'c:\\marmalade\\7.10\\s3e\\makefile_builder\\plugins\\s3e_ws81.pyc'
p325
F1443317688.0
sS'c:\\marmalade\\7.10\\s3e\\makefile_builder\\templates\\win10_csproj_user.pyc'
p326
F1443317618.0
sS'c:\\marmalade\\7.10\\s3e\\makefile_builder\\templates\\xcode_pbxuser.py'
p327
F1443314058.0
sS'c:\\marmalade\\7.10\\s3e\\makefile_builder\\mkb_parser.pyc'
p328
F1443317612.0
sS'c:\\marmalade\\7.10\\s3e\\makefile_builder\\templates\\ws8_vcxproj.pyc'
p329
F1443317696.0
sS'c:\\marmalade\\7.10\\s3e\\makefile_builder\\plugins\\xcode4_schememanagement.pyc'
p330
F1446052656.0711737
sS'c:\\marmalade\\7.10\\s3e\\makefile_builder\\templates'
p331
F1446019856.4123716
sS'c:\\marmalade\\7.10\\s3e\\makefile_builder\\templates\\xcode4.xcscheme'
p332
F1443314058.0
sS'c:\\marmalade\\7.10\\s3e\\makefile_builder\\plugins\\ws81_ws81.pyc'
p333
F1443317638.0
sS'c:\\marmalade\\7.10\\s3e\\makefile_builder\\docs\\parse_options.pyc'
p334
F1443317690.0
sS'c:\\marmalade\\7.10\\s3e\\makefile_builder\\templates\\template.suo'
p335
F1443314056.0
sS'c:\\marmalade\\7.10\\s3e\\makefile_builder\\docs\\options.txt'
p336
F1443314056.0
sS'c:\\marmalade\\7.10\\s3e\\makefile_builder\\mkb_util.pyc'
p337
F1443317616.0
sS'c:\\marmalade\\7.10\\s3e\\makefile_builder\\templates\\ws81_csproj_user.pyc'
p338
F1443317686.0
sS'c:\\marmalade\\7.10\\s3e\\makefile_builder\\plugins\\s3e_qmake.pyc'
p339
F1446052656.1569195
sS'c:\\marmalade\\7.10\\s3e\\makefile_builder\\templates\\win32_vcproj.pyc'
p340
F1443317676.0
sS'c:\\marmalade\\7.10\\s3e\\makefile_builder\\templates\\vc14_androidnative_vcxproj.pyc'
p341
F1443317580.0
sS'c:\\marmalade\\7.10\\s3e\\makefile_builder\\plugins\\s3e_xcode.pyc'
p342
F1446052656.1934426
sS'c:\\marmalade\\7.10\\s3e\\makefile_builder\\plugins\\s3e_xcode.py'
p343
F1443314056.0
sS'c:\\marmalade\\7.10\\s3e\\makefile_builder\\templates\\MainWindow.xib'
p344
F1443314056.0
sS'c:\\marmalade\\7.10\\s3e\\makefile_builder\\plugins'
p345
F1446052656.1919422
sS'c:\\marmalade\\7.10\\s3e\\makefile_builder\\templates\\win8_csproj.pyc'
p346
F1443317710.0
sS'c:\\marmalade\\7.10\\s3e\\makefile_builder\\plugins\\s3e_web.pyc'
p347
F1443317636.0
sS'c:\\marmalade\\7.10\\s3e\\makefile_builder\\templates\\make.py'
p348
F1443314056.0
sS'c:\\marmalade\\7.10\\s3e\\makefile_builder\\plugins\\s3e_ws8.pyc'
p349
F1443317684.0
sS'c:\\marmalade\\7.10\\s3e\\makefile_builder\\deployment.pyc'
p350
F1443317652.0
sS'c:\\marmalade\\7.10\\s3e\\makefile_builder\\plugins\\XcodeEmitter.py'
p351
F1443314056.0
sS'c:\\marmalade\\7.10\\s3e\\makefile_builder\\plugins\\vc6_utils.pyc'
p352
F1443317682.0
sS'c:\\marmalade\\7.10\\s3e\\makefile_builder\\plugins\\SConsEmitter.pyc'
p353
F1443317608.0
sS'c:\\marmalade\\7.10\\s3e\\makefile_builder\\templates\\ws8_csproj.pyc'
p354
F1443317670.0
sS'c:\\marmalade\\7.10\\s3e\\makefile_builder\\plugins\\java.pyc'
p355
F1443317626.0
sS'c:\\marmalade\\7.10\\s3e\\makefile_builder\\plugins\\osx_xcode.pyc'
p356
F1443317590.0
sS'c:\\marmalade\\7.10\\s3e\\makefile_builder\\templates\\vc14_androidnative_sln.pyc'
p357
F1443317622.0
sS'c:\\marmalade\\7.10\\s3e\\makefile_builder\\templates\\scons.pyc'
p358
F1443317700.0
sS'c:\\marmalade\\7.10\\s3e\\makefile_builder\\mkb_main.pyc'
p359
F1443317632.0
sS'c:\\marmalade\\7.10\\s3e\\makefile_builder\\plugins\\iphone.pyc'
p360
F1443317654.0
sccopy_reg
_reconstructor
p361
(cmkb_main
MkbFile
p362
c__builtin__
object
p363
Ntp364
Rp365
(dp366
g5
(lp367
sS'target_name'
p368
S'Stage1'
p369
sS'current_file'
p370
g145
sS'package_path'
p371
(lp372
sS'post_build'
p373
(lp374
(lp375
S'c:/marmalade/7.10/s3e/tools'
p376
aS'C:\\Marmalade\\7.10\\s3e\\python\\python.exe .\\process_map.py "$(TargetPath)"'
p377
aa(S'c:\\marmalade\\7.10\\s3e\\bin'
p378
S'"s3e_plink" -l "$(TargetPath)" '
p379
g182
tp380
asS'librarys'
p381
(lp382
g361
(cmkb_main
Library
p383
g363
Ntp384
Rp385
(dp386
S'name'
p387
S'vc12_compat.lib'
p388
sS'expand_name'
p389
I00
sS'include_spec_rvct_objs'
p390
(lp391
sS'include_all_objs'
p392
I00
sS'share_arm'
p393
I00
sS'arch'
p394
S'x86'
p395
sS'nodebug'
p396
I00
sg43
Nsbag361
(g383
g363
Ntp397
Rp398
(dp399
g387
S'iwutil'
p400
sg389
I01
sg390
(lp401
sg392
Nsg393
Nsg394
Nsg396
I00
sg43
Nsbag361
(g383
g363
Ntp402
Rp403
(dp404
g387
S'jpeg'
p405
sg389
I01
sg390
g401
sg392
Nsg393
Nsg394
Nsg396
I00
sg43
Nsbag361
(g383
g363
Ntp406
Rp407
(dp408
g387
S'z'
p409
sg389
I01
sg390
g401
sg392
Nsg393
Nsg394
Nsg396
I00
sg43
Nsbag361
(g383
g363
Ntp410
Rp411
(dp412
g387
S'png'
p413
sg389
I01
sg390
g401
sg392
Nsg393
Nsg394
Nsg396
I00
sg43
Nsbag361
(g383
g363
Ntp414
Rp415
(dp416
g387
S'iw2d'
p417
sg389
I01
sg390
g401
sg392
Nsg393
Nsg394
Nsg396
I00
sg43
Nsbag361
(g383
g363
Ntp418
Rp419
(dp420
g387
S'ATI_Compress_MT_VC7.lib'
p421
sg389
I00
sg390
g401
sg392
Nsg393
Nsg394
S'x86'
p422
sg396
I00
sg43
Nsbag361
(g383
g363
Ntp423
Rp424
(dp425
g387
S'iwgx'
p426
sg389
I01
sg390
g401
sg392
Nsg393
Nsg394
Nsg396
I00
sg43
Nsbag361
(g383
g363
Ntp427
Rp428
(dp429
g387
S'iwgl'
p430
sg389
I01
sg390
g401
sg392
Nsg393
Nsg394
Nsg396
I00
sg43
Nsbag361
(g383
g363
Ntp431
Rp432
(dp433
g387
S'iwgeom'
p434
sg389
I01
sg390
g401
sg392
Nsg393
Nsg394
Nsg396
I00
sg43
Nsbag361
(g383
g363
Ntp435
Rp436
(dp437
g387
S'iwresmanager'
p438
sg389
I01
sg390
g401
sg392
Nsg393
Nsg394
Nsg396
I00
sg43
Nsbag361
(g383
g363
Ntp439
Rp440
(dp441
g387
S'iwgxfont'
p442
sg389
I01
sg390
g401
sg392
Nsg393
Nsg394
Nsg396
I00
sg43
Nsbag361
(g383
g363
Ntp443
Rp444
(dp445
g387
S'tiniconv'
p446
sg389
I01
sg390
g401
sg392
Nsg393
Nsg394
Nsg396
I00
sg43
Nsbag361
(g383
g363
Ntp447
Rp448
(dp449
g387
S's3e_cpp'
p450
sg389
I01
sg390
g391
sg392
I00
sg393
I00
sg394
Nsg396
I00
sg43
Nsbag361
(g383
g363
Ntp451
Rp452
(dp453
g387
S's3e_vc14'
p454
sg389
I01
sg390
(lp455
S'iwcrt.o'
p456
asg392
I00
sg393
I00
sg394
S'x86'
p457
sg396
I00
sg43
Nsbag361
(g383
g363
Ntp458
Rp459
(dp460
g387
S's3e'
p461
sg389
I01
sg390
(lp462
g456
asg392
I00
sg393
I00
sg394
S'!x86'
p463
sg396
I00
sg43
Nsbag361
(g383
g363
Ntp464
Rp465
(dp466
g387
g61
sg389
I01
sg390
g391
sg392
I00
sg393
I00
sg394
S'x86'
p467
sg396
I01
sg43
Nsbag361
(g383
g363
Ntp468
Rp469
(dp470
g387
g61
sg389
I01
sg390
g391
sg392
I00
sg393
I00
sg394
S'!x86'
p471
sg396
I01
sg43
Nsbag361
(g383
g363
Ntp472
Rp473
(dp474
g387
S'stdc++'
p475
sg389
I00
sg390
g391
sg392
I00
sg393
I00
sg394
S'mips'
p476
sg396
I00
sg43
Nsbag361
(g383
g363
Ntp477
Rp478
(dp479
g387
S'c'
p480
sg389
I00
sg390
g391
sg392
I00
sg393
I00
sg394
S'mips'
p481
sg396
I00
sg43
Nsbag361
(g383
g363
Ntp482
Rp483
(dp484
g387
S'm'
p485
sg389
I00
sg390
g391
sg392
I00
sg393
I00
sg394
S'mips'
p486
sg396
I00
sg43
Nsbag361
(g383
g363
Ntp487
Rp488
(dp489
g387
S'gcc'
p490
sg389
I00
sg390
g391
sg392
I00
sg393
I00
sg394
S'mips'
p491
sg396
I00
sg43
Nsbag361
(g383
g363
Ntp492
Rp493
(dp494
g387
g490
sg389
I00
sg390
g391
sg392
I00
sg393
I00
sg394
S'naclx86_64'
p495
sg396
I00
sg43
Nsbag361
(g383
g363
Ntp496
Rp497
(dp498
g387
S'gcc_eh'
p499
sg389
I00
sg390
g391
sg392
I00
sg393
I00
sg394
S'naclx86_64'
p500
sg396
I00
sg43
Nsbag361
(g383
g363
Ntp501
Rp502
(dp503
g387
g480
sg389
I00
sg390
g391
sg392
I00
sg393
I00
sg394
S'naclx86_64'
p504
sg396
I00
sg43
Nsbag361
(g383
g363
Ntp505
Rp506
(dp507
g387
g485
sg389
I00
sg390
g391
sg392
I00
sg393
I00
sg394
S'naclx86_64'
p508
sg396
I00
sg43
Nsbag361
(g383
g363
Ntp509
Rp510
(dp511
g387
S'supc++'
p512
sg389
I00
sg390
g391
sg392
I00
sg393
I00
sg394
S'naclx86_64'
p513
sg396
I00
sg43
Nsbag361
(g383
g363
Ntp514
Rp515
(dp516
g387
S'supc++'
p517
sg389
I00
sg390
g391
sg392
I00
sg393
I00
sg394
S'gcc_x86_android'
p518
sg396
I00
sg43
Nsbag361
(g383
g363
Ntp519
Rp520
(dp521
g387
g480
sg389
I00
sg390
g391
sg392
I00
sg393
I00
sg394
S'gcc_x86_android'
p522
sg396
I00
sg43
Nsbag361
(g383
g363
Ntp523
Rp524
(dp525
g387
g485
sg389
I00
sg390
g391
sg392
I00
sg393
I00
sg394
S'gcc_x86_android'
p526
sg396
I00
sg43
Nsbag361
(g383
g363
Ntp527
Rp528
(dp529
g387
g490
sg389
I00
sg390
g391
sg392
I00
sg393
I00
sg394
S'gcc_x86_android'
p530
sg396
I00
sg43
Nsbag361
(g383
g363
Ntp531
Rp532
(dp533
g387
S'dl'
p534
sg389
I00
sg390
g391
sg392
I00
sg393
I00
sg394
S'gcc_x86_android'
p535
sg396
I00
sg43
Nsbag361
(g383
g363
Ntp536
Rp537
(dp538
g387
S'supc++'
p539
sg389
I00
sg390
g391
sg392
I00
sg393
I00
sg394
S'gcc_arm_android'
p540
sg396
I00
sg43
Nsbag361
(g383
g363
Ntp541
Rp542
(dp543
g387
g480
sg389
I00
sg390
g391
sg392
I00
sg393
I00
sg394
S'gcc_arm_android'
p544
sg396
I00
sg43
Nsbag361
(g383
g363
Ntp545
Rp546
(dp547
g387
g485
sg389
I00
sg390
g391
sg392
I00
sg393
I00
sg394
S'gcc_arm_android'
p548
sg396
I00
sg43
Nsbag361
(g383
g363
Ntp549
Rp550
(dp551
g387
g490
sg389
I00
sg390
g391
sg392
I00
sg393
I00
sg394
S'gcc_arm_android'
p552
sg396
I00
sg43
Nsbag361
(g383
g363
Ntp553
Rp554
(dp555
g387
g534
sg389
I00
sg390
g391
sg392
I00
sg393
I00
sg394
S'gcc_arm_android'
p556
sg396
I00
sg43
NsbasS'library_paths'
p557
(lp558
g361
(cmkb_main
LibraryPath
p559
g363
Ntp560
Rp561
(dp562
S'expand_path'
p563
I01
sg387
S'c:/marmalade/7.10/modules/iwutil'
p564
sbag361
(g559
g363
Ntp565
Rp566
(dp567
g563
I01
sg387
S'c:/marmalade/7.10/modules/third_party/libjpeg'
p568
sbag361
(g559
g363
Ntp569
Rp570
(dp571
g563
I01
sg387
S'c:/marmalade/7.10/modules/third_party/zlib'
p572
sbag361
(g559
g363
Ntp573
Rp574
(dp575
g563
I01
sg387
S'c:/marmalade/7.10/modules/third_party/libpng'
p576
sbag361
(g559
g363
Ntp577
Rp578
(dp579
g563
I01
sg387
S'c:/marmalade/7.10/modules/iw2d'
p580
sbag361
(g559
g363
Ntp581
Rp582
(dp583
g563
I00
sg387
S'c:/marmalade/7.10/modules/iwgx/atitools'
p584
sbag361
(g559
g363
Ntp585
Rp586
(dp587
g563
I01
sg387
S'c:/marmalade/7.10/modules/iwgx'
p588
sbag361
(g559
g363
Ntp589
Rp590
(dp591
g563
I01
sg387
S'c:/marmalade/7.10/modules/iwgl'
p592
sbag361
(g559
g363
Ntp593
Rp594
(dp595
g563
I01
sg387
S'c:/marmalade/7.10/modules/iwgeom'
p596
sbag361
(g559
g363
Ntp597
Rp598
(dp599
g563
I01
sg387
S'c:/marmalade/7.10/modules/iwresmanager'
p600
sbag361
(g559
g363
Ntp601
Rp602
(dp603
g563
I01
sg387
S'c:/marmalade/7.10/modules/iwgxfont'
p604
sbag361
(g559
g363
Ntp605
Rp606
(dp607
g563
I01
sg387
S'c:/marmalade/7.10/modules/third_party/tiniconv'
p608
sbag361
(g559
g363
Ntp609
Rp610
(dp611
g563
I01
sg387
S'c:/marmalade/7.10/s3e'
p612
sbasS'macros'
p613
(dp614
S'IW_TRACE_CHANNEL_AMAZONADS'
p615
S'1'
p616
sS'IW_USE_CALLSTACK'
p617
NsS'IW_PLATFORM_S3E'
p618
NsS'I3D_PLATFORM_S3E'
p619
NsS'IW_TRACE_CHANNEL_PVRTEXTOOL_VERBOSE'
p620
S'2'
p621
sS'IW_TRACE_CHANNEL_AMAZONADS_VERBOSE'
p622
g621
sS'IW_MKF_LIBJPEG'
p623
NsS'I3D_OS_S3E'
p624
NsS'IW_MKF_PVRTEXTOOL'
p625
NsS'IW_MKF_AMAZON_ADS_IOS_SDK'
p626
NsS'IW_MKF_TINICONV'
p627
NsS'IW_APP_VERSION'
p628
S'"1.0"'
p629
sS'__S3E__'
p630
NsS'IW_MKF_IWRESMANAGER'
p631
NsS'IW_MKF_FREELICENSE'
p632
NsS'IW_MKF_S3EAMAZONADS'
p633
NsS'IW_MKF_IWUTIL'
p634
NsS'IW_MKF_IWGEOM'
p635
NsS'IW_MKF_AMAZON_ADS_ANDROID_SDK'
p636
NsS'IW_ASSERTION_CHANNEL_2D'
p637
g616
sS'IW_APP_NAME'
p638
S'"Stage1"'
p639
sS'IW_MKF_S3E_DEFAULT'
p640
NsS'IW_MKF_IWGXFONT'
p641
NsS'IW_MKF_ZLIB'
p642
NsS'IW_MKF_IWGX'
p643
NsS'IW_MKF_IW2DSCENEGRAPH'
p644
NsS'IW_MKF_SOUNDENGINE'
p645
NsS'IW_ASSERTION_CHANNEL_AMAZONADS'
p646
g616
sS'IW_USE_ASSERTIONS'
p647
NsS'_CRT_SECURE_NO_DEPRECATE'
p648
NsS'IW_MKF_IWGL'
p649
NsS'IW_MKF_LIBPNG'
p650
NsS'IW_TRACE_CHANNEL_IW_2DSCENEGRAPH'
p651
g616
sS'IW_DEBUG'
p652
NsS'IW_USE_TRACING'
p653
NsS'IW_ASSERTION_CHANNEL_IW_2DSCENEGRAPH'
p654
g616
sS'IW_TRACE_CHANNEL_PVRTEXTOOL'
p655
g616
sS'IW_SDK'
p656
NsS'S3E_INCLUDE_LEGACY'
p657
NsS'IW_MKF_IW2DSCENEGRAPHCORE'
p658
NsS'IW_MKF_IW2D'
p659
NsS'IW_ASSERTION_CHANNEL_PVRTEXTOOL'
p660
g616
ssS'done_warnings'
p661
(dp662
sS'subprojects'
p663
(dp664
g211
S'zlib'
p665
sg221
S'tiniconv'
p666
sg206
S's3e-default.mkf'
p667
sg219
S'PVRTexTool'
p668
sg218
S'iwresmanager'
p669
sg213
S'amazon-ads-ios-sdk'
p670
sg217
S'iwgeom'
p671
sg223
S'../iw2dscenegraphcore'
p672
sg212
S'amazon-ads-android-sdk'
p673
sg215
S'iwgx'
p674
sg210
S'libpng'
p675
sg208
S'iwutil'
p676
sg207
S's3eAmazonAds'
p677
sg222
S'iw2dscenegraph'
p678
sg220
S'iwgxfont'
p679
sg209
S'libjpeg'
p680
sg216
S'iwgl'
p681
sg224
S'SoundEngine'
p682
sg214
S'iw2d'
p683
ssS'deployments'
p684
(dp685
S'Default'
p686
g361
(cdeployment
Deployment
p687
g363
Ntp688
Rp689
(dp690
S'got_version'
p691
I0
sS'assets'
p692
g686
sS'mkb'
p693
g365
sS'target'
p694
Nsg394
(lp695
sS'options'
p696
(dp697
S'iphone-link-lib'
p698
(lp699
S's3eAmazonAds'
p700
asS'game-icf'
p701
NsS'android-tm'
p702
NsS'winmobile-icon32'
p703
NsS'ws8-logo-image150x150'
p704
NsS'wp81-logo-image150x150'
p705
NsS'win10-product-name'
p706
NsS'android-keystore'
p707
NsS'osx-ext-dll'
p708
(lp709
S'c:/marmalade/7.10/extensions/pvrtextool/lib/osx/libPVRTexTool.dylib'
p710
asS'iphone-provisioning-profile'
p711
NsS'win10-identity-name'
p712
NsS'ws8-splash-screen-image620x300'
p713
NsS'wp81-extra-pri'
p714
(lp715
sS'ws8-ext-capabilities'
p716
(lp717
sS'android-icon-hdpi'
p718
NsS'iphone-ipad-only'
p719
NsS'iphone-splash-full-orient'
p720
NsS'wp8-tile-fliptemplate-supports-large'
p721
NsS'iphone-show-status-bar'
p722
NsS'roku-requires-mkv'
p723
NsS'long-caption'
p724
NsS'android-pkgname'
p725
NsS'ws8-ext-native-only-dll'
p726
(lp727
sS'wp81-publisher-display-name'
p728
NsS'win10-logo-image150x150'
p729
NsS'blackberry-permissions-read-device-identifying-information'
p730
NsS'ws81-certificate-end-date'
p731
NsS'psp-dlgcontentid'
p732
NsS'android-version-code'
p733
NsS'win10-ext-uap-capabilities'
p734
(lp735
sS'iphone-minimum-ios-version'
p736
NsS'target-folder'
p737
NsS'tizen-dist1-CA-path'
p738
NsS'symbian-icon2-format'
p739
NsS'tizen-author-key'
p740
NsS'firefoxos-icon-128X128'
p741
NsS'iphone-region'
p742
NsS'uiq3-icon3-mask'
p743
NsS'brew-encoding'
p744
NsS'version'
p745
NsS'nds-initialcode'
p746
NsS'win10-ext-native-dll'
p747
(lp748
sS'iphone-persistent-wifi'
p749
NsS'psp-snd0'
p750
NsS'roku-icon-focus-hd'
p751
NsS'osx-appid'
p752
NsS'ws81-ext-native-only-dll'
p753
(lp754
sS'winmobile-install-folder'
p755
NsS'android-external-res'
p756
(lp757
sS'ws8-product-version'
p758
NsS'brew-priviledges'
p759
NsS'iphone-icon-ipad-search'
p760
NsS'iphone-icon-ipad'
p761
NsS'iphone-skip-icon-generation'
p762
NsS'nacl-icon-128X128'
p763
NsS'roku-hidden'
p764
NsS'psp-titlename'
p765
NsS'wp81-product-version'
p766
NsS'symbian-icon1-mask'
p767
NsS'psp-parentallevel'
p768
NsS'iphone-launch-storyboard'
p769
NsS'splashscreen-use-all'
p770
NsS'symbian-disable-ecompxl'
p771
NsS'splashscreen-auto-onblack'
p772
NsS'iphone-icon-dir'
p773
NsS'iphone-icon-extra'
p774
NsS'win32-ext-dll'
p775
(lp776
S'c:/marmalade/7.10/extensions/pvrtextool/lib/win32/PVRTexTool.dll'
p777
asS'iphone-development-key'
p778
NsS'winmobile-icon48'
p779
NsS'android-unsigned'
p780
NsS'osx-appstore-category'
p781
NsS'version-revision'
p782
NsS'roku-icon-focus-sd'
p783
NsS'ws81-product-version'
p784
NsS'winmobile-png90'
p785
NsS'iphone-icon-ipad-high-res'
p786
NsS'iphone-disable-ipad'
p787
NsS'win10-ext-sdk-ref'
p788
(lp789
sS'ws81-splash-screen-background'
p790
NsS'wp8-ext-capabilities'
p791
(lp792
sS'brew-icon-large'
p793
NsS'symbian-icon1-mask-black'
p794
NsS'ws8-extra-res'
p795
(lp796
sS'iphone-bundle-localisations'
p797
NsS'winmobile-png60'
p798
NsS'blackberry-permissions-access-shared'
p799
NsS'blackberry-author'
p800
NsS'android-icon-xxxhdpi'
p801
NsS'olddeploytoolstyle'
p802
NsS'android_icon_gallery'
p803
NsS'win10-distribution-pfx-password'
p804
NsS'wp81-splash-screen-background'
p805
NsS'wp8-exclude-720p'
p806
NsS'iphone-info-plist'
p807
NsS'ws81-ext-managed-dll'
p808
(lp809
sS'playbook-cskpass'
p810
NsS'win10-description'
p811
NsS'ws8-distribution-pfx-password'
p812
NsS'symbian-key'
p813
NsS'app-icf'
p814
NsS'blackberry-storepass'
p815
NsS'wp8-tile-fliptemplate-back-title'
p816
NsS'brew-compress-loader'
p817
NsS'iphone-testflight'
p818
NsS'win32-pref-windowposy'
p819
NsS'win32-pref-windowposx'
p820
NsS'roku-requires-audiometadata'
p821
NsS'wp8-exclude-low-mem'
p822
NsS'android-min-sdk-version'
p823
NsS'wp8-tile-fliptemplate-title'
p824
NsS'iphone-icon-ipad-search-high-res'
p825
NsS'iphone-link-libdir'
p826
(lp827
S'c:/marmalade/7.10/extensions/s3eamazonads/lib/iphone'
p828
asS'wp81-ext-capabilities'
p829
(lp830
sS'blackberry-permissions-read-geolocation'
p831
NsS'win10-splash-screen-image620x300'
p832
NsS'ws81-ext-device-capabilities'
p833
(lp834
sS'tizen-signed'
p835
NsS'android-extra-application-manifest'
p836
(lp837
S'c:/marmalade/7.10/extensions/s3eamazonads/source/android/ExtraAppManifests.xml'
p838
asS'android-x86'
p839
NsS'win10-extra-res'
p840
(lp841
sS'ws8-ext-native-dll'
p842
(lp843
sS'symbian-icon2-mask'
p844
NsS'iphone-launch-extra'
p845
NsS'webos-memory'
p846
NsS'android-keypass'
p847
NsS'name'
p848
NsS'uiq3-icon2-format'
p849
NsS'roku-splash-screen-sd'
p850
NsS'auto-derbh'
p851
NsS'roku-icon-side-sd'
p852
NsS'android-external-assets'
p853
(lp854
sS'nds-publicsavedatasize'
p855
NsS'splashscreen'
p856
NsS'wp8-product-id'
p857
NsS'iphone-icon-settings-high-res'
p858
NsS'android-manifest'
p859
NsS'ws81-splash-screen-image620x300'
p860
NsS'wp81-product-name'
p861
NsS's3e-compression'
p862
NsS'tizen-author-password'
p863
NsS'wp8-tile-fliptemplate-back-content'
p864
NsS'blackberry-extra-descriptor'
p865
(lp866
sS'android-java-source-version'
p867
NsS'symbian-icon1'
p868
NsS'symbian-icon2'
p869
NsS'nds-makercode'
p870
NsS'android-extra-styles-file'
p871
NsS'android-ext-target-sdk-version'
p872
(lp873
I17
asS'wp81-publisher-id'
p874
NsS'nds-bannertitle-jp'
p875
NsS'wp81-logo-image44x44'
p876
NsS'osx-sign-for-store'
p877
NsS'symbian7-uid'
p878
NsS'wp8-tile-fliptemplate-large-back-content'
p879
NsS'wp81-phone-publisher-id'
p880
NsS'nds-bannertitle-cn'
p881
NsS'iphone-distribution-key'
p882
NsS'win10-phone-publisher-id'
p883
NsS'android-icon-gallery'
p884
NsS'blackberry-keystore'
p885
NsS'iphone-nosign'
p886
NsS'caption'
p887
NsS'nacl-permissions'
p888
NsS'android-extra-manifest'
p889
(lp890
sS'wp81-ext-sdk-ref'
p891
(lp892
sS'android-icon-xxhdpi'
p893
NsS'version-minor'
p894
NsS'iphone-skip-launch-generation'
p895
NsS'iphone-link-libdirs'
p896
(lp897
sS'iphone-icon-large'
p898
NsS'symbian-keypwd'
p899
NsS'symbian8-uid'
p900
NsS'symbian-cert-key'
p901
NsS'winmobile-ampd-part-number'
p902
NsS'arch'
p903
NsS'nds-romheadertemplate'
p904
NsS'webos-icon'
p905
NsS'wp81-ext-device-capabilities'
p906
(lp907
sS'psp-dlgprotectdocument'
p908
NsS'ws8-splash-screen-background'
p909
NsS'android-icon-mdpi'
p910
NsS'android-sdk-build-tools-version'
p911
NsS'nds-icon'
p912
NsS'ws8-custom-manifest-fill'
p913
NsS'iphone-development-cert'
p914
NsS'symbian-icon2-mask-black'
p915
NsS'blackberry-phone-icon'
p916
NsS'iphone-enable-4inch-retina'
p917
NsS'ws8-custom-manifest'
p918
NsS'version-major'
p919
NsS'wp8-genre-isgame'
p920
NsS'uiq3-uid'
p921
NsS'iphone-splash-retina-generate'
p922
NsS'tizen-hw-acceleration'
p923
NsS'iphone_bundle_localisations'
p924
NsS'tizen-dist1-key'
p925
NsS'wp81-custom-manifest-fill'
p926
NsS'wp8-custom-manifest'
p927
NsS'nds-bannertitle-ge'
p928
NsS'iphone-sign-for-distribution'
p929
NsS'wp8-tile-fliptemplate-medium-back-image'
p930
NsS'wp8-publisher-id'
p931
NsS'icon'
p932
NsS'android-target-sdk-version'
p933
NsS'win10-ext-capabilities'
p934
(lp935
sS'wp8-exclude-wxga'
p936
NsS'wp81-identity-name'
p937
NsS'uiq3-icon2-mask'
p938
NsS'iphone-splashscreen-portrait'
p939
NsS'iphone-icon-high-res'
p940
NsS'ws81-distribution-pfx-password'
p941
NsS'playbook-author'
p942
NsS'wp8-custom-manifest-fill'
p943
NsS'linux-ext-lib'
p944
(lp945
sS'blackberry-permissions-access-internet'
p946
NsS'lgtv-use-drm'
p947
NsS'win10-splash-screen-image480x800'
p948
NsS'symbian-platsecflags'
p949
NsS'ws8-description'
p950
NsS'blackberry-playbook-icon'
p951
NsS'win10-distribution-cer'
p952
NsS'copyright'
p953
NsS'winmobile-cab-compress'
p954
NsS'win32-gles-directory'
p955
NsS'wp8-author'
p956
NsS'android-ext-min-sdk-version'
p957
(lp958
I4
asS'iphone-uiviewcontroller-based-status-bar'
p959
NsS'ws81-logo-image150x150'
p960
NsS'osx-signing-identity-app'
p961
NsS'tizen-project-url'
p962
NsS'symbian-icon-svg'
p963
NsS'android-aliasname'
p964
NsS'psp-dlgmanual'
p965
NsS'brew-uid'
p966
NsS'wp81-ext-native-only-dll'
p967
(lp968
sS'symbian-locationsupport'
p969
NsS'wp81-logo-image50x50'
p970
NsS'ws8-ext-managed-dll'
p971
(lp972
sS'nds-bannertitle-it'
p973
NsS'ws81-custom-manifest-fill'
p974
NsS'ws8-ext-sdk-manifest-part'
p975
(lp976
sS'uiq3-icon1-mask'
p977
NsS'winmobile-icon16'
p978
NsS'ws8-product-name'
p979
NsS'blackberry-cskpass'
p980
NsS'winmobile-start-menu-folder'
p981
NsS'brew-clsid'
p982
NsS'roku-requires-bluetooth'
p983
NsS'iphone-default-development-profile'
p984
NsS'ws8-ext-device-capabilities'
p985
(lp986
sS'blackberry-permissions-use-camera'
p987
NsS'ws81-extra-pri'
p988
(lp989
sS'iphone-prerendered-icon'
p990
NsS'iphone-appid'
p991
NsS'ws8-identity-name'
p992
NsS'tizen-dist2-CA-path'
p993
NsS'android-external-jars'
p994
(lp995
S'c:/marmalade/7.10/platform_libs/android/amazon-ads-android-sdk/third_party/lib/amazon-ads-5.5.149.jar'
p996
aS'c:/marmalade/7.10/extensions/s3eamazonads/lib/android/s3eAmazonAds.jar'
p997
asS'winmobile-icon64'
p998
NsS'blackberry-permissions-post-notification'
p999
NsS'winmobile-setup-dll'
p1000
NsS'firefoxos-manifest'
p1001
NsS'win8-winrt-extra-res'
p1002
(lp1003
sS'wp81-ext-sdk-manifest-part'
p1004
(lp1005
sS'symbian9-uid'
p1006
NsS'iphone-icon-ipad-ios7'
p1007
NsS'winmobile-trace-file'
p1008
NsS'roku-splash-color'
p1009
NsS'psp-appversion'
p1010
NsS'android-java-target-version'
p1011
NsS'ws8-publisher-id'
p1012
NsS'win10-splash-screen-background'
p1013
NsS'win10-product-id'
p1014
NsS'win10-logo-image30x30'
p1015
NsS'winmobile-png45'
p1016
NsS'wp81-extra-res'
p1017
(lp1018
sS'android-storepass'
p1019
NsS'nacl-icon-16X16'
p1020
NsS'osx-signing-identity-inst'
p1021
NsS'android-custom-activity'
p1022
NsS'psp-discversion'
p1023
NsS'wp81-ext-managed-dll'
p1024
(lp1025
sS'nacl-clear-user-data'
p1026
NsS'psp-copyright'
p1027
NsS'win10-ext-managed-dll'
p1028
(lp1029
sS'win10-logo-image50x50'
p1030
NsS'embed-icf'
p1031
NsS'tizen-manifest'
p1032
NsS'osx-icon'
p1033
NsS'webos-appinfo'
p1034
NsS'psp-dlghealthwarning'
p1035
NsS'webos-appid'
p1036
NsS'roku-icon-side-hd'
p1037
NsS'iphone-icon-ipad-search-high-res-ios7'
p1038
NsS'iphone-extra-plist'
p1039
(lp1040
sS'ws81-ext-sdk-manifest-part'
p1041
(lp1042
sS'loader_name_prefix'
p1043
NsS'iphone-launch-dir'
p1044
NsS'nds-titlename'
p1045
NsS'ws81-logo-image50x50'
p1046
NsS'wp81-custom-manifest'
p1047
NsS'osx-entitlements-plist'
p1048
NsS'win10-product-version'
p1049
NsS'psp-dlgicon0'
p1050
NsS'winmobile-nouninstall'
p1051
NsS'psp-discid'
p1052
NsS'tizen-dist2-password'
p1053
NsS'android-supports-gl-texture'
p1054
(lp1055
sS'ws8-ext-sdk-ref'
p1056
(lp1057
sS'iphone-extra-string'
p1058
(lp1059
sS'version-string'
p1060
NsS'iphone-icon-high-res-ios7'
p1061
NsS'ws8-certificate-end-date'
p1062
NsS'nacl-skip-zip'
p1063
NsS'win10-custom-manifest'
p1064
NsS'tizen-so'
p1065
(lp1066
sS'win10-logo-image44x44'
p1067
NsS'win10-custom-manifest-fill'
p1068
NsS'wp8-tile-fliptemplate-small-image'
p1069
NsS'win10-certificate-end-date'
p1070
NsS'playbook-authorid'
p1071
NsS'win10-publisher-id'
p1072
NsS'iphone-signing-identity'
p1073
NsS'roku-persist-quota'
p1074
NsS'nds-bannertitle-fr'
p1075
NsS'ws8-distribution-pfx'
p1076
NsS'ws8-publisher-display-name'
p1077
NsS'brew-icon-small'
p1078
NsS'psp-dlgpic2'
p1079
NsS'psp-dlgpic0'
p1080
NsS'win10-phone-product-id'
p1081
NsS'psp-pic0'
p1082
NsS'psp-pic1'
p1083
NsS'win32-pref-windowtitle'
p1084
NsS'psp-icon0'
p1085
NsS'psp-icon1'
p1086
NsS'ws81-identity-name'
p1087
NsS'win10-distribution-pfx'
p1088
NsS'winmobile-icon'
p1089
NsS'iphone-no-splash'
p1090
NsS'iphone-splash'
p1091
NsS'iphone-app-fonts'
p1092
NsS'wp8-ext-native-dll'
p1093
(lp1094
sS'wp81-splash-screen-image480x800'
p1095
NsS'ws81-distribution-cer'
p1096
NsS'win10-ext-sdk-manifest-part'
p1097
(lp1098
sS'uiq3-icon2'
p1099
NsS'uiq3-icon3'
p1100
NsS'uiq3-icon1'
p1101
NsS'uiq3-icon1-format'
p1102
NsS'ws8-logo-image50x50'
p1103
NsS'iphone-info-plist-override'
p1104
NsS'symbian-run-on-install'
p1105
NsS'wp81-description'
p1106
NsS'ws81-publisher-display-name'
p1107
NsS'android-version-name'
p1108
NsS'firefoxos-xulrunner'
p1109
NsS'symbian-soundrecordsupport'
p1110
NsS'iphone-backgroundmode-audio'
p1111
NsS'nds-bannertitle-sp'
p1112
NsS'win10-extra-pri'
p1113
(lp1114
sS'psp-producer'
p1115
NsS'iphone-apple-wwdr-cert'
p1116
NsS'android-icon-nonstandard'
p1117
NsS'win32-pref-processtitle'
p1118
NsS'android-icon-xhdpi'
p1119
NsS'nds-bannertitle-hn'
p1120
NsS'tizen-dist2-key'
p1121
NsS'brew-depends'
p1122
NsS'ws81-custom-manifest'
p1123
NsS'iphone-allow-launch-rotation'
p1124
NsS'brew-mif'
p1125
NsS'iphone-icon-ipad-search-ios7'
p1126
NsS'brew-icon-medium'
p1127
NsS'iphone-bundle-url-name'
p1128
NsS'wp8-tile-fliptemplate-large-front-image'
p1129
NsS'tizen-dist2-CA-root-path'
p1130
NsS'ws81-description'
p1131
NsS'uiq3-icon3-format'
p1132
NsS'win10-publisher-display-name'
p1133
NsS'ws81-logo-image30x30'
p1134
NsS'win10-ext-device-capabilities'
p1135
(lp1136
sS'win8-phone-extra-res'
p1137
(lp1138
sS'iphone-signing-host'
p1139
NsS'tizen-icon'
p1140
NsS'osx-info-plist'
p1141
NsS'symbian-icon1-format'
p1142
NsS'ws81-distribution-pfx'
p1143
NsS'win32-aux-dll'
p1144
(lp1145
sS'blackberry-authorid'
p1146
NsS'ws81-publisher-id'
p1147
NsS'win8-store-extra-res'
p1148
(lp1149
sS'wp8-description'
p1150
NsS'iphone-link-opts'
p1151
(lp1152
S'-Fc:/marmalade/7.10/platform_libs/iphone/amazon-ads-ios-sdk/third_party/Ads -framework AmazonAd'
p1153
aS'-weak_framework AdSupport -weak_framework CoreLocation -weak_framework SystemConfiguration'
p1154
aS'-weak_framework CoreTelephony -weak_framework MediaPlayer'
p1155
aS'-weak_framework EventKit -weak_framework EventKitUI'
p1156
asS'ws81-ext-sdk-ref'
p1157
(lp1158
sS'roku-splash-min-time'
p1159
NsS'wp8-tile-fliptemplate-medium-front-image'
p1160
NsS'iphone-disable-launch-images'
p1161
NsS'android-sdk-platform-version'
p1162
NsS'provider'
p1163
NsS'playbook-keystore'
p1164
NsS'tizen-appid'
p1165
NsS'wp8-extra-res'
p1166
(lp1167
sS'symbian-osexecsupport'
p1168
NsS'android-install-location'
p1169
NsS'nds-privatesavedatasize'
p1170
NsS'iphone-disable-testflight'
p1171
NsS'playbook-storepass'
p1172
NsS'android-icon-ldpi'
p1173
NsS'manufacturer'
p1174
NsS'itunes-artwork'
p1175
NsS'iphone-extra-sections'
p1176
NsS'ws81-product-name'
p1177
NsS'ws81-ext-native-dll'
p1178
(lp1179
sS'ws8-extra-pri'
p1180
(lp1181
sS'win32-icon'
p1182
NsS'ws8-logo-image30x30'
p1183
NsS'wp8-ext-managed-dll'
p1184
(lp1185
sS'iphone-splashscreen-landscape'
p1186
NsS'symbian-maxheapsize'
p1187
NsS'android-extra-packages'
p1188
(lp1189
sS'priv-sign-key'
p1190
NsS'networking'
p1191
NsS'android-icon'
p1192
NsS'iphone-icon-settings'
p1193
NsS'nacl-manifest'
p1194
NsS'wp81-phone-product-id'
p1195
NsS'firefoxos-icon-60X60'
p1196
NsS'iphone-distribution-cert'
p1197
NsS'android_extra_strings'
p1198
NsS'nds-bannertitle-en'
p1199
NsS'blackberry-permissions-record-audio'
p1200
NsS'android-so'
p1201
(lp1202
S'c:/marmalade/7.10/extensions/s3eamazonads/lib/android/libs3eAmazonAds.so'
p1203
asS'wp8-higher-mem'
p1204
NsS'wp8-ext-sdk-ref'
p1205
(lp1206
sS'wp8-fast-resume-mode'
p1207
NsS'roku-splash-screen-hd'
p1208
NsS'iphone-bundle-url-schemes'
p1209
NsS'roku-screensaver-private'
p1210
NsS'osx-extra-res'
p1211
(lp1212
sS'ws81-extra-res'
p1213
(lp1214
sS'playbook-icon'
p1215
NsS'uid'
p1216
NsS'pkguid-as-uid'
p1217
NsS'wp81-ext-native-dll'
p1218
(lp1219
sS'tizen-dist1-password'
p1220
NsS'roku-screensaver-title'
p1221
NsS'osx-minimum-osx-version'
p1222
NsS'symbian-cert'
p1223
NsS'iphone-icon'
p1224
NsS'ws81-ext-capabilities'
p1225
(lp1226
sS'ws8-distribution-cer'
p1227
NsS'playbook-access-shared'
p1228
NsS'iphone-icon-ipad-high-res-ios7'
p1229
NsS'iphone-link-libs'
p1230
(lp1231
sS'wp8-exclude-wvga'
p1232
NsS'assets'
p1233
NsS'wp8-tile-fliptemplate-large-back-image'
p1234
NsS'pub-sign-key'
p1235
NsS'nacl-legacy-ext'
p1236
NsS'android-extra-strings'
p1237
(lp1238
sS'tizen-author-CA-path'
p1239
Nssg387
g686
sbssS'platform'
p1240
S'S3E'
p1241
sg77
S'1.0'
p1242
sS'arcade_platform'
p1243
g4
sS'extensions'
p1244
(dp1245
sS'source_groups_tree'
p1246
(dp1247
S'(libpng)'
p1248
(dp1249
S'h'
p1250
(dp1251
S'c:/marmalade/7.10/modules/third_party/libpng/h/png.h'
p1252
(lp1253
I1
a(dp1254
asS'c:/marmalade/7.10/modules/third_party/libpng/h/pngconf.h'
p1255
(lp1256
I1
ag1254
assS'c:/marmalade/7.10/modules/third_party/libpng/libpng.mkf'
p1257
(lp1258
I1
a(dp1259
assS'(amazon-ads-android-sdk)'
p1260
(dp1261
S'c:/marmalade/7.10/platform_libs/android/amazon-ads-android-sdk/amazon-ads-android-sdk.mkf'
p1262
(lp1263
I1
a(dp1264
assS'(tiniconv)'
p1265
(dp1266
S'c:/marmalade/7.10/modules/third_party/tiniconv/source/tiniconv.h'
p1267
(lp1268
I1
a(dp1269
asS'c:/marmalade/7.10/modules/third_party/tiniconv/source/tiniconv_int.h'
p1270
(lp1271
I1
ag1269
asS'c:/marmalade/7.10/modules/third_party/tiniconv/tiniconv.mkf'
p1272
(lp1273
I1
a(dp1274
assS'(amazon-ads-ios-sdk)'
p1275
(dp1276
S'c:/marmalade/7.10/platform_libs/iphone/amazon-ads-ios-sdk/amazon-ads-ios-sdk.mkf'
p1277
(lp1278
I1
a(dp1279
assS'(SoundEngine)'
p1280
(dp1281
S'd:/marmalade/modules/soundengine/h/IwSoundInst.h'
p1282
(lp1283
I1
a(dp1284
asS'd:/marmalade/modules/soundengine/source/IwSoundPCM.cpp'
p1285
(lp1286
I1
ag1284
asS'd:/marmalade/modules/soundengine/h/IwSoundPCM.h'
p1287
(lp1288
I1
ag1284
asS'd:/marmalade/modules/soundengine/h/IwSoundSpec.h'
p1289
(lp1290
I1
ag1284
asS'd:/marmalade/modules/soundengine/h/IwResHandlerWAV.h'
p1291
(lp1292
I1
ag1284
asS'd:/marmalade/modules/soundengine/h/IwSoundManager.h'
p1293
(lp1294
I1
ag1284
asS'Docs'
p1295
(dp1296
S'd:/marmalade/modules/soundengine/docs/iwsound.config.txt'
p1297
(lp1298
I1
ag1284
assS'd:/marmalade/modules/soundengine/h/IwSound.h'
p1299
(lp1300
I1
ag1284
asS'd:/marmalade/modules/soundengine/source/IwSoundWAV.cpp'
p1301
(lp1302
I1
ag1284
asS'd:/marmalade/modules/soundengine/h/IwSoundParams.h'
p1303
(lp1304
I1
ag1284
asS'd:/marmalade/modules/soundengine/source/IwSoundADPCM.cpp'
p1305
(lp1306
I1
ag1284
asS'd:/marmalade/modules/soundengine/h/IwSoundADPCM.h'
p1307
(lp1308
I1
ag1284
asS'd:/marmalade/modules/soundengine/h/IwSoundWAV.h'
p1309
(lp1310
I1
ag1284
asS'd:/marmalade/modules/soundengine/source/IwResHandlerWAV.cpp'
p1311
(lp1312
I1
ag1284
asS'd:/marmalade/modules/soundengine/source/IwSoundInst.cpp'
p1313
(lp1314
I1
ag1284
asS'd:/marmalade/modules/soundengine/source/IwSoundData.cpp'
p1315
(lp1316
I1
ag1284
asS'd:/marmalade/modules/soundengine/source/IwSoundManager.cpp'
p1317
(lp1318
I1
ag1284
asS'd:/marmalade/modules/soundengine/h/IwSoundData.h'
p1319
(lp1320
I1
ag1284
asS'd:/marmalade/modules/soundengine/source/IwSoundParams.cpp'
p1321
(lp1322
I1
ag1284
asS'd:/marmalade/modules/soundengine/source/IwSoundGroup.cpp'
p1323
(lp1324
I1
ag1284
asS'd:/marmalade/modules/soundengine/soundengine.mkf'
p1325
(lp1326
I1
a(dp1327
asS'd:/marmalade/modules/soundengine/source/IwSoundSpec.cpp'
p1328
(lp1329
I1
ag1284
asS'd:/marmalade/modules/soundengine/h/IwSoundGroup.h'
p1330
(lp1331
I1
ag1284
assS'source'
p1332
(dp1333
S'd:/Marmalade/Stage1/source/input.h'
p1334
(lp1335
I1
a(dp1336
asS'd:/Marmalade/Stage1/source/scene.cpp'
p1337
(lp1338
I1
ag1336
asS'd:/Marmalade/Stage1/source/pauseMenu.h'
p1339
(lp1340
I1
ag1336
asS'd:/Marmalade/Stage1/source/Stage1.cpp'
p1341
(lp1342
I1
ag1336
asS'd:/Marmalade/Stage1/source/mainMenu.h'
p1343
(lp1344
I1
ag1336
asS'd:/Marmalade/Stage1/source/resources.cpp'
p1345
(lp1346
I1
ag1336
asS'd:/Marmalade/Stage1/source/audio.h'
p1347
(lp1348
I1
ag1336
asS'd:/Marmalade/Stage1/source/scene.h'
p1349
(lp1350
I1
ag1336
asS'd:/Marmalade/Stage1/source/pauseMenu.cpp'
p1351
(lp1352
I1
ag1336
asS'd:/Marmalade/Stage1/source/audio.cpp'
p1353
(lp1354
I1
ag1336
asS'd:/Marmalade/Stage1/source/resources.h'
p1355
(lp1356
I1
ag1336
asS'd:/Marmalade/Stage1/source/mainMenu.cpp'
p1357
(lp1358
I1
ag1336
asS'd:/Marmalade/Stage1/source/input.cpp'
p1359
(lp1360
I1
ag1336
assS'Extensions'
p1361
(dp1362
S's3eAmazonAds'
p1363
(dp1364
S'interface'
p1365
(dp1366
S'c:/marmalade/7.10/extensions/s3eamazonads/interface/s3eAmazonAds.defines.txt'
p1367
(lp1368
I1
a(dp1369
asS'c:/marmalade/7.10/extensions/s3eamazonads/interface/s3eAmazonAds_interface.cpp'
p1370
(lp1371
I1
ag1369
assS'c:/marmalade/7.10/extensions/s3eamazonads/s3eamazonads.mkf'
p1372
(lp1373
I1
a(dp1374
asS'c:/marmalade/7.10/extensions/s3eamazonads/h/s3eAmazonAds.h'
p1375
(lp1376
I1
ag1369
assS'PVRTexTool'
p1377
(dp1378
S'interface'
p1379
(dp1380
S'c:/marmalade/7.10/extensions/pvrtextool/interface/PVRTexTool_interface.cpp'
p1381
(lp1382
I1
a(dp1383
asS'c:/marmalade/7.10/extensions/pvrtextool/interface/PVRTexTool.defines.txt'
p1384
(lp1385
I1
ag1383
assS'c:/marmalade/7.10/extensions/pvrtextool/h/PVRTexTool.h'
p1386
(lp1387
I1
ag1383
asS'c:/marmalade/7.10/extensions/pvrtextool/pvrtextool.mkf'
p1388
(lp1389
I1
a(dp1390
asssS'(s3e-default)'
p1391
(dp1392
S'c:/marmalade/7.10/s3e/s3e-default.mkf'
p1393
(lp1394
I1
a(dp1395
assS"'Marmalade Studio'"
p1396
(dp1397
S'iw2dscenegraph'
p1398
(dp1399
S'c:/marmalade/7.10/modules/iw2dscenegraph/source/Iw2DSceneGraph.cpp'
p1400
(lp1401
I1
a(dp1402
asS'c:/marmalade/7.10/modules/iw2dscenegraph/iw2dscenegraph.mkf'
p1403
(lp1404
I1
a(dp1405
asS'c:/marmalade/7.10/modules/iw2dscenegraph/h/Iw2DSceneGraph.h'
p1406
(lp1407
I1
ag1402
asS'c:/marmalade/7.10/modules/iw2dscenegraph/docs/iw2dscenegraph.defines.txt'
p1408
(lp1409
I1
ag1402
assS'iwgl'
p1410
(dp1411
S'c:/marmalade/7.10/modules/iwgl/iwgl.mkf'
p1412
(lp1413
I1
a(dp1414
asS'c:/marmalade/7.10/modules/iwgl/h/IwGL.h'
p1415
(lp1416
I1
a(dp1417
asS'c:/marmalade/7.10/modules/iwgl/docs/iwgl.config.txt'
p1418
(lp1419
I1
ag1417
asS'c:/marmalade/7.10/modules/iwgl/h/IwGLExt.h'
p1420
(lp1421
I1
ag1417
assS'iw2d'
p1422
(dp1423
S'c:/marmalade/7.10/modules/iw2d/iw2d.mkf'
p1424
(lp1425
I1
a(dp1426
asS'c:/marmalade/7.10/modules/iw2d/docs/iw2d_public.defines.txt'
p1427
(lp1428
I1
a(dp1429
asS'c:/marmalade/7.10/modules/iw2d/h/Iw2D.h'
p1430
(lp1431
I1
ag1429
asS'c:/marmalade/7.10/modules/iw2d/docs/iw2d.config.txt'
p1432
(lp1433
I1
ag1429
assS'iwgxfont'
p1434
(dp1435
S'c:/marmalade/7.10/modules/iwgxfont/h/IwGxFont.h'
p1436
(lp1437
I1
a(dp1438
asS'c:/marmalade/7.10/modules/iwgxfont/h/IwGxFontPreparedData.h'
p1439
(lp1440
I1
ag1438
asS'c:/marmalade/7.10/modules/iwgxfont/iwgxfont.mkf'
p1441
(lp1442
I1
a(dp1443
asS'c:/marmalade/7.10/modules/iwgxfont/docs/iwgxfont.config.txt'
p1444
(lp1445
I1
ag1438
asS'c:/marmalade/7.10/modules/iwgxfont/h/IwGxFontState.h'
p1446
(lp1447
I1
ag1438
asS'c:/marmalade/7.10/modules/iwgxfont/docs/iwgxfont_public.defines.txt'
p1448
(lp1449
I1
ag1438
asS'c:/marmalade/7.10/modules/iwgxfont/h/IwGxFontContainer.h'
p1450
(lp1451
I1
ag1438
asS'c:/marmalade/7.10/modules/iwgxfont/h/IwGxFontGlyph.h'
p1452
(lp1453
I1
ag1438
asS'c:/marmalade/7.10/modules/iwgxfont/h/IwGxFontTypes.h'
p1454
(lp1455
I1
ag1438
assS'iwgeom'
p1456
(dp1457
S'c:/marmalade/7.10/modules/iwgeom/h/IwGeomQuat.h'
p1458
(lp1459
I1
a(dp1460
asS'c:/marmalade/7.10/modules/iwgeom/h/IwGeomMat2D.h.tpl'
p1461
(lp1462
I1
ag1460
asS'c:/marmalade/7.10/modules/iwgeom/h/IwGeomIntersect.h'
p1463
(lp1464
I1
ag1460
asS'c:/marmalade/7.10/modules/iwgeom/h/IwGeomQuat.h.tpl'
p1465
(lp1466
I1
ag1460
asS'c:/marmalade/7.10/modules/iwgeom/h/IwGeomVec.h.tpl'
p1467
(lp1468
I1
ag1460
asS'c:/marmalade/7.10/modules/iwgeom/docs/iwgeom.config.txt'
p1469
(lp1470
I1
ag1460
asS'c:/marmalade/7.10/modules/iwgeom/h/IwGeomFBBox.h'
p1471
(lp1472
I1
ag1460
asS'c:/marmalade/7.10/modules/iwgeom/iwgeom.mkf'
p1473
(lp1474
I1
a(dp1475
asS'c:/marmalade/7.10/modules/iwgeom/h/IwGeomFSphere.h'
p1476
(lp1477
I1
ag1460
asS'c:/marmalade/7.10/modules/iwgeom/h/IwGeomSVec4.h'
p1478
(lp1479
I1
ag1460
asS'c:/marmalade/7.10/modules/iwgeom/h/IwGeomPlane.h'
p1480
(lp1481
I1
ag1460
asS'c:/marmalade/7.10/modules/iwgeom/h/IwGeomSVec3.h'
p1482
(lp1483
I1
ag1460
asS'c:/marmalade/7.10/modules/iwgeom/h/IwGeomVec4.h'
p1484
(lp1485
I1
ag1460
asS'c:/marmalade/7.10/modules/iwgeom/h/IwGeom.h'
p1486
(lp1487
I1
ag1460
asS'c:/marmalade/7.10/modules/iwgeom/h/IwGeomVec3.h'
p1488
(lp1489
I1
ag1460
asS'c:/marmalade/7.10/modules/iwgeom/h/IwGeomMat.h.tpl'
p1490
(lp1491
I1
ag1460
asS'c:/marmalade/7.10/modules/iwgeom/h/IwGeomFQuat.h'
p1492
(lp1493
I1
ag1460
asS'c:/marmalade/7.10/modules/iwgeom/h/IwGeomSphere.h'
p1494
(lp1495
I1
ag1460
asS'c:/marmalade/7.10/modules/iwgeom/h/IwGeomLegacy.h'
p1496
(lp1497
I1
ag1460
asS'c:/marmalade/7.10/modules/iwgeom/h/IwGeomVec2.h'
p1498
(lp1499
I1
ag1460
asS'c:/marmalade/7.10/modules/iwgeom/h/IwGeomFIntersect.h'
p1500
(lp1501
I1
ag1460
asS'c:/marmalade/7.10/modules/iwgeom/h/IwGeomFPlane.h'
p1502
(lp1503
I1
ag1460
asS'c:/marmalade/7.10/modules/iwgeom/h/IwGeomSQuat.h'
p1504
(lp1505
I1
ag1460
asS'c:/marmalade/7.10/modules/iwgeom/h/IwGeomSVec2.h'
p1506
(lp1507
I1
ag1460
asS'c:/marmalade/7.10/modules/iwgeom/h/IwGeomBBox.h'
p1508
(lp1509
I1
ag1460
asS'c:/marmalade/7.10/modules/iwgeom/h/IwGeomFMat2D.h'
p1510
(lp1511
I1
ag1460
asS'c:/marmalade/7.10/modules/iwgeom/h/IwGeomVec.h'
p1512
(lp1513
I1
ag1460
asS'c:/marmalade/7.10/modules/iwgeom/h/IwGeomMenu.h'
p1514
(lp1515
I1
ag1460
asS'c:/marmalade/7.10/modules/iwgeom/h/IwGeomFVec2.h'
p1516
(lp1517
I1
ag1460
asS'c:/marmalade/7.10/modules/iwgeom/h/IwGeomFMat.h'
p1518
(lp1519
I1
ag1460
asS'c:/marmalade/7.10/modules/iwgeom/h/IwGeomCore.h'
p1520
(lp1521
I1
ag1460
asS'c:/marmalade/7.10/modules/iwgeom/h/IwGeomFVec3.h'
p1522
(lp1523
I1
ag1460
asS'c:/marmalade/7.10/modules/iwgeom/h/IwGeomMat2D.h'
p1524
(lp1525
I1
ag1460
asS'c:/marmalade/7.10/modules/iwgeom/h/IwGeomMat.h'
p1526
(lp1527
I1
ag1460
asS'c:/marmalade/7.10/modules/iwgeom/h/IwGeomFVec4.h'
p1528
(lp1529
I1
ag1460
asS'c:/marmalade/7.10/modules/iwgeom/h/IwGeomSqrt.h'
p1530
(lp1531
I1
ag1460
assS'iwresmanager'
p1532
(dp1533
S'c:/marmalade/7.10/modules/iwresmanager/h/IwResHandler.h'
p1534
(lp1535
I1
a(dp1536
asS'c:/marmalade/7.10/modules/iwresmanager/docs/iwresmanager.config.txt'
p1537
(lp1538
I1
ag1536
asS'c:/marmalade/7.10/modules/iwresmanager/h/IwResHandlerImage.h'
p1539
(lp1540
I1
ag1536
asS'c:/marmalade/7.10/modules/iwresmanager/h/IwResHandlerITX.h'
p1541
(lp1542
I1
ag1536
asS'c:/marmalade/7.10/modules/iwresmanager/h/IwResManager.h'
p1543
(lp1544
I1
ag1536
asS'c:/marmalade/7.10/modules/iwresmanager/h/IwResSerialise.h'
p1545
(lp1546
I1
ag1536
asS'c:/marmalade/7.10/modules/iwresmanager/iwresmanager.mkf'
p1547
(lp1548
I1
a(dp1549
asS'c:/marmalade/7.10/modules/iwresmanager/h/IwResManagerClass.h'
p1550
(lp1551
I1
ag1536
asS'c:/marmalade/7.10/modules/iwresmanager/h/IwResGroup.h'
p1552
(lp1553
I1
ag1536
asS'c:/marmalade/7.10/modules/iwresmanager/h/IwResHandlerGROUP.h'
p1554
(lp1555
I1
ag1536
assS'iwgx'
p1556
(dp1557
S'c:/marmalade/7.10/modules/iwgx/h/IwGxPrint.h'
p1558
(lp1559
I1
a(dp1560
asS'c:/marmalade/7.10/modules/iwgx/h/IwGxError.h'
p1561
(lp1562
I1
ag1560
asS'c:/marmalade/7.10/modules/iwgx/h/IwGxSurface.h'
p1563
(lp1564
I1
ag1560
asS'c:/marmalade/7.10/modules/iwgx/h/IwGxTransformSW.h'
p1565
(lp1566
I1
ag1560
asS'c:/marmalade/7.10/modules/iwgx/h/IwGxDebug.h'
p1567
(lp1568
I1
ag1560
asS'c:/marmalade/7.10/modules/iwgx/h/IwClip.h'
p1569
(lp1570
I1
ag1560
asS'c:/marmalade/7.10/modules/iwgx/docs/iwgx.config.txt'
p1571
(lp1572
I1
ag1560
asS'c:/marmalade/7.10/modules/iwgx/h/IwColour.h'
p1573
(lp1574
I1
ag1560
asS'c:/marmalade/7.10/modules/iwgx/h/IwGxTypes.h'
p1575
(lp1576
I1
ag1560
asS'c:/marmalade/7.10/modules/iwgx/h/IwGx.h'
p1577
(lp1578
I1
ag1560
asS'c:/marmalade/7.10/modules/iwgx/h/IwDebugPrim.h'
p1579
(lp1580
I1
ag1560
asS'c:/marmalade/7.10/modules/iwgx/h/IwGxMetrics.h'
p1581
(lp1582
I1
ag1560
asS'c:/marmalade/7.10/modules/iwgx/iwgx.mkf'
p1583
(lp1584
I1
a(dp1585
asS'c:/marmalade/7.10/modules/iwgx/h/IwClip.inl'
p1586
(lp1587
I1
ag1560
asS'c:/marmalade/7.10/modules/iwgx/h/IwMatAnim.h'
p1588
(lp1589
I1
ag1560
asS'c:/marmalade/7.10/modules/iwgx/h/IwGxState.h'
p1590
(lp1591
I1
ag1560
asS'c:/marmalade/7.10/modules/iwgx/h/IwTexture.h'
p1592
(lp1593
I1
ag1560
asS'c:/marmalade/7.10/modules/iwgx/h/IwGxStream.h'
p1594
(lp1595
I1
ag1560
asS'c:/marmalade/7.10/modules/iwgx/h/IwTPage.h'
p1596
(lp1597
I1
ag1560
asS'c:/marmalade/7.10/modules/iwgx/h/IwResHandlerMTL.h'
p1598
(lp1599
I1
ag1560
asS'c:/marmalade/7.10/modules/iwgx/h/IwMaterial.h'
p1600
(lp1601
I1
ag1560
asS'c:/marmalade/7.10/modules/iwgx/h/IwGxFuncTable.h'
p1602
(lp1603
I1
ag1560
asS'c:/marmalade/7.10/modules/iwgx/h/IwFColour.h'
p1604
(lp1605
I1
ag1560
asS'c:/marmalade/7.10/modules/iwgx/docs/iwgx_public.defines.txt'
p1606
(lp1607
I1
ag1560
asS'c:/marmalade/7.10/modules/iwgx/h/IwGxShaderTechnique.h'
p1608
(lp1609
I1
ag1560
assS'iw2dscenegraphcore'
p1610
(dp1611
S'c:/marmalade/7.10/modules/iw2dscenegraphcore/iw2dscenegraphcore.mkf'
p1612
(lp1613
I1
a(dp1614
asS'c:/marmalade/7.10/modules/iw2dscenegraphcore/h/Iw2DSceneGraphCore.h'
p1615
(lp1616
I1
a(dp1617
asS'c:/marmalade/7.10/modules/iw2dscenegraphcore/source/Iw2DSceneGraphCore.cpp'
p1618
(lp1619
I1
ag1617
assS'iwutil'
p1620
(dp1621
S'c:/marmalade/7.10/modules/iwutil/h/IwDivTable.h'
p1622
(lp1623
I1
a(dp1624
asS'c:/marmalade/7.10/modules/iwutil/h/IwPath.h'
p1625
(lp1626
I1
ag1624
asS'c:/marmalade/7.10/modules/iwutil/h/IwFile.h'
p1627
(lp1628
I1
ag1624
asS'c:/marmalade/7.10/modules/iwutil/h/IwImage.h'
p1629
(lp1630
I1
ag1624
asS'c:/marmalade/7.10/modules/iwutil/h/IwMenu.h'
p1631
(lp1632
I1
ag1624
asS'c:/marmalade/7.10/modules/iwutil/h/IwArray.h'
p1633
(lp1634
I1
ag1624
asS'c:/marmalade/7.10/modules/iwutil/h/IwMemBucketHelpers.h'
p1635
(lp1636
I1
ag1624
asS'c:/marmalade/7.10/modules/iwutil/h/IwClassFactory.h'
p1637
(lp1638
I1
ag1624
asS'c:/marmalade/7.10/modules/iwutil/iwutil.mkf'
p1639
(lp1640
I1
a(dp1641
asS'c:/marmalade/7.10/modules/iwutil/h/IwDivide.h'
p1642
(lp1643
I1
ag1624
asS'c:/marmalade/7.10/modules/iwutil/h/IwMemory.h'
p1644
(lp1645
I1
ag1624
asS'c:/marmalade/7.10/modules/iwutil/h/IwManagedList.h'
p1646
(lp1647
I1
ag1624
asS'c:/marmalade/7.10/modules/iwutil/h/IwUtil.h'
p1648
(lp1649
I1
ag1624
asS'c:/marmalade/7.10/modules/iwutil/h/IwFibre.h'
p1650
(lp1651
I1
ag1624
asS'c:/marmalade/7.10/modules/iwutil/h/IwBuffer.h'
p1652
(lp1653
I1
ag1624
asS'c:/marmalade/7.10/modules/iwutil/h/IwHashString.h'
p1654
(lp1655
I1
ag1624
asS'c:/marmalade/7.10/modules/iwutil/h/IwSingleton.h'
p1656
(lp1657
I1
ag1624
asS'c:/marmalade/7.10/modules/iwutil/h/IwSerialise.h'
p1658
(lp1659
I1
ag1624
asS'c:/marmalade/7.10/modules/iwutil/h/IwMath.h'
p1660
(lp1661
I1
ag1624
asS'c:/marmalade/7.10/modules/iwutil/h/IwTypes.h'
p1662
(lp1663
I1
ag1624
asS'c:/marmalade/7.10/modules/iwutil/h/IwTextParser.h'
p1664
(lp1665
I1
ag1624
asS'c:/marmalade/7.10/modules/iwutil/h/IwOptimiseSpeed.h'
p1666
(lp1667
I1
ag1624
asS'c:/marmalade/7.10/modules/iwutil/h/IwKeymap.h'
p1668
(lp1669
I1
ag1624
asS'c:/marmalade/7.10/modules/iwutil/h/IwCore.h'
p1670
(lp1671
I1
ag1624
asS'c:/marmalade/7.10/modules/iwutil/h/IwAllocator.h'
p1672
(lp1673
I1
ag1624
asS'c:/marmalade/7.10/modules/iwutil/h/IwChar.h'
p1674
(lp1675
I1
ag1624
asS'c:/marmalade/7.10/modules/iwutil/h/IwOptimiseThumb.h'
p1676
(lp1677
I1
ag1624
asS'c:/marmalade/7.10/modules/iwutil/h/IwAutoFile.h'
p1678
(lp1679
I1
ag1624
asS'c:/marmalade/7.10/modules/iwutil/h/IwManaged.h'
p1680
(lp1681
I1
ag1624
asS'c:/marmalade/7.10/modules/iwutil/h/IwOptimiseARM.h'
p1682
(lp1683
I1
ag1624
asS'c:/marmalade/7.10/modules/iwutil/h/IwTextParserITX.h'
p1684
(lp1685
I1
ag1624
asS'c:/marmalade/7.10/modules/iwutil/h/IwList.h'
p1686
(lp1687
I1
ag1624
asS'c:/marmalade/7.10/modules/iwutil/h/IwUncopyable.h'
p1688
(lp1689
I1
ag1624
asS'c:/marmalade/7.10/modules/iwutil/h/IwRandom.h'
p1690
(lp1691
I1
ag1624
asS'c:/marmalade/7.10/modules/iwutil/h/IwProfileMenu.h'
p1692
(lp1693
I1
ag1624
asS'c:/marmalade/7.10/modules/iwutil/h/IwDebug.h'
p1694
(lp1695
I1
ag1624
asS'c:/marmalade/7.10/modules/iwutil/h/IwTextParseable.h'
p1696
(lp1697
I1
ag1624
asS'c:/marmalade/7.10/modules/iwutil/h/IwResource.h'
p1698
(lp1699
I1
ag1624
asS'c:/marmalade/7.10/modules/iwutil/h/IwOptimiseSize.h'
p1700
(lp1701
I1
ag1624
asS'c:/marmalade/7.10/modules/iwutil/h/IwVariableBitField.h'
p1702
(lp1703
I1
ag1624
asS'c:/marmalade/7.10/modules/iwutil/h/IwCopyingPtr.h'
p1704
(lp1705
I1
ag1624
asS'c:/marmalade/7.10/modules/iwutil/docs/iwutil.config.txt'
p1706
(lp1707
I1
ag1624
asS'c:/marmalade/7.10/modules/iwutil/h/IwUtilInitTerm.h'
p1708
(lp1709
I1
ag1624
asS'c:/marmalade/7.10/modules/iwutil/h/IwEvent.h'
p1710
(lp1711
I1
ag1624
asS'c:/marmalade/7.10/modules/iwutil/h/IwRuntime.h'
p1712
(lp1713
I1
ag1624
asS'c:/marmalade/7.10/modules/iwutil/h/IwUTF8.h'
p1714
(lp1715
I1
ag1624
asS'c:/marmalade/7.10/modules/iwutil/h/IwImageHelper.h'
p1716
(lp1717
I1
ag1624
asS'c:/marmalade/7.10/modules/iwutil/h/IwMemManagerDL.h'
p1718
(lp1719
I1
ag1624
asS'c:/marmalade/7.10/modules/iwutil/h/IwMemBucket.h'
p1720
(lp1721
I1
ag1624
asS'c:/marmalade/7.10/modules/iwutil/h/IwString.h'
p1722
(lp1723
I1
ag1624
asssS'(zlib)'
p1724
(dp1725
g1250
(dp1726
S'c:/marmalade/7.10/modules/third_party/zlib/h/zconf.h'
p1727
(lp1728
I1
a(dp1729
asS'c:/marmalade/7.10/modules/third_party/zlib/h/zlib.h'
p1730
(lp1731
I1
ag1729
assS'c:/marmalade/7.10/modules/third_party/zlib/zlib.mkf'
p1732
(lp1733
I1
a(dp1734
assS'(libjpeg)'
p1735
(dp1736
g1250
(dp1737
S'c:/marmalade/7.10/modules/third_party/libjpeg/h/jpeglib.h'
p1738
(lp1739
I1
a(dp1740
asS'c:/marmalade/7.10/modules/third_party/libjpeg/h/jdhuff.h'
p1741
(lp1742
I1
ag1740
asS'c:/marmalade/7.10/modules/third_party/libjpeg/h/transupp.h'
p1743
(lp1744
I1
ag1740
asS'c:/marmalade/7.10/modules/third_party/libjpeg/h/cdjpeg.h'
p1745
(lp1746
I1
ag1740
asS'c:/marmalade/7.10/modules/third_party/libjpeg/h/jerror.h'
p1747
(lp1748
I1
ag1740
asS'c:/marmalade/7.10/modules/third_party/libjpeg/h/jconfig.h'
p1749
(lp1750
I1
ag1740
asS'c:/marmalade/7.10/modules/third_party/libjpeg/h/jmorecfg.h'
p1751
(lp1752
I1
ag1740
asS'c:/marmalade/7.10/modules/third_party/libjpeg/h/jdct.h'
p1753
(lp1754
I1
ag1740
asS'c:/marmalade/7.10/modules/third_party/libjpeg/h/cderror.h'
p1755
(lp1756
I1
ag1740
asS'c:/marmalade/7.10/modules/third_party/libjpeg/h/jmemsys.h'
p1757
(lp1758
I1
ag1740
asS'c:/marmalade/7.10/modules/third_party/libjpeg/h/jchuff.h'
p1759
(lp1760
I1
ag1740
asS'c:/marmalade/7.10/modules/third_party/libjpeg/h/jpegint.h'
p1761
(lp1762
I1
ag1740
asS'c:/marmalade/7.10/modules/third_party/libjpeg/h/jinclude.h'
p1763
(lp1764
I1
ag1740
asS'c:/marmalade/7.10/modules/third_party/libjpeg/h/jversion.h'
p1765
(lp1766
I1
ag1740
assS'c:/marmalade/7.10/modules/third_party/libjpeg/libjpeg.mkf'
p1767
(lp1768
I1
a(dp1769
asssS'files'
p1770
(dp1771
S'IwGxFontPreparedData.h'
p1772
g361
(cmkb_main
File
p1773
g363
Ntp1774
Rp1775
(dp1776
S'flags'
p1777
g1438
sS'group'
p1778
(lp1779
S"'Marmalade Studio'"
p1780
ag1434
asg387
g1439
sbsS'iterator'
p1781
g361
(g1773
g363
Ntp1782
Rp1783
(dp1784
g1777
(dp1785
sg1778
(lp1786
S"'Marmalade System (S3E)'"
p1787
aS'stdc headers'
p1788
aS'c++'
p1789
asg387
S'c:/marmalade/7.10/s3e/h/std/c++/iterator'
p1790
sbsS'IwGL.h'
p1791
g361
(g1773
g363
Ntp1792
Rp1793
(dp1794
g1777
g1417
sg1778
(lp1795
S"'Marmalade Studio'"
p1796
ag1410
asg387
g1415
sbsS's3e.h'
p1797
g361
(g1773
g363
Ntp1798
Rp1799
(dp1800
g1777
g1785
sg1778
(lp1801
g1787
asg387
S'c:/marmalade/7.10/s3e/h/s3e.h'
p1802
sbsS'errno.h'
p1803
g361
(g1773
g363
Ntp1804
Rp1805
(dp1806
g1777
g1785
sg1778
(lp1807
g1787
aS'stdc headers'
p1808
asg387
S'c:/marmalade/7.10/s3e/h/std/errno.h'
p1809
sbsS'IwSingleton.h'
p1810
g361
(g1773
g363
Ntp1811
Rp1812
(dp1813
g1777
g1624
sg1778
(lp1814
S"'Marmalade Studio'"
p1815
ag1620
asg387
g1656
sbsS'dlfcn.h'
p1816
g361
(g1773
g363
Ntp1817
Rp1818
(dp1819
g1777
g1785
sg1778
g1807
sg387
S'c:/marmalade/7.10/s3e/h/std/dlfcn.h'
p1820
sbsS'IwSoundWAV.cpp'
p1821
g361
(g1773
g363
Ntp1822
Rp1823
(dp1824
g1777
g1284
sg1778
(lp1825
g1280
asg387
g1301
sbsS'sched.h'
p1826
g361
(g1773
g363
Ntp1827
Rp1828
(dp1829
g1777
g1785
sg1778
g1807
sg387
S'c:/marmalade/7.10/s3e/h/std/sched.h'
p1830
sbsS'IwSoundPCM.h'
p1831
g361
(g1773
g363
Ntp1832
Rp1833
(dp1834
g1777
g1284
sg1778
g1825
sg387
g1287
sbsS'IwGeomFMat2D.h'
p1835
g361
(g1773
g363
Ntp1836
Rp1837
(dp1838
g1777
g1460
sg1778
(lp1839
S"'Marmalade Studio'"
p1840
ag1456
asg387
g1510
sbsS'cassert'
p1841
g361
(g1773
g363
Ntp1842
Rp1843
(dp1844
g1777
g1785
sg1778
g1786
sg387
S'c:/marmalade/7.10/s3e/h/std/c++/cassert'
p1845
sbsS'grp.h'
p1846
g361
(g1773
g363
Ntp1847
Rp1848
(dp1849
g1777
g1785
sg1778
g1807
sg387
S'c:/marmalade/7.10/s3e/h/std/grp.h'
p1850
sbsS'list'
p1851
g361
(g1773
g363
Ntp1852
Rp1853
(dp1854
g1777
g1785
sg1778
g1786
sg387
S'c:/marmalade/7.10/s3e/h/std/c++/list'
p1855
sbsS'IwSoundSpec.cpp'
p1856
g361
(g1773
g363
Ntp1857
Rp1858
(dp1859
g1777
g1284
sg1778
g1825
sg387
g1328
sbsS'IwGeomMat.h.tpl'
p1860
g361
(g1773
g363
Ntp1861
Rp1862
(dp1863
g1777
g1460
sg1778
g1839
sg387
g1490
sbsS'istream'
p1864
g361
(g1773
g363
Ntp1865
Rp1866
(dp1867
g1777
g1785
sg1778
g1786
sg387
S'c:/marmalade/7.10/s3e/h/std/c++/istream'
p1868
sbsS'jpeglib.h'
p1869
g361
(g1773
g363
Ntp1870
Rp1871
(dp1872
g1777
g1740
sg1778
(lp1873
g1735
ag1250
asg387
g1738
sbsS'iw2d_public.defines.txt'
p1874
g361
(g1773
g363
Ntp1875
Rp1876
(dp1877
g1777
g1429
sg1778
(lp1878
S"'Marmalade Studio'"
p1879
ag1422
asg387
g1427
sbsS'iostream.h'
p1880
g361
(g1773
g363
Ntp1881
Rp1882
(dp1883
g1777
g1785
sg1778
g1786
sg387
S'c:/marmalade/7.10/s3e/h/std/c++/iostream.h'
p1884
sbsS'IwSoundADPCM.h'
p1885
g361
(g1773
g363
Ntp1886
Rp1887
(dp1888
g1777
g1284
sg1778
g1825
sg387
g1307
sbsS'string'
p1889
g361
(g1773
g363
Ntp1890
Rp1891
(dp1892
g1777
g1785
sg1778
g1786
sg387
S'c:/marmalade/7.10/s3e/h/std/c++/string'
p1893
sbsS'IwMemory.h'
p1894
g361
(g1773
g363
Ntp1895
Rp1896
(dp1897
g1777
g1624
sg1778
g1814
sg387
g1644
sbsS'IwGeomPlane.h'
p1898
g361
(g1773
g363
Ntp1899
Rp1900
(dp1901
g1777
g1460
sg1778
g1839
sg387
g1480
sbsS'iw2d.config.txt'
p1902
g361
(g1773
g363
Ntp1903
Rp1904
(dp1905
g1777
g1429
sg1778
g1878
sg387
g1432
sbsS'iomanip'
p1906
g361
(g1773
g363
Ntp1907
Rp1908
(dp1909
g1777
g1785
sg1778
g1786
sg387
S'c:/marmalade/7.10/s3e/h/std/c++/iomanip'
p1910
sbsS'iwgeom.mkf'
p1911
g361
(g1773
g363
Ntp1912
Rp1913
(dp1914
g1777
g1475
sg1778
g1839
sg387
g1473
sbsS'IwGxError.h'
p1915
g361
(g1773
g363
Ntp1916
Rp1917
(dp1918
g1777
g1560
sg1778
(lp1919
S"'Marmalade Studio'"
p1920
ag1556
asg387
g1561
sbsS'IwGeom.h'
p1921
g361
(g1773
g363
Ntp1922
Rp1923
(dp1924
g1777
g1460
sg1778
g1839
sg387
g1486
sbsS'scene.cpp'
p1925
g361
(g1773
g363
Ntp1926
Rp1927
(dp1928
g1777
g1336
sg1778
(lp1929
g1332
asg387
g1337
sbsS'IwGeomVec4.h'
p1930
g361
(g1773
g363
Ntp1931
Rp1932
(dp1933
g1777
g1460
sg1778
g1839
sg387
g1484
sbsS'dir.h'
p1934
g361
(g1773
g363
Ntp1935
Rp1936
(dp1937
g1777
g1785
sg1778
(lp1938
g1787
aS'stdc headers'
p1939
aS'sys'
p1940
asg387
S'c:/marmalade/7.10/s3e/h/std/sys/dir.h'
p1941
sbsS'locale.h'
p1942
g361
(g1773
g363
Ntp1943
Rp1944
(dp1945
g1777
g1785
sg1778
g1807
sg387
S'c:/marmalade/7.10/s3e/h/std/locale.h'
p1946
sbsS'vector'
p1947
g361
(g1773
g363
Ntp1948
Rp1949
(dp1950
g1777
g1785
sg1778
g1786
sg387
S'c:/marmalade/7.10/s3e/h/std/c++/vector'
p1951
sbsS'IwManaged.h'
p1952
g361
(g1773
g363
Ntp1953
Rp1954
(dp1955
g1777
g1624
sg1778
g1814
sg387
g1680
sbsS's3eCompass.h'
p1956
g361
(g1773
g363
Ntp1957
Rp1958
(dp1959
g1777
g1785
sg1778
g1801
sg387
S'c:/marmalade/7.10/s3e/h/s3eCompass.h'
p1960
sbsS'cderror.h'
p1961
g361
(g1773
g363
Ntp1962
Rp1963
(dp1964
g1777
g1740
sg1778
g1873
sg387
g1755
sbsS'climits'
p1965
g361
(g1773
g363
Ntp1966
Rp1967
(dp1968
g1777
g1785
sg1778
g1786
sg387
S'c:/marmalade/7.10/s3e/h/std/c++/climits'
p1969
sbsS'ipc.h'
p1970
g361
(g1773
g363
Ntp1971
Rp1972
(dp1973
g1777
g1785
sg1778
g1938
sg387
S'c:/marmalade/7.10/s3e/h/std/sys/ipc.h'
p1974
sbsS'jversion.h'
p1975
g361
(g1773
g363
Ntp1976
Rp1977
(dp1978
g1777
g1740
sg1778
g1873
sg387
g1765
sbsS'fnmatch.h'
p1979
g361
(g1773
g363
Ntp1980
Rp1981
(dp1982
g1777
g1785
sg1778
g1807
sg387
S'c:/marmalade/7.10/s3e/h/std/fnmatch.h'
p1983
sbsS'IwGxState.h'
p1984
g361
(g1773
g363
Ntp1985
Rp1986
(dp1987
g1777
g1560
sg1778
g1919
sg387
g1590
sbsS'rope'
p1988
g361
(g1773
g363
Ntp1989
Rp1990
(dp1991
g1777
g1785
sg1778
g1786
sg387
S'c:/marmalade/7.10/s3e/h/std/c++/rope'
p1992
sbsS's3eAudio.h'
p1993
g361
(g1773
g363
Ntp1994
Rp1995
(dp1996
g1777
g1785
sg1778
g1801
sg387
S'c:/marmalade/7.10/s3e/h/s3eAudio.h'
p1997
sbsS's3eSurface.h'
p1998
g361
(g1773
g363
Ntp1999
Rp2000
(dp2001
g1777
g1785
sg1778
g1801
sg387
S'c:/marmalade/7.10/s3e/h/s3eSurface.h'
p2002
sbsS'new'
p2003
g361
(g1773
g363
Ntp2004
Rp2005
(dp2006
g1777
g1785
sg1778
g1786
sg387
S'c:/marmalade/7.10/s3e/h/std/c++/new'
p2007
sbsS's3eWindow.h'
p2008
g361
(g1773
g363
Ntp2009
Rp2010
(dp2011
g1777
g1785
sg1778
(lp2012
g1787
aS'Extensions'
p2013
asg387
S'c:/marmalade/7.10/s3e/h/ext/s3eWindow.h'
p2014
sbsS'IwBuffer.h'
p2015
g361
(g1773
g363
Ntp2016
Rp2017
(dp2018
g1777
g1624
sg1778
g1814
sg387
g1652
sbsS'stdio_streambuf'
p2019
g361
(g1773
g363
Ntp2020
Rp2021
(dp2022
g1777
g1785
sg1778
g1786
sg387
S'c:/marmalade/7.10/s3e/h/std/c++/stdio_streambuf'
p2023
sbsS'IwGeomQuat.h.tpl'
p2024
g361
(g1773
g363
Ntp2025
Rp2026
(dp2027
g1777
g1460
sg1778
g1839
sg387
g1465
sbsS's3eOSExec.h'
p2028
g361
(g1773
g363
Ntp2029
Rp2030
(dp2031
g1777
g1785
sg1778
g2012
sg387
S'c:/marmalade/7.10/s3e/h/ext/s3eOSExec.h'
p2032
sbsS'IwGxTransformSW.h'
p2033
g361
(g1773
g363
Ntp2034
Rp2035
(dp2036
g1777
g1560
sg1778
g1919
sg387
g1565
sbsS'IwGxMetrics.h'
p2037
g361
(g1773
g363
Ntp2038
Rp2039
(dp2040
g1777
g1560
sg1778
g1919
sg387
g1581
sbsS'iwgxfont.config.txt'
p2041
g361
(g1773
g363
Ntp2042
Rp2043
(dp2044
g1777
g1438
sg1778
g1779
sg387
g1444
sbsS'gl2platform.h'
p2045
g361
(g1773
g363
Ntp2046
Rp2047
(dp2048
g1777
g1785
sg1778
(lp2049
g1787
aS'GL'
p2050
aS'GLES 2.0'
p2051
asg387
S'c:/marmalade/7.10/s3e/h/GLES2/gl2platform.h'
p2052
sbsS'IwResManagerClass.h'
p2053
g361
(g1773
g363
Ntp2054
Rp2055
(dp2056
g1777
g1536
sg1778
(lp2057
g1396
ag1532
asg387
g1550
sbsS'queue'
p2058
g361
(g1773
g363
Ntp2059
Rp2060
(dp2061
g1777
g1785
sg1778
g1786
sg387
S'c:/marmalade/7.10/s3e/h/std/c++/queue'
p2062
sbsS'time_1.h'
p2063
g361
(g1773
g363
Ntp2064
Rp2065
(dp2066
g1777
g1785
sg1778
g1938
sg387
S'c:/marmalade/7.10/s3e/h/std/sys/time.h'
p2067
sbsS'Iw2D.h'
p2068
g361
(g1773
g363
Ntp2069
Rp2070
(dp2071
g1777
g1429
sg1778
g1878
sg387
g1430
sbsS'IwGeomVec2.h'
p2072
g361
(g1773
g363
Ntp2073
Rp2074
(dp2075
g1777
g1460
sg1778
g1839
sg387
g1498
sbsS'sendfile.h'
p2076
g361
(g1773
g363
Ntp2077
Rp2078
(dp2079
g1777
g1785
sg1778
g1938
sg387
S'c:/marmalade/7.10/s3e/h/std/sys/sendfile.h'
p2080
sbsS'malloc.h'
p2081
g361
(g1773
g363
Ntp2082
Rp2083
(dp2084
g1777
g1785
sg1778
g1807
sg387
S'c:/marmalade/7.10/s3e/h/std/malloc.h'
p2085
sbsS'stdarg.h'
p2086
g361
(g1773
g363
Ntp2087
Rp2088
(dp2089
g1777
g1785
sg1778
g1807
sg387
S'c:/marmalade/7.10/s3e/h/std/stdarg.h'
p2090
sbsS'IwGeomCore.h'
p2091
g361
(g1773
g363
Ntp2092
Rp2093
(dp2094
g1777
g1460
sg1778
g1839
sg387
g1520
sbsS'Iw2DSceneGraph.h'
p2095
g361
(g1773
g363
Ntp2096
Rp2097
(dp2098
g1777
g1402
sg1778
(lp2099
S"'Marmalade Studio'"
p2100
ag1398
asg387
g1406
sbsS'endian.h'
p2101
g361
(g1773
g363
Ntp2102
Rp2103
(dp2104
g1777
g1785
sg1778
g1807
sg387
S'c:/marmalade/7.10/s3e/h/std/endian.h'
p2105
sbsS'gl3ext.h'
p2106
g361
(g1773
g363
Ntp2107
Rp2108
(dp2109
g1777
g1785
sg1778
(lp2110
g1787
aS'GL'
p2111
aS'GLES 3.0'
p2112
asg387
S'c:/marmalade/7.10/s3e/h/GLES3/gl3ext.h'
p2113
sbsS'glob.h'
p2114
g361
(g1773
g363
Ntp2115
Rp2116
(dp2117
g1777
g1785
sg1778
g1807
sg387
S'c:/marmalade/7.10/s3e/h/std/glob.h'
p2118
sbsS'fstream'
p2119
g361
(g1773
g363
Ntp2120
Rp2121
(dp2122
g1777
g1785
sg1778
g1786
sg387
S'c:/marmalade/7.10/s3e/h/std/c++/fstream'
p2123
sbsS's3eCamera.h'
p2124
g361
(g1773
g363
Ntp2125
Rp2126
(dp2127
g1777
g1785
sg1778
g1801
sg387
S'c:/marmalade/7.10/s3e/h/s3eCamera.h'
p2128
sbsS'jconfig.h'
p2129
g361
(g1773
g363
Ntp2130
Rp2131
(dp2132
g1777
g1740
sg1778
g1873
sg387
g1749
sbsS'memory'
p2133
g361
(g1773
g363
Ntp2134
Rp2135
(dp2136
g1777
g1785
sg1778
g1786
sg387
S'c:/marmalade/7.10/s3e/h/std/c++/memory'
p2137
sbsS'egl.h'
p2138
g361
(g1773
g363
Ntp2139
Rp2140
(dp2141
g1777
g1785
sg1778
(lp2142
g1787
aS'GL'
p2143
aS'EGL'
p2144
asg387
S'c:/marmalade/7.10/s3e/h/EGL/egl.h'
p2145
sbsS'egl_1.h'
p2146
g361
(g1773
g363
Ntp2147
Rp2148
(dp2149
g1777
g1785
sg1778
(lp2150
g1787
aS'GL'
p2151
aS'GLES 1.x'
p2152
asg387
S'c:/marmalade/7.10/s3e/h/GLES/egl.h'
p2153
sbsS'IwMemManagerDL.h'
p2154
g361
(g1773
g363
Ntp2155
Rp2156
(dp2157
g1777
g1624
sg1778
g1814
sg387
g1718
sbsS'deque'
p2158
g361
(g1773
g363
Ntp2159
Rp2160
(dp2161
g1777
g1785
sg1778
g1786
sg387
S'c:/marmalade/7.10/s3e/h/std/c++/deque'
p2162
sbsS'IwString.h'
p2163
g361
(g1773
g363
Ntp2164
Rp2165
(dp2166
g1777
g1624
sg1778
g1814
sg387
g1722
sbsS'cwchar'
p2167
g361
(g1773
g363
Ntp2168
Rp2169
(dp2170
g1777
g1785
sg1778
g1786
sg387
S'c:/marmalade/7.10/s3e/h/std/c++/cwchar'
p2171
sbsS'iwutil.mkf'
p2172
g361
(g1773
g363
Ntp2173
Rp2174
(dp2175
g1777
g1641
sg1778
g1814
sg387
g1639
sbsS'csignal'
p2176
g361
(g1773
g363
Ntp2177
Rp2178
(dp2179
g1777
g1785
sg1778
g1786
sg387
S'c:/marmalade/7.10/s3e/h/std/c++/csignal'
p2180
sbsS'pthread_types.h'
p2181
g361
(g1773
g363
Ntp2182
Rp2183
(dp2184
g1777
g1785
sg1778
g1807
sg387
S'c:/marmalade/7.10/s3e/h/std/pthread_types.h'
p2185
sbsS'pthread_alloc'
p2186
g361
(g1773
g363
Ntp2187
Rp2188
(dp2189
g1777
g1785
sg1778
g1786
sg387
S'c:/marmalade/7.10/s3e/h/std/c++/pthread_alloc'
p2190
sbsS'getopt.h'
p2191
g361
(g1773
g363
Ntp2192
Rp2193
(dp2194
g1777
g1785
sg1778
g1807
sg387
S'c:/marmalade/7.10/s3e/h/std/getopt.h'
p2195
sbsS'IwOptimiseARM.h'
p2196
g361
(g1773
g363
Ntp2197
Rp2198
(dp2199
g1777
g1624
sg1778
g1814
sg387
g1682
sbsS'times.h'
p2200
g361
(g1773
g363
Ntp2201
Rp2202
(dp2203
g1777
g1785
sg1778
g1938
sg387
S'c:/marmalade/7.10/s3e/h/std/sys/times.h'
p2204
sbsS'IwGeomFSphere.h'
p2205
g361
(g1773
g363
Ntp2206
Rp2207
(dp2208
g1777
g1460
sg1778
g1839
sg387
g1476
sbsS'amazon-ads-android-sdk.mkf'
p2209
g361
(g1773
g363
Ntp2210
Rp2211
(dp2212
g1777
g1264
sg1778
(lp2213
g1260
asg387
g1262
sbsS'IwTypes.h'
p2214
g361
(g1773
g363
Ntp2215
Rp2216
(dp2217
g1777
g1624
sg1778
g1814
sg387
g1662
sbsS'unistd.h'
p2218
g361
(g1773
g363
Ntp2219
Rp2220
(dp2221
g1777
g1785
sg1778
g1807
sg387
S'c:/marmalade/7.10/s3e/h/std/unistd.h'
p2222
sbsS'audio.cpp'
p2223
g361
(g1773
g363
Ntp2224
Rp2225
(dp2226
g1777
g1336
sg1778
g1929
sg387
g1353
sbsS's3eCompression.h'
p2227
g361
(g1773
g363
Ntp2228
Rp2229
(dp2230
g1777
g1785
sg1778
g1801
sg387
S'c:/marmalade/7.10/s3e/h/s3eCompression.h'
p2231
sbsS'langinfo.h'
p2232
g361
(g1773
g363
Ntp2233
Rp2234
(dp2235
g1777
g1785
sg1778
g1807
sg387
S'c:/marmalade/7.10/s3e/h/std/langinfo.h'
p2236
sbsS's3edebugHeap.h'
p2237
g361
(g1773
g363
Ntp2238
Rp2239
(dp2240
g1777
g1785
sg1778
g2012
sg387
S'c:/marmalade/7.10/s3e/h/ext/s3edebugHeap.h'
p2241
sbsS'AirplayVersion.h'
p2242
g361
(g1773
g363
Ntp2243
Rp2244
(dp2245
g1777
g1785
sg1778
g1801
sg387
S'c:/marmalade/7.10/s3e/h/AirplayVersion.h'
p2246
sbsS'gl2extimg.h'
p2247
g361
(g1773
g363
Ntp2248
Rp2249
(dp2250
g1777
g1785
sg1778
g2049
sg387
S'c:/marmalade/7.10/s3e/h/GLES2/gl2extimg.h'
p2251
sbsS'app.config.txt'
p2252
g361
(g1773
g363
Ntp2253
Rp2254
(dp2255
g1777
(dp2256
sg1778
g4
sg387
S'd:/Marmalade/Stage1/data/app.config.txt'
p2257
sbsS'IwGeomSqrt.h'
p2258
g361
(g1773
g363
Ntp2259
Rp2260
(dp2261
g1777
g1460
sg1778
g1839
sg387
g1530
sbsS'tiniconv_int.h'
p2262
g361
(g1773
g363
Ntp2263
Rp2264
(dp2265
g1777
g1269
sg1778
(lp2266
g1265
asg387
g1270
sbsS'syslog.h'
p2267
g361
(g1773
g363
Ntp2268
Rp2269
(dp2270
g1777
g1785
sg1778
g1807
sg387
S'c:/marmalade/7.10/s3e/h/std/syslog.h'
p2271
sbsS'IwGxFontTypes.h'
p2272
g361
(g1773
g363
Ntp2273
Rp2274
(dp2275
g1777
g1438
sg1778
g1779
sg387
g1454
sbsS'IwGeomFIntersect.h'
p2276
g361
(g1773
g363
Ntp2277
Rp2278
(dp2279
g1777
g1460
sg1778
g1839
sg387
g1500
sbsS'hash_map'
p2280
g361
(g1773
g363
Ntp2281
Rp2282
(dp2283
g1777
g1785
sg1778
g1786
sg387
S'c:/marmalade/7.10/s3e/h/std/c++/hash_map'
p2284
sbsS's3e.mkf'
p2285
g361
(g1773
g363
Ntp2286
Rp2287
(dp2288
g1777
(dp2289
sg1778
g1801
sg387
S'c:/marmalade/7.10/s3e/s3e.mkf'
p2290
sbsS'IwGeomMat2D.h.tpl'
p2291
g361
(g1773
g363
Ntp2292
Rp2293
(dp2294
g1777
g1460
sg1778
g1839
sg387
g1461
sbsS's3eOSReadString.h'
p2295
g361
(g1773
g363
Ntp2296
Rp2297
(dp2298
g1777
g1785
sg1778
g2012
sg387
S'c:/marmalade/7.10/s3e/h/ext/s3eOSReadString.h'
p2299
sbsS'IwSound.h'
p2300
g361
(g1773
g363
Ntp2301
Rp2302
(dp2303
g1777
g1284
sg1778
g1825
sg387
g1299
sbsS'map'
p2304
g361
(g1773
g363
Ntp2305
Rp2306
(dp2307
g1777
g1785
sg1778
g1786
sg387
S'c:/marmalade/7.10/s3e/h/std/c++/map'
p2308
sbsS'IwOptimiseSpeed.h'
p2309
g361
(g1773
g363
Ntp2310
Rp2311
(dp2312
g1777
g1624
sg1778
g1814
sg387
g1666
sbsS'ostream'
p2313
g361
(g1773
g363
Ntp2314
Rp2315
(dp2316
g1777
g1785
sg1778
g1786
sg387
S'c:/marmalade/7.10/s3e/h/std/c++/ostream'
p2317
sbsS'msl_string.h'
p2318
g361
(g1773
g363
Ntp2319
Rp2320
(dp2321
g1777
g1785
sg1778
g1786
sg387
S'c:/marmalade/7.10/s3e/h/std/c++/msl_string.h'
p2322
sbsS'select.h'
p2323
g361
(g1773
g363
Ntp2324
Rp2325
(dp2326
g1777
g1785
sg1778
g1938
sg387
S'c:/marmalade/7.10/s3e/h/std/sys/select.h'
p2327
sbsS'zlib.mkf'
p2328
g361
(g1773
g363
Ntp2329
Rp2330
(dp2331
g1777
g1734
sg1778
(lp2332
g1724
asg387
g1732
sbsS'signal.h'
p2333
g361
(g1773
g363
Ntp2334
Rp2335
(dp2336
g1777
g1785
sg1778
g1807
sg387
S'c:/marmalade/7.10/s3e/h/std/signal.h'
p2337
sbsS'sigcontext.h'
p2338
g361
(g1773
g363
Ntp2339
Rp2340
(dp2341
g1777
g1785
sg1778
g1807
sg387
S'c:/marmalade/7.10/s3e/h/std/sigcontext.h'
p2342
sbsS'libpng.mkf'
p2343
g361
(g1773
g363
Ntp2344
Rp2345
(dp2346
g1777
g1259
sg1778
(lp2347
g1248
asg387
g1257
sbsS's3eClipboard.h'
p2348
g361
(g1773
g363
Ntp2349
Rp2350
(dp2351
g1777
g1785
sg1778
g1801
sg387
S'c:/marmalade/7.10/s3e/h/s3eClipboard.h'
p2352
sbsS'IwGxFuncTable.h'
p2353
g361
(g1773
g363
Ntp2354
Rp2355
(dp2356
g1777
g1560
sg1778
g1919
sg387
g1602
sbsS'IwResHandlerGROUP.h'
p2357
g361
(g1773
g363
Ntp2358
Rp2359
(dp2360
g1777
g1536
sg1778
g2057
sg387
g1554
sbsS's3eDebug.h'
p2361
g361
(g1773
g363
Ntp2362
Rp2363
(dp2364
g1777
g1785
sg1778
g1801
sg387
S'c:/marmalade/7.10/s3e/h/s3eDebug.h'
p2365
sbsS'socket.h'
p2366
g361
(g1773
g363
Ntp2367
Rp2368
(dp2369
g1777
g1785
sg1778
g1938
sg387
S'c:/marmalade/7.10/s3e/h/std/sys/socket.h'
p2370
sbsS'glext.h'
p2371
g361
(g1773
g363
Ntp2372
Rp2373
(dp2374
g1777
g1785
sg1778
g2150
sg387
S'c:/marmalade/7.10/s3e/h/GLES/glext.h'
p2375
sbsS'typeinfo.h'
p2376
g361
(g1773
g363
Ntp2377
Rp2378
(dp2379
g1777
g1785
sg1778
g1786
sg387
S'c:/marmalade/7.10/s3e/h/std/c++/typeinfo.h'
p2380
sbsS'typeinfo'
p2381
g361
(g1773
g363
Ntp2382
Rp2383
(dp2384
g1777
g1785
sg1778
g1786
sg387
S'c:/marmalade/7.10/s3e/h/std/c++/typeinfo'
p2385
sbsS'iwsound.config.txt'
p2386
g361
(g1773
g363
Ntp2387
Rp2388
(dp2389
g1777
g1284
sg1778
(lp2390
g1280
ag1295
asg387
g1297
sbsS'fstream.h'
p2391
g361
(g1773
g363
Ntp2392
Rp2393
(dp2394
g1777
g1785
sg1778
g1786
sg387
S'c:/marmalade/7.10/s3e/h/std/c++/fstream.h'
p2395
sbsS'IwGeomMat.h'
p2396
g361
(g1773
g363
Ntp2397
Rp2398
(dp2399
g1777
g1460
sg1778
g1839
sg387
g1526
sbsS's3ePointer.h'
p2400
g361
(g1773
g363
Ntp2401
Rp2402
(dp2403
g1777
g1785
sg1778
g1801
sg387
S'c:/marmalade/7.10/s3e/h/s3ePointer.h'
p2404
sbsS'iw2d.mkf'
p2405
g361
(g1773
g363
Ntp2406
Rp2407
(dp2408
g1777
g1426
sg1778
g1878
sg387
g1424
sbsS'PVRTexTool.h'
p2409
g361
(g1773
g363
Ntp2410
Rp2411
(dp2412
g1777
g1383
sg1778
(lp2413
S'Extensions'
p2414
ag1377
asg387
g1386
sbsS's3eGL.h'
p2415
g361
(g1773
g363
Ntp2416
Rp2417
(dp2418
g1777
g1785
sg1778
g1801
sg387
S'c:/marmalade/7.10/s3e/h/s3eGL.h'
p2419
sbsS'IwGeomFVec2.h'
p2420
g361
(g1773
g363
Ntp2421
Rp2422
(dp2423
g1777
g1460
sg1778
g1839
sg387
g1516
sbsS'IwGeomSVec4.h'
p2424
g361
(g1773
g363
Ntp2425
Rp2426
(dp2427
g1777
g1460
sg1778
g1839
sg387
g1478
sbsS'poll.h'
p2428
g361
(g1773
g363
Ntp2429
Rp2430
(dp2431
g1777
g1785
sg1778
g1807
sg387
S'c:/marmalade/7.10/s3e/h/std/poll.h'
p2432
sbsS'IwMatAnim.h'
p2433
g361
(g1773
g363
Ntp2434
Rp2435
(dp2436
g1777
g1560
sg1778
g1919
sg387
g1588
sbsS'IwGeomFVec4.h'
p2437
g361
(g1773
g363
Ntp2438
Rp2439
(dp2440
g1777
g1460
sg1778
g1839
sg387
g1528
sbsS'IwGx.h'
p2441
g361
(g1773
g363
Ntp2442
Rp2443
(dp2444
g1777
g1560
sg1778
g1919
sg387
g1577
sbsS'valarray'
p2445
g361
(g1773
g363
Ntp2446
Rp2447
(dp2448
g1777
g1785
sg1778
g1786
sg387
S'c:/marmalade/7.10/s3e/h/std/c++/valarray'
p2449
sbsS'iosfwd'
p2450
g361
(g1773
g363
Ntp2451
Rp2452
(dp2453
g1777
g1785
sg1778
g1786
sg387
S'c:/marmalade/7.10/s3e/h/std/c++/iosfwd'
p2454
sbsS'gl2.h'
p2455
g361
(g1773
g363
Ntp2456
Rp2457
(dp2458
g1777
g1785
sg1778
g2049
sg387
S'c:/marmalade/7.10/s3e/h/GLES2/gl2.h'
p2459
sbsS'jpegint.h'
p2460
g361
(g1773
g363
Ntp2461
Rp2462
(dp2463
g1777
g1740
sg1778
g1873
sg387
g1761
sbsS'stdiostream.h'
p2464
g361
(g1773
g363
Ntp2465
Rp2466
(dp2467
g1777
g1785
sg1778
g1786
sg387
S'c:/marmalade/7.10/s3e/h/std/c++/stdiostream.h'
p2468
sbsS'mem.h'
p2469
g361
(g1773
g363
Ntp2470
Rp2471
(dp2472
g1777
g1785
sg1778
g1786
sg387
S'c:/marmalade/7.10/s3e/h/std/c++/mem.h'
p2473
sbsS'jerror.h'
p2474
g361
(g1773
g363
Ntp2475
Rp2476
(dp2477
g1777
g1740
sg1778
g1873
sg387
g1747
sbsS'zconf.h'
p2478
g361
(g1773
g363
Ntp2479
Rp2480
(dp2481
g1777
g1729
sg1778
(lp2482
g1724
ag1250
asg387
g1727
sbsS's3e.config.txt'
p2483
g361
(g1773
g363
Ntp2484
Rp2485
(dp2486
g1777
g1785
sg1778
g1801
sg387
S'c:/marmalade/7.10/s3e/s3e.config.txt'
p2487
sbsS'numeric'
p2488
g361
(g1773
g363
Ntp2489
Rp2490
(dp2491
g1777
g1785
sg1778
g1786
sg387
S'c:/marmalade/7.10/s3e/h/std/c++/numeric'
p2492
sbsS'utime.h'
p2493
g361
(g1773
g363
Ntp2494
Rp2495
(dp2496
g1777
g1785
sg1778
g1807
sg387
S'c:/marmalade/7.10/s3e/h/std/utime.h'
p2497
sbsS'jdhuff.h'
p2498
g361
(g1773
g363
Ntp2499
Rp2500
(dp2501
g1777
g1740
sg1778
g1873
sg387
g1741
sbsS'IwResHandlerWAV.cpp'
p2502
g361
(g1773
g363
Ntp2503
Rp2504
(dp2505
g1777
g1284
sg1778
g1825
sg387
g1311
sbsS'un.h'
p2506
g361
(g1773
g363
Ntp2507
Rp2508
(dp2509
g1777
g1785
sg1778
g1938
sg387
S'c:/marmalade/7.10/s3e/h/std/sys/un.h'
p2510
sbsS'IwImage.h'
p2511
g361
(g1773
g363
Ntp2512
Rp2513
(dp2514
g1777
g1624
sg1778
g1814
sg387
g1629
sbsS's3eImagePicker.h'
p2515
g361
(g1773
g363
Ntp2516
Rp2517
(dp2518
g1777
g1785
sg1778
g2012
sg387
S'c:/marmalade/7.10/s3e/h/ext/s3eImagePicker.h'
p2519
sbsS'stdlib.h'
p2520
g361
(g1773
g363
Ntp2521
Rp2522
(dp2523
g1777
g1785
sg1778
g1807
sg387
S'c:/marmalade/7.10/s3e/h/std/stdlib.h'
p2524
sbsS'IwCopyingPtr.h'
p2525
g361
(g1773
g363
Ntp2526
Rp2527
(dp2528
g1777
g1624
sg1778
g1814
sg387
g1704
sbsS'iostream'
p2529
g361
(g1773
g363
Ntp2530
Rp2531
(dp2532
g1777
g1785
sg1778
g1786
sg387
S'c:/marmalade/7.10/s3e/h/std/c++/iostream'
p2533
sbsS'png.h'
p2534
g361
(g1773
g363
Ntp2535
Rp2536
(dp2537
g1777
g1254
sg1778
(lp2538
g1248
ag1250
asg387
g1252
sbsS'stddef.h'
p2539
g361
(g1773
g363
Ntp2540
Rp2541
(dp2542
g1777
g1785
sg1778
g1807
sg387
S'c:/marmalade/7.10/s3e/h/std/stddef.h'
p2543
sbsS'setjmp_win32.h'
p2544
g361
(g1773
g363
Ntp2545
Rp2546
(dp2547
g1777
g1785
sg1778
g1807
sg387
S'c:/marmalade/7.10/s3e/h/std/setjmp_win32.h'
p2548
sbsS'pauseMenu.h'
p2549
g361
(g1773
g363
Ntp2550
Rp2551
(dp2552
g1777
g1336
sg1778
g1929
sg387
g1339
sbsS'IwGxPrint.h'
p2553
g361
(g1773
g363
Ntp2554
Rp2555
(dp2556
g1777
g1560
sg1778
g1919
sg387
g1558
sbsS'iwgx_public.defines.txt'
p2557
g361
(g1773
g363
Ntp2558
Rp2559
(dp2560
g1777
g1560
sg1778
g1919
sg387
g1606
sbsS'streambuf.h'
p2561
g361
(g1773
g363
Ntp2562
Rp2563
(dp2564
g1777
g1785
sg1778
g1786
sg387
S'c:/marmalade/7.10/s3e/h/std/c++/streambuf.h'
p2565
sbsS'resources.cpp'
p2566
g361
(g1773
g363
Ntp2567
Rp2568
(dp2569
g1777
g1336
sg1778
g1929
sg387
g1345
sbsS'IwGeomFPlane.h'
p2570
g361
(g1773
g363
Ntp2571
Rp2572
(dp2573
g1777
g1460
sg1778
g1839
sg387
g1502
sbsS'wchar.h'
p2574
g361
(g1773
g363
Ntp2575
Rp2576
(dp2577
g1777
g1785
sg1778
g1807
sg387
S'c:/marmalade/7.10/s3e/h/std/wchar.h'
p2578
sbsS's3eCameraCapture.h'
p2579
g361
(g1773
g363
Ntp2580
Rp2581
(dp2582
g1777
g1785
sg1778
g2012
sg387
S'c:/marmalade/7.10/s3e/h/ext/s3eCameraCapture.h'
p2583
sbsS'eglext.h'
p2584
g361
(g1773
g363
Ntp2585
Rp2586
(dp2587
g1777
g1785
sg1778
g2142
sg387
S'c:/marmalade/7.10/s3e/h/EGL/eglext.h'
p2588
sbsS'IwResHandlerImage.h'
p2589
g361
(g1773
g363
Ntp2590
Rp2591
(dp2592
g1777
g1536
sg1778
g2057
sg387
g1539
sbsS'strstream.h'
p2593
g361
(g1773
g363
Ntp2594
Rp2595
(dp2596
g1777
g1785
sg1778
g1786
sg387
S'c:/marmalade/7.10/s3e/h/std/c++/strstream.h'
p2597
sbsS'tiniconv.h'
p2598
g361
(g1773
g363
Ntp2599
Rp2600
(dp2601
g1777
g1269
sg1778
g2266
sg387
g1267
sbsS'IwGLExt.h'
p2602
g361
(g1773
g363
Ntp2603
Rp2604
(dp2605
g1777
g1417
sg1778
g1795
sg387
g1420
sbsS'app.icf'
p2606
g361
(g1773
g363
Ntp2607
Rp2608
(dp2609
g1777
(dp2610
sg1778
g4
sg387
S'd:/Marmalade/Stage1/data/app.icf'
p2611
sbsS'IwClassFactory.h'
p2612
g361
(g1773
g363
Ntp2613
Rp2614
(dp2615
g1777
g1624
sg1778
g1814
sg387
g1637
sbsS'file.h'
p2616
g361
(g1773
g363
Ntp2617
Rp2618
(dp2619
g1777
g1785
sg1778
g1938
sg387
S'c:/marmalade/7.10/s3e/h/std/sys/file.h'
p2620
sbsS'cstring'
p2621
g361
(g1773
g363
Ntp2622
Rp2623
(dp2624
g1777
g1785
sg1778
g1786
sg387
S'c:/marmalade/7.10/s3e/h/std/c++/cstring'
p2625
sbsS'IwSoundInst.cpp'
p2626
g361
(g1773
g363
Ntp2627
Rp2628
(dp2629
g1777
g1284
sg1778
g1825
sg387
g1313
sbsS'iwutil.config.txt'
p2630
g361
(g1773
g363
Ntp2631
Rp2632
(dp2633
g1777
g1624
sg1778
g1814
sg387
g1706
sbsS's3eSMS.h'
p2634
g361
(g1773
g363
Ntp2635
Rp2636
(dp2637
g1777
g1785
sg1778
g2012
sg387
S'c:/marmalade/7.10/s3e/h/ext/s3eSMS.h'
p2638
sbsS'limits.h'
p2639
g361
(g1773
g363
Ntp2640
Rp2641
(dp2642
g1777
g1785
sg1778
g1807
sg387
S'c:/marmalade/7.10/s3e/h/std/limits.h'
p2643
sbsS'scene.h'
p2644
g361
(g1773
g363
Ntp2645
Rp2646
(dp2647
g1777
g1336
sg1778
g1929
sg387
g1349
sbsS'IwMaterial.h'
p2648
g361
(g1773
g363
Ntp2649
Rp2650
(dp2651
g1777
g1560
sg1778
g1919
sg387
g1600
sbsS'amazon-ads-ios-sdk.mkf'
p2652
g361
(g1773
g363
Ntp2653
Rp2654
(dp2655
g1777
g1279
sg1778
(lp2656
g1275
asg387
g1277
sbsS'PVRTexTool_interface.cpp'
p2657
g361
(g1773
g363
Ntp2658
Rp2659
(dp2660
g1777
g1383
sg1778
(lp2661
g2414
ag1377
ag1379
asg387
g1381
sbsS'IwGxSurface.h'
p2662
g361
(g1773
g363
Ntp2663
Rp2664
(dp2665
g1777
g1560
sg1778
g1919
sg387
g1563
sbsS's3eSocket.h'
p2666
g361
(g1773
g363
Ntp2667
Rp2668
(dp2669
g1777
g1785
sg1778
g1801
sg387
S'c:/marmalade/7.10/s3e/h/s3eSocket.h'
p2670
sbsS'IwAutoFile.h'
p2671
g361
(g1773
g363
Ntp2672
Rp2673
(dp2674
g1777
g1624
sg1778
g1814
sg387
g1678
sbsS's3eVibra.h'
p2675
g361
(g1773
g363
Ntp2676
Rp2677
(dp2678
g1777
g1785
sg1778
g1801
sg387
S'c:/marmalade/7.10/s3e/h/s3eVibra.h'
p2679
sbsS'poll_1.h'
p2680
g361
(g1773
g363
Ntp2681
Rp2682
(dp2683
g1777
g1785
sg1778
g1938
sg387
S'c:/marmalade/7.10/s3e/h/std/sys/poll.h'
p2684
sbsS's3eThread.h'
p2685
g361
(g1773
g363
Ntp2686
Rp2687
(dp2688
g1777
g1785
sg1778
g1801
sg387
S'c:/marmalade/7.10/s3e/h/s3eThread.h'
p2689
sbsS'ucontext.h'
p2690
g361
(g1773
g363
Ntp2691
Rp2692
(dp2693
g1777
g1785
sg1778
g1807
sg387
S'c:/marmalade/7.10/s3e/h/std/ucontext.h'
p2694
sbsS'time.h'
p2695
g361
(g1773
g363
Ntp2696
Rp2697
(dp2698
g1777
g1785
sg1778
g1807
sg387
S'c:/marmalade/7.10/s3e/h/std/time.h'
p2699
sbsS'jchuff.h'
p2700
g361
(g1773
g363
Ntp2701
Rp2702
(dp2703
g1777
g1740
sg1778
g1873
sg387
g1759
sbsS'IwSoundPCM.cpp'
p2704
g361
(g1773
g363
Ntp2705
Rp2706
(dp2707
g1777
g1284
sg1778
g1825
sg387
g1285
sbsS's3eSoundRecord.h'
p2708
g361
(g1773
g363
Ntp2709
Rp2710
(dp2711
g1777
g1785
sg1778
g1801
sg387
S'c:/marmalade/7.10/s3e/h/s3eSoundRecord.h'
p2712
sbsS'IwFibre.h'
p2713
g361
(g1773
g363
Ntp2714
Rp2715
(dp2716
g1777
g1624
sg1778
g1814
sg387
g1650
sbsS's3eVersion.h'
p2717
g361
(g1773
g363
Ntp2718
Rp2719
(dp2720
g1777
g1785
sg1778
g1801
sg387
S'c:/marmalade/7.10/s3e/h/s3eVersion.h'
p2721
sbsS'input.cpp'
p2722
g361
(g1773
g363
Ntp2723
Rp2724
(dp2725
g1777
g1336
sg1778
g1929
sg387
g1359
sbsS'IwSoundGroup.h'
p2726
g361
(g1773
g363
Ntp2727
Rp2728
(dp2729
g1777
g1284
sg1778
g1825
sg387
g1330
sbsS'IwSoundWAV.h'
p2730
g361
(g1773
g363
Ntp2731
Rp2732
(dp2733
g1777
g1284
sg1778
g1825
sg387
g1309
sbsS'IwGxFontGlyph.h'
p2734
g361
(g1773
g363
Ntp2735
Rp2736
(dp2737
g1777
g1438
sg1778
g1779
sg387
g1452
sbsS's3eTypes.h'
p2738
g361
(g1773
g363
Ntp2739
Rp2740
(dp2741
g1777
g1785
sg1778
g1801
sg387
S'c:/marmalade/7.10/s3e/h/s3eTypes.h'
p2742
sbsS'IwSoundSpec.h'
p2743
g361
(g1773
g363
Ntp2744
Rp2745
(dp2746
g1777
g1284
sg1778
g1825
sg387
g1289
sbsS'signal_2.h'
p2747
g361
(g1773
g363
Ntp2748
Rp2749
(dp2750
g1777
g1785
sg1778
g1786
sg387
S'c:/marmalade/7.10/s3e/h/std/c++/signal.h'
p2751
sbsS'termios.h'
p2752
g361
(g1773
g363
Ntp2753
Rp2754
(dp2755
g1777
g1785
sg1778
g1807
sg387
S'c:/marmalade/7.10/s3e/h/std/termios.h'
p2756
sbsS's3eAmazonAds_interface.cpp'
p2757
g361
(g1773
g363
Ntp2758
Rp2759
(dp2760
g1777
g1369
sg1778
(lp2761
g1361
ag1363
ag1365
asg387
g1370
sbsS'iw2dscenegraph.mkf'
p2762
g361
(g1773
g363
Ntp2763
Rp2764
(dp2765
g1777
g1405
sg1778
g2099
sg387
g1403
sbsS'slist'
p2766
g361
(g1773
g363
Ntp2767
Rp2768
(dp2769
g1777
g1785
sg1778
g1786
sg387
S'c:/marmalade/7.10/s3e/h/std/c++/slist'
p2770
sbsS'cstdlib'
p2771
g361
(g1773
g363
Ntp2772
Rp2773
(dp2774
g1777
g1785
sg1778
g1786
sg387
S'c:/marmalade/7.10/s3e/h/std/c++/cstdlib'
p2775
sbsS's3eLocation.h'
p2776
g361
(g1773
g363
Ntp2777
Rp2778
(dp2779
g1777
g1785
sg1778
g1801
sg387
S'c:/marmalade/7.10/s3e/h/s3eLocation.h'
p2780
sbsS'IwMemBucketHelpers.h'
p2781
g361
(g1773
g363
Ntp2782
Rp2783
(dp2784
g1777
g1624
sg1778
g1814
sg387
g1635
sbsS's3eHash.h'
p2785
g361
(g1773
g363
Ntp2786
Rp2787
(dp2788
g1777
g1785
sg1778
g1801
sg387
S'c:/marmalade/7.10/s3e/h/s3eHash.h'
p2789
sbsS'IwSoundGroup.cpp'
p2790
g361
(g1773
g363
Ntp2791
Rp2792
(dp2793
g1777
g1284
sg1778
g1825
sg387
g1323
sbsS'IwGeomFMat.h'
p2794
g361
(g1773
g363
Ntp2795
Rp2796
(dp2797
g1777
g1460
sg1778
g1839
sg387
g1518
sbsS'type_traits.h'
p2798
g361
(g1773
g363
Ntp2799
Rp2800
(dp2801
g1777
g1785
sg1778
g1786
sg387
S'c:/marmalade/7.10/s3e/h/std/c++/type_traits.h'
p2802
sbsS's3eAtomic.h'
p2803
g361
(g1773
g363
Ntp2804
Rp2805
(dp2806
g1777
g1785
sg1778
g1801
sg387
S'c:/marmalade/7.10/s3e/h/s3eAtomic.h'
p2807
sbsS'IwMenu.h'
p2808
g361
(g1773
g363
Ntp2809
Rp2810
(dp2811
g1777
g1624
sg1778
g1814
sg387
g1631
sbsS'IwResHandlerITX.h'
p2812
g361
(g1773
g363
Ntp2813
Rp2814
(dp2815
g1777
g1536
sg1778
g2057
sg387
g1541
sbsS'IwSoundData.h'
p2816
g361
(g1773
g363
Ntp2817
Rp2818
(dp2819
g1777
g1284
sg1778
g1825
sg387
g1319
sbsS'IwArray.h'
p2820
g361
(g1773
g363
Ntp2821
Rp2822
(dp2823
g1777
g1624
sg1778
g1814
sg387
g1633
sbsS'IwUTF8.h'
p2824
g361
(g1773
g363
Ntp2825
Rp2826
(dp2827
g1777
g1624
sg1778
g1814
sg387
g1714
sbsS'math_rvct.h'
p2828
g361
(g1773
g363
Ntp2829
Rp2830
(dp2831
g1777
g1785
sg1778
g1807
sg387
S'c:/marmalade/7.10/s3e/h/std/math_rvct.h'
p2832
sbsS'IwUtil.h'
p2833
g361
(g1773
g363
Ntp2834
Rp2835
(dp2836
g1777
g1624
sg1778
g1814
sg387
g1648
sbsS'IwFColour.h'
p2837
g361
(g1773
g363
Ntp2838
Rp2839
(dp2840
g1777
g1560
sg1778
g1919
sg387
g1604
sbsS's3eamazonads.mkf'
p2841
g361
(g1773
g363
Ntp2842
Rp2843
(dp2844
g1777
g1374
sg1778
(lp2845
g1361
ag1363
asg387
g1372
sbsS'wctype.h'
p2846
g361
(g1773
g363
Ntp2847
Rp2848
(dp2849
g1777
g1785
sg1778
g1807
sg387
S'c:/marmalade/7.10/s3e/h/std/wctype.h'
p2850
sbsS'mainMenu.h'
p2851
g361
(g1773
g363
Ntp2852
Rp2853
(dp2854
g1777
g1336
sg1778
g1929
sg387
g1343
sbsS'cstddef'
p2855
g361
(g1773
g363
Ntp2856
Rp2857
(dp2858
g1777
g1785
sg1778
g1786
sg387
S'c:/marmalade/7.10/s3e/h/std/c++/cstddef'
p2859
sbsS'assert.h'
p2860
g361
(g1773
g363
Ntp2861
Rp2862
(dp2863
g1777
g1785
sg1778
g1807
sg387
S'c:/marmalade/7.10/s3e/h/std/assert.h'
p2864
sbsS'mman.h'
p2865
g361
(g1773
g363
Ntp2866
Rp2867
(dp2868
g1777
g1785
sg1778
g1938
sg387
S'c:/marmalade/7.10/s3e/h/std/sys/mman.h'
p2869
sbsS'IwRandom.h'
p2870
g361
(g1773
g363
Ntp2871
Rp2872
(dp2873
g1777
g1624
sg1778
g1814
sg387
g1690
sbsS'libgen.h'
p2874
g361
(g1773
g363
Ntp2875
Rp2876
(dp2877
g1777
g1785
sg1778
g1807
sg387
S'c:/marmalade/7.10/s3e/h/std/libgen.h'
p2878
sbsS'utsname.h'
p2879
g361
(g1773
g363
Ntp2880
Rp2881
(dp2882
g1777
g1785
sg1778
g1938
sg387
S'c:/marmalade/7.10/s3e/h/std/sys/utsname.h'
p2883
sbsS'wait.h'
p2884
g361
(g1773
g363
Ntp2885
Rp2886
(dp2887
g1777
g1785
sg1778
g1938
sg387
S'c:/marmalade/7.10/s3e/h/std/sys/wait.h'
p2888
sbsS'param.h'
p2889
g361
(g1773
g363
Ntp2890
Rp2891
(dp2892
g1777
g1785
sg1778
g1938
sg387
S'c:/marmalade/7.10/s3e/h/std/sys/param.h'
p2893
sbsS'IwDivide.h'
p2894
g361
(g1773
g363
Ntp2895
Rp2896
(dp2897
g1777
g1624
sg1778
g1814
sg387
g1642
sbsS'Iw2DSceneGraphCore.cpp'
p2898
g361
(g1773
g363
Ntp2899
Rp2900
(dp2901
g1777
g1617
sg1778
(lp2902
S"'Marmalade Studio'"
p2903
ag1610
asg387
g1618
sbsS'IwResManager.h'
p2904
g361
(g1773
g363
Ntp2905
Rp2906
(dp2907
g1777
g1536
sg1778
g2057
sg387
g1543
sbsS'IwSoundManager.h'
p2908
g361
(g1773
g363
Ntp2909
Rp2910
(dp2911
g1777
g1284
sg1778
g1825
sg387
g1293
sbsS'cwctype'
p2912
g361
(g1773
g363
Ntp2913
Rp2914
(dp2915
g1777
g1785
sg1778
g1786
sg387
S'c:/marmalade/7.10/s3e/h/std/c++/cwctype'
p2916
sbsS'set'
p2917
g361
(g1773
g363
Ntp2918
Rp2919
(dp2920
g1777
g1785
sg1778
g1786
sg387
S'c:/marmalade/7.10/s3e/h/std/c++/set'
p2921
sbsS'IwGeomSQuat.h'
p2922
g361
(g1773
g363
Ntp2923
Rp2924
(dp2925
g1777
g1460
sg1778
g1839
sg387
g1504
sbsS'locale'
p2926
g361
(g1773
g363
Ntp2927
Rp2928
(dp2929
g1777
g1785
sg1778
g1786
sg387
S'c:/marmalade/7.10/s3e/h/std/c++/locale'
p2930
sbsS'cstdio'
p2931
g361
(g1773
g363
Ntp2932
Rp2933
(dp2934
g1777
g1785
sg1778
g1786
sg387
S'c:/marmalade/7.10/s3e/h/std/c++/cstdio'
p2935
sbsS'cdjpeg.h'
p2936
g361
(g1773
g363
Ntp2937
Rp2938
(dp2939
g1777
g1740
sg1778
g1873
sg387
g1745
sbsS'audio.h'
p2940
g361
(g1773
g363
Ntp2941
Rp2942
(dp2943
g1777
g1336
sg1778
g1929
sg387
g1347
sbsS'IwList.h'
p2944
g361
(g1773
g363
Ntp2945
Rp2946
(dp2947
g1777
g1624
sg1778
g1814
sg387
g1686
sbsS'pauseMenu.cpp'
p2948
g361
(g1773
g363
Ntp2949
Rp2950
(dp2951
g1777
g1336
sg1778
g1929
sg387
g1351
sbsS'inttypes.h'
p2952
g361
(g1773
g363
Ntp2953
Rp2954
(dp2955
g1777
g1785
sg1778
g1807
sg387
S'c:/marmalade/7.10/s3e/h/std/inttypes.h'
p2956
sbsS'dirent.h'
p2957
g361
(g1773
g363
Ntp2958
Rp2959
(dp2960
g1777
g1785
sg1778
g1807
sg387
S'c:/marmalade/7.10/s3e/h/std/dirent.h'
p2961
sbsS'IwGeomVec3.h'
p2962
g361
(g1773
g363
Ntp2963
Rp2964
(dp2965
g1777
g1460
sg1778
g1839
sg387
g1488
sbsS'transupp.h'
p2966
g361
(g1773
g363
Ntp2967
Rp2968
(dp2969
g1777
g1740
sg1778
g1873
sg387
g1743
sbsS'IwMath.h'
p2970
g361
(g1773
g363
Ntp2971
Rp2972
(dp2973
g1777
g1624
sg1778
g1814
sg387
g1660
sbsS'IwGeomQuat.h'
p2974
g361
(g1773
g363
Ntp2975
Rp2976
(dp2977
g1777
g1460
sg1778
g1839
sg387
g1458
sbsS'glplatform.h'
p2978
g361
(g1773
g363
Ntp2979
Rp2980
(dp2981
g1777
g1785
sg1778
g2150
sg387
S'c:/marmalade/7.10/s3e/h/GLES/glplatform.h'
p2982
sbsS's3e-default.mkf'
p2983
g361
(g1773
g363
Ntp2984
Rp2985
(dp2986
g1777
g1395
sg1778
(lp2987
g1391
asg387
g1393
sbsS'iwgl.config.txt'
p2988
g361
(g1773
g363
Ntp2989
Rp2990
(dp2991
g1777
g1417
sg1778
g1795
sg387
g1418
sbsS'bitset'
p2992
g361
(g1773
g363
Ntp2993
Rp2994
(dp2995
g1777
g1785
sg1778
g1786
sg387
S'c:/marmalade/7.10/s3e/h/std/c++/bitset'
p2996
sbsS'alloca.h'
p2997
g361
(g1773
g363
Ntp2998
Rp2999
(dp3000
g1777
g1785
sg1778
g1807
sg387
S'c:/marmalade/7.10/s3e/h/std/alloca.h'
p3001
sbsS'IwResHandler.h'
p3002
g361
(g1773
g363
Ntp3003
Rp3004
(dp3005
g1777
g1536
sg1778
g2057
sg387
g1534
sbsS'IwResHandlerMTL.h'
p3006
g361
(g1773
g363
Ntp3007
Rp3008
(dp3009
g1777
g1560
sg1778
g1919
sg387
g1598
sbsS'IwRuntime.h'
p3010
g361
(g1773
g363
Ntp3011
Rp3012
(dp3013
g1777
g1624
sg1778
g1814
sg387
g1712
sbsS'limits'
p3014
g361
(g1773
g363
Ntp3015
Rp3016
(dp3017
g1777
g1785
sg1778
g1786
sg387
S'c:/marmalade/7.10/s3e/h/std/c++/limits'
p3018
sbsS'IwGeomBBox.h'
p3019
g361
(g1773
g363
Ntp3020
Rp3021
(dp3022
g1777
g1460
sg1778
g1839
sg387
g1508
sbsS's3eContacts.h'
p3023
g361
(g1773
g363
Ntp3024
Rp3025
(dp3026
g1777
g1785
sg1778
g1801
sg387
S'c:/marmalade/7.10/s3e/h/s3eContacts.h'
p3027
sbsS's3eLicense.h'
p3028
g361
(g1773
g363
Ntp3029
Rp3030
(dp3031
g1777
g1785
sg1778
g1801
sg387
S'c:/marmalade/7.10/s3e/h/s3eLicense.h'
p3032
sbsS'iwgx.config.txt'
p3033
g361
(g1773
g363
Ntp3034
Rp3035
(dp3036
g1777
g1560
sg1778
g1919
sg387
g1571
sbsS'IwTextParser.h'
p3037
g361
(g1773
g363
Ntp3038
Rp3039
(dp3040
g1777
g1624
sg1778
g1814
sg387
g1664
sbsS's3eTimer.h'
p3041
g361
(g1773
g363
Ntp3042
Rp3043
(dp3044
g1777
g1785
sg1778
g1801
sg387
S'c:/marmalade/7.10/s3e/h/s3eTimer.h'
p3045
sbsS'IwGeomVec.h'
p3046
g361
(g1773
g363
Ntp3047
Rp3048
(dp3049
g1777
g1460
sg1778
g1839
sg387
g1512
sbsS'IwSerialise.h'
p3050
g361
(g1773
g363
Ntp3051
Rp3052
(dp3053
g1777
g1624
sg1778
g1814
sg387
g1658
sbsS'cstdarg'
p3054
g361
(g1773
g363
Ntp3055
Rp3056
(dp3057
g1777
g1785
sg1778
g1786
sg387
S'c:/marmalade/7.10/s3e/h/std/c++/cstdarg'
p3058
sbsS'gl2ext.h'
p3059
g361
(g1773
g363
Ntp3060
Rp3061
(dp3062
g1777
g1785
sg1778
g2049
sg387
S'c:/marmalade/7.10/s3e/h/GLES2/gl2ext.h'
p3063
sbsS'IwChar.h'
p3064
g361
(g1773
g363
Ntp3065
Rp3066
(dp3067
g1777
g1624
sg1778
g1814
sg387
g1674
sbsS's3eSound.h'
p3068
g361
(g1773
g363
Ntp3069
Rp3070
(dp3071
g1777
g1785
sg1778
g1801
sg387
S'c:/marmalade/7.10/s3e/h/s3eSound.h'
p3072
sbsS'IwOptimiseThumb.h'
p3073
g361
(g1773
g363
Ntp3074
Rp3075
(dp3076
g1777
g1624
sg1778
g1814
sg387
g1676
sbsS'exception.h'
p3077
g361
(g1773
g363
Ntp3078
Rp3079
(dp3080
g1777
g1785
sg1778
g1786
sg387
S'c:/marmalade/7.10/s3e/h/std/c++/exception.h'
p3081
sbsS'iwgeom.config.txt'
p3082
g361
(g1773
g363
Ntp3083
Rp3084
(dp3085
g1777
g1460
sg1778
g1839
sg387
g1469
sbsS'gl31.h'
p3086
g361
(g1773
g363
Ntp3087
Rp3088
(dp3089
g1777
g1785
sg1778
g2110
sg387
S'c:/marmalade/7.10/s3e/h/GLES3/gl31.h'
p3090
sbsS'gl.h'
p3091
g361
(g1773
g363
Ntp3092
Rp3093
(dp3094
g1777
g1785
sg1778
g2150
sg387
S'c:/marmalade/7.10/s3e/h/GLES/gl.h'
p3095
sbsS'zlib.h'
p3096
g361
(g1773
g363
Ntp3097
Rp3098
(dp3099
g1777
g1729
sg1778
g2482
sg387
g1730
sbsS'temp_defines_release.h'
p3100
g361
(g1773
g363
Ntp3101
Rp3102
(dp3103
g1777
(lp3104
sg1778
(lp3105
S"'generated files'"
p3106
asg387
S'd:/Marmalade/Stage1/build_stage1_vc14/temp_defines_release.h'
p3107
sbsS'iwgl.mkf'
p3108
g361
(g1773
g363
Ntp3109
Rp3110
(dp3111
g1777
g1414
sg1778
g1795
sg387
g1412
sbsS'IwColour.h'
p3112
g361
(g1773
g363
Ntp3113
Rp3114
(dp3115
g1777
g1560
sg1778
g1919
sg387
g1573
sbsS's3eLibrary.h'
p3116
g361
(g1773
g363
Ntp3117
Rp3118
(dp3119
g1777
g1785
sg1778
g2012
sg387
S'c:/marmalade/7.10/s3e/h/ext/s3eLibrary.h'
p3120
sbsS'types.h'
p3121
g361
(g1773
g363
Ntp3122
Rp3123
(dp3124
g1777
g1785
sg1778
g1938
sg387
S'c:/marmalade/7.10/s3e/h/std/sys/types.h'
p3125
sbsS'ifaddrs.h'
p3126
g361
(g1773
g363
Ntp3127
Rp3128
(dp3129
g1777
g1785
sg1778
g1807
sg387
S'c:/marmalade/7.10/s3e/h/std/ifaddrs.h'
p3130
sbsS'strstream'
p3131
g361
(g1773
g363
Ntp3132
Rp3133
(dp3134
g1777
g1785
sg1778
g1786
sg387
S'c:/marmalade/7.10/s3e/h/std/c++/strstream'
p3135
sbsS'Stage1.cpp'
p3136
g361
(g1773
g363
Ntp3137
Rp3138
(dp3139
g1777
g1336
sg1778
g1929
sg387
g1341
sbsS'exception'
p3140
g361
(g1773
g363
Ntp3141
Rp3142
(dp3143
g1777
g1785
sg1778
g1786
sg387
S'c:/marmalade/7.10/s3e/h/std/c++/exception'
p3144
sbsS's3eAmazonAds.defines.txt'
p3145
g361
(g1773
g363
Ntp3146
Rp3147
(dp3148
g1777
g1369
sg1778
g2761
sg387
g1367
sbsS'rlocks.h'
p3149
g361
(g1773
g363
Ntp3150
Rp3151
(dp3152
g1777
g1785
sg1778
g1786
sg387
S'c:/marmalade/7.10/s3e/h/std/c++/rlocks.h'
p3153
sbsS'ioctl.h'
p3154
g361
(g1773
g363
Ntp3155
Rp3156
(dp3157
g1777
g1785
sg1778
g1938
sg387
S'c:/marmalade/7.10/s3e/h/std/sys/ioctl.h'
p3158
sbsS'sem.h'
p3159
g361
(g1773
g363
Ntp3160
Rp3161
(dp3162
g1777
g1785
sg1778
g1938
sg387
S'c:/marmalade/7.10/s3e/h/std/sys/sem.h'
p3163
sbsS'jinclude.h'
p3164
g361
(g1773
g363
Ntp3165
Rp3166
(dp3167
g1777
g1740
sg1778
g1873
sg387
g1763
sbsS'IwEvent.h'
p3168
g361
(g1773
g363
Ntp3169
Rp3170
(dp3171
g1777
g1624
sg1778
g1814
sg387
g1710
sbsS'IwOptimiseSize.h'
p3172
g361
(g1773
g363
Ntp3173
Rp3174
(dp3175
g1777
g1624
sg1778
g1814
sg387
g1700
sbsS'iwgxfont_public.defines.txt'
p3176
g361
(g1773
g363
Ntp3177
Rp3178
(dp3179
g1777
g1438
sg1778
g1779
sg387
g1448
sbsS'iconv.h'
p3180
g361
(g1773
g363
Ntp3181
Rp3182
(dp3183
g1777
g1785
sg1778
g1807
sg387
S'c:/marmalade/7.10/s3e/h/std/iconv.h'
p3184
sbsS's3eDevice.h'
p3185
g361
(g1773
g363
Ntp3186
Rp3187
(dp3188
g1777
g1785
sg1778
g1801
sg387
S'c:/marmalade/7.10/s3e/h/s3eDevice.h'
p3189
sbsS'IwGeomSphere.h'
p3190
g361
(g1773
g363
Ntp3191
Rp3192
(dp3193
g1777
g1460
sg1778
g1839
sg387
g1494
sbsS'tiniconv.mkf'
p3194
g361
(g1773
g363
Ntp3195
Rp3196
(dp3197
g1777
g1274
sg1778
g2266
sg387
g1272
sbsS'iw2dscenegraph.defines.txt'
p3198
g361
(g1773
g363
Ntp3199
Rp3200
(dp3201
g1777
g1402
sg1778
g2099
sg387
g1408
sbsS'jdct.h'
p3202
g361
(g1773
g363
Ntp3203
Rp3204
(dp3205
g1777
g1740
sg1778
g1873
sg387
g1753
sbsS'cctype'
p3206
g361
(g1773
g363
Ntp3207
Rp3208
(dp3209
g1777
g1785
sg1778
g1786
sg387
S'c:/marmalade/7.10/s3e/h/std/c++/cctype'
p3210
sbsS'IwSoundADPCM.cpp'
p3211
g361
(g1773
g363
Ntp3212
Rp3213
(dp3214
g1777
g1284
sg1778
g1825
sg387
g1305
sbsS's3eConfig.h'
p3215
g361
(g1773
g363
Ntp3216
Rp3217
(dp3218
g1777
g1785
sg1778
g1801
sg387
S'c:/marmalade/7.10/s3e/h/s3eConfig.h'
p3219
sbsS'IwHashString.h'
p3220
g361
(g1773
g363
Ntp3221
Rp3222
(dp3223
g1777
g1624
sg1778
g1814
sg387
g1654
sbsS'stat.h'
p3224
g361
(g1773
g363
Ntp3225
Rp3226
(dp3227
g1777
g1785
sg1778
g1938
sg387
S'c:/marmalade/7.10/s3e/h/std/sys/stat.h'
p3228
sbsS'byteswap.h'
p3229
g361
(g1773
g363
Ntp3230
Rp3231
(dp3232
g1777
g1785
sg1778
g1807
sg387
S'c:/marmalade/7.10/s3e/h/std/byteswap.h'
p3233
sbsS'iwresmanager.mkf'
p3234
g361
(g1773
g363
Ntp3235
Rp3236
(dp3237
g1777
g1549
sg1778
g2057
sg387
g1547
sbsS'IwUtilInitTerm.h'
p3238
g361
(g1773
g363
Ntp3239
Rp3240
(dp3241
g1777
g1624
sg1778
g1814
sg387
g1708
sbsS'pthread_1.h'
p3242
g361
(g1773
g363
Ntp3243
Rp3244
(dp3245
g1777
g1785
sg1778
g1786
sg387
S'c:/marmalade/7.10/s3e/h/std/c++/pthread.h'
p3246
sbsS'IwMemBucket.h'
p3247
g361
(g1773
g363
Ntp3248
Rp3249
(dp3250
g1777
g1624
sg1778
g1814
sg387
g1720
sbsS'complex'
p3251
g361
(g1773
g363
Ntp3252
Rp3253
(dp3254
g1777
g1785
sg1778
g1786
sg387
S'c:/marmalade/7.10/s3e/h/std/c++/complex'
p3255
sbsS'algorithm'
p3256
g361
(g1773
g363
Ntp3257
Rp3258
(dp3259
g1777
g1785
sg1778
g1786
sg387
S'c:/marmalade/7.10/s3e/h/std/c++/algorithm'
p3260
sbsS's3e.icf'
p3261
g361
(g1773
g363
Ntp3262
Rp3263
(dp3264
g1777
g1785
sg1778
g1801
sg387
S'c:/marmalade/7.10/s3e/s3e.icf'
p3265
sbsS'IwVariableBitField.h'
p3266
g361
(g1773
g363
Ntp3267
Rp3268
(dp3269
g1777
g1624
sg1778
g1814
sg387
g1702
sbsS'resources.h'
p3270
g361
(g1773
g363
Ntp3271
Rp3272
(dp3273
g1777
g1336
sg1778
g1929
sg387
g1355
sbsS'IwGxFontState.h'
p3274
g361
(g1773
g363
Ntp3275
Rp3276
(dp3277
g1777
g1438
sg1778
g1779
sg387
g1446
sbsS'stdio.h'
p3278
g361
(g1773
g363
Ntp3279
Rp3280
(dp3281
g1777
g1785
sg1778
g1807
sg387
S'c:/marmalade/7.10/s3e/h/std/stdio.h'
p3282
sbsS'jmemsys.h'
p3283
g361
(g1773
g363
Ntp3284
Rp3285
(dp3286
g1777
g1740
sg1778
g1873
sg387
g1757
sbsS'ios'
p3287
g361
(g1773
g363
Ntp3288
Rp3289
(dp3290
g1777
g1785
sg1778
g1786
sg387
S'c:/marmalade/7.10/s3e/h/std/c++/ios'
p3291
sbsS'PVRTexTool.defines.txt'
p3292
g361
(g1773
g363
Ntp3293
Rp3294
(dp3295
g1777
g1383
sg1778
g2661
sg387
g1384
sbsS'stack'
p3296
g361
(g1773
g363
Ntp3297
Rp3298
(dp3299
g1777
g1785
sg1778
g1786
sg387
S'c:/marmalade/7.10/s3e/h/std/c++/stack'
p3300
sbsS'IwSoundParams.h'
p3301
g361
(g1773
g363
Ntp3302
Rp3303
(dp3304
g1777
g1284
sg1778
g1825
sg387
g1303
sbsS'new.h'
p3305
g361
(g1773
g363
Ntp3306
Rp3307
(dp3308
g1777
g1785
sg1778
g1786
sg387
S'c:/marmalade/7.10/s3e/h/std/c++/new.h'
p3309
sbsS's3eAmazonAds.h'
p3310
g361
(g1773
g363
Ntp3311
Rp3312
(dp3313
g1777
g1369
sg1778
g2845
sg387
g1375
sbsS's3eEMail.h'
p3314
g361
(g1773
g363
Ntp3315
Rp3316
(dp3317
g1777
g1785
sg1778
g2012
sg387
S'c:/marmalade/7.10/s3e/h/ext/s3eEMail.h'
p3318
sbsS's3eVideo.h'
p3319
g361
(g1773
g363
Ntp3320
Rp3321
(dp3322
g1777
g1785
sg1778
g1801
sg387
S'c:/marmalade/7.10/s3e/h/s3eVideo.h'
p3323
sbsS'pngconf.h'
p3324
g361
(g1773
g363
Ntp3325
Rp3326
(dp3327
g1777
g1254
sg1778
g2538
sg387
g1255
sbsS'pwd.h'
p3328
g361
(g1773
g363
Ntp3329
Rp3330
(dp3331
g1777
g1785
sg1778
g1807
sg387
S'c:/marmalade/7.10/s3e/h/std/pwd.h'
p3332
sbsS'gl3.h'
p3333
g361
(g1773
g363
Ntp3334
Rp3335
(dp3336
g1777
g1785
sg1778
g2110
sg387
S'c:/marmalade/7.10/s3e/h/GLES3/gl3.h'
p3337
sbsS'IwClip.h'
p3338
g361
(g1773
g363
Ntp3339
Rp3340
(dp3341
g1777
g1560
sg1778
g1919
sg387
g1569
sbsS'IwSoundInst.h'
p3342
g361
(g1773
g363
Ntp3343
Rp3344
(dp3345
g1777
g1284
sg1778
g1825
sg387
g1282
sbsS'iwresmanager.config.txt'
p3346
g361
(g1773
g363
Ntp3347
Rp3348
(dp3349
g1777
g1536
sg1778
g2057
sg387
g1537
sbsS'IwGxShaderTechnique.h'
p3350
g361
(g1773
g363
Ntp3351
Rp3352
(dp3353
g1777
g1560
sg1778
g1919
sg387
g1608
sbsS'IwCore.h'
p3354
g361
(g1773
g363
Ntp3355
Rp3356
(dp3357
g1777
g1624
sg1778
g1814
sg387
g1670
sbsS'cfloat'
p3358
g361
(g1773
g363
Ntp3359
Rp3360
(dp3361
g1777
g1785
sg1778
g1786
sg387
S'c:/marmalade/7.10/s3e/h/std/c++/cfloat'
p3362
sbsS'IwGeomMat2D.h'
p3363
g361
(g1773
g363
Ntp3364
Rp3365
(dp3366
g1777
g1460
sg1778
g1839
sg387
g1524
sbsS'IwAllocator.h'
p3367
g361
(g1773
g363
Ntp3368
Rp3369
(dp3370
g1777
g1624
sg1778
g1814
sg387
g1672
sbsS'IwPath.h'
p3371
g361
(g1773
g363
Ntp3372
Rp3373
(dp3374
g1777
g1624
sg1778
g1814
sg387
g1625
sbsS'iwgxfont.mkf'
p3375
g361
(g1773
g363
Ntp3376
Rp3377
(dp3378
g1777
g1443
sg1778
g1779
sg387
g1441
sbsS'IwTexture.h'
p3379
g361
(g1773
g363
Ntp3380
Rp3381
(dp3382
g1777
g1560
sg1778
g1919
sg387
g1592
sbsS'IwGeomVec.h.tpl'
p3383
g361
(g1773
g363
Ntp3384
Rp3385
(dp3386
g1777
g1460
sg1778
g1839
sg387
g1467
sbsS's3eAccelerometer.h'
p3387
g361
(g1773
g363
Ntp3388
Rp3389
(dp3390
g1777
g1785
sg1778
g1801
sg387
S'c:/marmalade/7.10/s3e/h/s3eAccelerometer.h'
p3391
sbsS'setjmp.h'
p3392
g361
(g1773
g363
Ntp3393
Rp3394
(dp3395
g1777
g1785
sg1778
g1807
sg387
S'c:/marmalade/7.10/s3e/h/std/setjmp.h'
p3396
sbsS'IwSoundParams.cpp'
p3397
g361
(g1773
g363
Ntp3398
Rp3399
(dp3400
g1777
g1284
sg1778
g1825
sg387
g1321
sbsS'IwFile.h'
p3401
g361
(g1773
g363
Ntp3402
Rp3403
(dp3404
g1777
g1624
sg1778
g1814
sg387
g1627
sbsS'IwTextParseable.h'
p3405
g361
(g1773
g363
Ntp3406
Rp3407
(dp3408
g1777
g1624
sg1778
g1814
sg387
g1696
sbsS'istream.h'
p3409
g361
(g1773
g363
Ntp3410
Rp3411
(dp3412
g1777
g1785
sg1778
g1786
sg387
S'c:/marmalade/7.10/s3e/h/std/c++/istream.h'
p3413
sbsS'stdint.h'
p3414
g361
(g1773
g363
Ntp3415
Rp3416
(dp3417
g1777
g1785
sg1778
g1807
sg387
S'c:/marmalade/7.10/s3e/h/std/stdint.h'
p3418
sbsS'semaphore.h'
p3419
g361
(g1773
g363
Ntp3420
Rp3421
(dp3422
g1777
g1785
sg1778
g1807
sg387
S'c:/marmalade/7.10/s3e/h/std/semaphore.h'
p3423
sbsS'ctime'
p3424
g361
(g1773
g363
Ntp3425
Rp3426
(dp3427
g1777
g1785
sg1778
g1786
sg387
S'c:/marmalade/7.10/s3e/h/std/c++/ctime'
p3428
sbsS'sstream'
p3429
g361
(g1773
g363
Ntp3430
Rp3431
(dp3432
g1777
g1785
sg1778
g1786
sg387
S'c:/marmalade/7.10/s3e/h/std/c++/sstream'
p3433
sbsS'IwGeomFBBox.h'
p3434
g361
(g1773
g363
Ntp3435
Rp3436
(dp3437
g1777
g1460
sg1778
g1839
sg387
g1471
sbsS'IwDebugPrim.h'
p3438
g361
(g1773
g363
Ntp3439
Rp3440
(dp3441
g1777
g1560
sg1778
g1919
sg387
g1579
sbsS'IwGxFontContainer.h'
p3442
g361
(g1773
g363
Ntp3443
Rp3444
(dp3445
g1777
g1438
sg1778
g1779
sg387
g1450
sbsS'IwGeomSVec3.h'
p3446
g361
(g1773
g363
Ntp3447
Rp3448
(dp3449
g1777
g1460
sg1778
g1839
sg387
g1482
sbsS'iw2dscenegraphcore.mkf'
p3450
g361
(g1773
g363
Ntp3451
Rp3452
(dp3453
g1777
g1614
sg1778
g2902
sg387
g1612
sbsS's3eExt.h'
p3454
g361
(g1773
g363
Ntp3455
Rp3456
(dp3457
g1777
g1785
sg1778
g1801
sg387
S'c:/marmalade/7.10/s3e/h/s3eExt.h'
p3458
sbsS'IwGeomFVec3.h'
p3459
g361
(g1773
g363
Ntp3460
Rp3461
(dp3462
g1777
g1460
sg1778
g1839
sg387
g1522
sbsS'streambuf'
p3463
g361
(g1773
g363
Ntp3464
Rp3465
(dp3466
g1777
g1785
sg1778
g1786
sg387
S'c:/marmalade/7.10/s3e/h/std/c++/streambuf'
p3467
sbsS's3eMetrics.h'
p3468
g361
(g1773
g363
Ntp3469
Rp3470
(dp3471
g1777
g1785
sg1778
g2012
sg387
S'c:/marmalade/7.10/s3e/h/ext/s3eMetrics.h'
p3472
sbsS'IwGxFont.h'
p3473
g361
(g1773
g363
Ntp3474
Rp3475
(dp3476
g1777
g1438
sg1778
g1779
sg387
g1436
sbsS's3eSecureStorage.h'
p3477
g361
(g1773
g363
Ntp3478
Rp3479
(dp3480
g1777
g1785
sg1778
g1801
sg387
S'c:/marmalade/7.10/s3e/h/s3eSecureStorage.h'
p3481
sbsS'string.h'
p3482
g361
(g1773
g363
Ntp3483
Rp3484
(dp3485
g1777
g1785
sg1778
g1807
sg387
S'c:/marmalade/7.10/s3e/h/std/string.h'
p3486
sbsS'IwResource.h'
p3487
g361
(g1773
g363
Ntp3488
Rp3489
(dp3490
g1777
g1624
sg1778
g1814
sg387
g1698
sbsS'IwGeomSVec2.h'
p3491
g361
(g1773
g363
Ntp3492
Rp3493
(dp3494
g1777
g1460
sg1778
g1839
sg387
g1506
sbsS'libjpeg.mkf'
p3495
g361
(g1773
g363
Ntp3496
Rp3497
(dp3498
g1777
g1769
sg1778
(lp3499
g1735
asg387
g1767
sbsS'IwGxDebug.h'
p3500
g361
(g1773
g363
Ntp3501
Rp3502
(dp3503
g1777
g1560
sg1778
g1919
sg387
g1567
sbsS'float.h'
p3504
g361
(g1773
g363
Ntp3505
Rp3506
(dp3507
g1777
g1785
sg1778
g1807
sg387
S'c:/marmalade/7.10/s3e/h/std/float.h'
p3508
sbsS'iomanip.h'
p3509
g361
(g1773
g363
Ntp3510
Rp3511
(dp3512
g1777
g1785
sg1778
g1786
sg387
S'c:/marmalade/7.10/s3e/h/std/c++/iomanip.h'
p3513
sbsS'IwKeymap.h'
p3514
g361
(g1773
g363
Ntp3515
Rp3516
(dp3517
g1777
g1624
sg1778
g1814
sg387
g1668
sbsS'IwDebug.h'
p3518
g361
(g1773
g363
Ntp3519
Rp3520
(dp3521
g1777
g1624
sg1778
g1814
sg387
g1694
sbsS's3eIOSBackgroundAudio.h'
p3522
g361
(g1773
g363
Ntp3523
Rp3524
(dp3525
g1777
g1785
sg1778
g2012
sg387
S'c:/marmalade/7.10/s3e/h/ext/s3eIOSBackgroundAudio.h'
p3526
sbsS'IwGeomMenu.h'
p3527
g361
(g1773
g363
Ntp3528
Rp3529
(dp3530
g1777
g1460
sg1778
g1839
sg387
g1514
sbsS'IwDivTable.h'
p3531
g361
(g1773
g363
Ntp3532
Rp3533
(dp3534
g1777
g1624
sg1778
g1814
sg387
g1622
sbsS'ctype.h'
p3535
g361
(g1773
g363
Ntp3536
Rp3537
(dp3538
g1777
g1785
sg1778
g1807
sg387
S'c:/marmalade/7.10/s3e/h/std/ctype.h'
p3539
sbsS'mainMenu.cpp'
p3540
g361
(g1773
g363
Ntp3541
Rp3542
(dp3543
g1777
g1336
sg1778
g1929
sg387
g1357
sbsS'IwResGroup.h'
p3544
g361
(g1773
g363
Ntp3545
Rp3546
(dp3547
g1777
g1536
sg1778
g2057
sg387
g1552
sbsS'signal_1.h'
p3548
g361
(g1773
g363
Ntp3549
Rp3550
(dp3551
g1777
g1785
sg1778
g1938
sg387
S'c:/marmalade/7.10/s3e/h/std/sys/signal.h'
p3552
sbsS'IwSoundData.cpp'
p3553
g361
(g1773
g363
Ntp3554
Rp3555
(dp3556
g1777
g1284
sg1778
g1825
sg387
g1315
sbsS'functional'
p3557
g361
(g1773
g363
Ntp3558
Rp3559
(dp3560
g1777
g1785
sg1778
g1786
sg387
S'c:/marmalade/7.10/s3e/h/std/c++/functional'
p3561
sbsS'shm.h'
p3562
g361
(g1773
g363
Ntp3563
Rp3564
(dp3565
g1777
g1785
sg1778
g1938
sg387
S'c:/marmalade/7.10/s3e/h/std/sys/shm.h'
p3566
sbsS'IwManagedList.h'
p3567
g361
(g1773
g363
Ntp3568
Rp3569
(dp3570
g1777
g1624
sg1778
g1814
sg387
g1646
sbsS'prctl.h'
p3571
g361
(g1773
g363
Ntp3572
Rp3573
(dp3574
g1777
g1785
sg1778
g1938
sg387
S'c:/marmalade/7.10/s3e/h/std/sys/prctl.h'
p3575
sbsS'IwGxStream.h'
p3576
g361
(g1773
g363
Ntp3577
Rp3578
(dp3579
g1777
g1560
sg1778
g1919
sg387
g1594
sbsS'temp_defines_debug.h'
p3580
g361
(g1773
g363
Ntp3581
Rp3582
(dp3583
g1777
(lp3584
sg1778
(lp3585
g3106
asg387
S'd:/Marmalade/Stage1/build_stage1_vc14/temp_defines_debug.h'
p3586
sbsS'utility'
p3587
g361
(g1773
g363
Ntp3588
Rp3589
(dp3590
g1777
g1785
sg1778
g1786
sg387
S'c:/marmalade/7.10/s3e/h/std/c++/utility'
p3591
sbsS'input.h'
p3592
g361
(g1773
g363
Ntp3593
Rp3594
(dp3595
g1777
g1336
sg1778
g1929
sg387
g1334
sbsS'IwGeomLegacy.h'
p3596
g361
(g1773
g363
Ntp3597
Rp3598
(dp3599
g1777
g1460
sg1778
g1839
sg387
g1496
sbsS'IwTPage.h'
p3600
g361
(g1773
g363
Ntp3601
Rp3602
(dp3603
g1777
g1560
sg1778
g1919
sg387
g1596
sbsS'IwResSerialise.h'
p3604
g361
(g1773
g363
Ntp3605
Rp3606
(dp3607
g1777
g1536
sg1778
g2057
sg387
g1545
sbsS's3eCrypto.h'
p3608
g361
(g1773
g363
Ntp3609
Rp3610
(dp3611
g1777
g1785
sg1778
g1801
sg387
S'c:/marmalade/7.10/s3e/h/s3eCrypto.h'
p3612
sbsS's3eKeyboard.h'
p3613
g361
(g1773
g363
Ntp3614
Rp3615
(dp3616
g1777
g1785
sg1778
g1801
sg387
S'c:/marmalade/7.10/s3e/h/s3eKeyboard.h'
p3617
sbsS'fcntl.h'
p3618
g361
(g1773
g363
Ntp3619
Rp3620
(dp3621
g1777
g1785
sg1778
g1807
sg387
S'c:/marmalade/7.10/s3e/h/std/fcntl.h'
p3622
sbsS'Iw2DSceneGraphCore.h'
p3623
g361
(g1773
g363
Ntp3624
Rp3625
(dp3626
g1777
g1617
sg1778
g2902
sg387
g1615
sbsS'memory.h'
p3627
g361
(g1773
g363
Ntp3628
Rp3629
(dp3630
g1777
g1785
sg1778
g1807
sg387
S'c:/marmalade/7.10/s3e/h/std/memory.h'
p3631
sbsS'pthread.h'
p3632
g361
(g1773
g363
Ntp3633
Rp3634
(dp3635
g1777
g1785
sg1778
g1807
sg387
S'c:/marmalade/7.10/s3e/h/std/pthread.h'
p3636
sbsS'IwGeomIntersect.h'
p3637
g361
(g1773
g363
Ntp3638
Rp3639
(dp3640
g1777
g1460
sg1778
g1839
sg387
g1463
sbsS'IwTextParserITX.h'
p3641
g361
(g1773
g363
Ntp3642
Rp3643
(dp3644
g1777
g1624
sg1778
g1814
sg387
g1684
sbsS'IwClip.inl'
p3645
g361
(g1773
g363
Ntp3646
Rp3647
(dp3648
g1777
g1560
sg1778
g1919
sg387
g1586
sbsS'Iw2DSceneGraph.cpp'
p3649
g361
(g1773
g363
Ntp3650
Rp3651
(dp3652
g1777
g1402
sg1778
g2099
sg387
g1400
sbsS'ostream.h'
p3653
g361
(g1773
g363
Ntp3654
Rp3655
(dp3656
g1777
g1785
sg1778
g1786
sg387
S'c:/marmalade/7.10/s3e/h/std/c++/ostream.h'
p3657
sbsS'stl_user_config.h'
p3658
g361
(g1773
g363
Ntp3659
Rp3660
(dp3661
g1777
g1785
sg1778
g1786
sg387
S'c:/marmalade/7.10/s3e/h/std/c++/stl_user_config.h'
p3662
sbsS'iwgx.mkf'
p3663
g361
(g1773
g363
Ntp3664
Rp3665
(dp3666
g1777
g1585
sg1778
g1919
sg387
g1583
sbsS'IwProfileMenu.h'
p3667
g361
(g1773
g363
Ntp3668
Rp3669
(dp3670
g1777
g1624
sg1778
g1814
sg387
g1692
sbsS'MarmaladeVersion.h'
p3671
g361
(g1773
g363
Ntp3672
Rp3673
(dp3674
g1777
g1785
sg1778
g1801
sg387
S'c:/marmalade/7.10/s3e/h/MarmaladeVersion.h'
p3675
sbsS'IwResHandlerWAV.h'
p3676
g361
(g1773
g363
Ntp3677
Rp3678
(dp3679
g1777
g1284
sg1778
g1825
sg387
g1291
sbsS'gl3platform.h'
p3680
g361
(g1773
g363
Ntp3681
Rp3682
(dp3683
g1777
g1785
sg1778
g2110
sg387
S'c:/marmalade/7.10/s3e/h/GLES3/gl3platform.h'
p3684
sbsS'ios.h'
p3685
g361
(g1773
g363
Ntp3686
Rp3687
(dp3688
g1777
g1785
sg1778
g1786
sg387
S'c:/marmalade/7.10/s3e/h/std/c++/ios.h'
p3689
sbsS'IwImageHelper.h'
p3690
g361
(g1773
g363
Ntp3691
Rp3692
(dp3693
g1777
g1624
sg1778
g1814
sg387
g1716
sbsS'hash_set'
p3694
g361
(g1773
g363
Ntp3695
Rp3696
(dp3697
g1777
g1785
sg1778
g1786
sg387
S'c:/marmalade/7.10/s3e/h/std/c++/hash_set'
p3698
sbsS'IwGeomFQuat.h'
p3699
g361
(g1773
g363
Ntp3700
Rp3701
(dp3702
g1777
g1460
sg1778
g1839
sg387
g1492
sbsS'jmorecfg.h'
p3703
g361
(g1773
g363
Ntp3704
Rp3705
(dp3706
g1777
g1740
sg1778
g1873
sg387
g1751
sbsS'eglplatform.h'
p3707
g361
(g1773
g363
Ntp3708
Rp3709
(dp3710
g1777
g1785
sg1778
g2142
sg387
S'c:/marmalade/7.10/s3e/h/EGL/eglplatform.h'
p3711
sbsS'cmath'
p3712
g361
(g1773
g363
Ntp3713
Rp3714
(dp3715
g1777
g1785
sg1778
g1786
sg387
S'c:/marmalade/7.10/s3e/h/std/c++/cmath'
p3716
sbsS'math_gcc.h'
p3717
g361
(g1773
g363
Ntp3718
Rp3719
(dp3720
g1777
g1785
sg1778
g1807
sg387
S'c:/marmalade/7.10/s3e/h/std/math_gcc.h'
p3721
sbsS's3eMemory.h'
p3722
g361
(g1773
g363
Ntp3723
Rp3724
(dp3725
g1777
g1785
sg1778
g1801
sg387
S'c:/marmalade/7.10/s3e/h/s3eMemory.h'
p3726
sbsS'strings.h'
p3727
g361
(g1773
g363
Ntp3728
Rp3729
(dp3730
g1777
g1785
sg1778
g1807
sg387
S'c:/marmalade/7.10/s3e/h/std/strings.h'
p3731
sbsS's3eFile.h'
p3732
g361
(g1773
g363
Ntp3733
Rp3734
(dp3735
g1777
g1785
sg1778
g1801
sg387
S'c:/marmalade/7.10/s3e/h/s3eFile.h'
p3736
sbsS'IwGxTypes.h'
p3737
g361
(g1773
g363
Ntp3738
Rp3739
(dp3740
g1777
g1560
sg1778
g1919
sg387
g1575
sbsS'cerrno'
p3741
g361
(g1773
g363
Ntp3742
Rp3743
(dp3744
g1777
g1785
sg1778
g1786
sg387
S'c:/marmalade/7.10/s3e/h/std/c++/cerrno'
p3745
sbsS'IwSoundManager.cpp'
p3746
g361
(g1773
g363
Ntp3747
Rp3748
(dp3749
g1777
g1284
sg1778
g1825
sg387
g1317
sbsS'soundengine.mkf'
p3750
g361
(g1773
g363
Ntp3751
Rp3752
(dp3753
g1777
g1327
sg1778
g1825
sg387
g1325
sbsS'resource.h'
p3754
g361
(g1773
g363
Ntp3755
Rp3756
(dp3757
g1777
g1785
sg1778
g1938
sg387
S'c:/marmalade/7.10/s3e/h/std/sys/resource.h'
p3758
sbsS'clocale'
p3759
g361
(g1773
g363
Ntp3760
Rp3761
(dp3762
g1777
g1785
sg1778
g1786
sg387
S'c:/marmalade/7.10/s3e/h/std/c++/clocale'
p3763
sbsS'pvrtextool.mkf'
p3764
g361
(g1773
g363
Ntp3765
Rp3766
(dp3767
g1777
g1390
sg1778
g2413
sg387
g1388
sbsS'csetjmp'
p3768
g361
(g1773
g363
Ntp3769
Rp3770
(dp3771
g1777
g1785
sg1778
g1786
sg387
S'c:/marmalade/7.10/s3e/h/std/c++/csetjmp'
p3772
sbsS'netdb.h'
p3773
g361
(g1773
g363
Ntp3774
Rp3775
(dp3776
g1777
g1785
sg1778
g1807
sg387
S'c:/marmalade/7.10/s3e/h/std/netdb.h'
p3777
sbsS's3eAndroidJNI.h'
p3778
g361
(g1773
g363
Ntp3779
Rp3780
(dp3781
g1777
g1785
sg1778
g2012
sg387
S'c:/marmalade/7.10/s3e/h/ext/s3eAndroidJNI.h'
p3782
sbsS'stdexcept'
p3783
g361
(g1773
g363
Ntp3784
Rp3785
(dp3786
g1777
g1785
sg1778
g1786
sg387
S'c:/marmalade/7.10/s3e/h/std/c++/stdexcept'
p3787
sbsS'math.h'
p3788
g361
(g1773
g363
Ntp3789
Rp3790
(dp3791
g1777
g1785
sg1778
g1807
sg387
S'c:/marmalade/7.10/s3e/h/std/math.h'
p3792
sbsS'stdbool.h'
p3793
g361
(g1773
g363
Ntp3794
Rp3795
(dp3796
g1777
g1785
sg1778
g1807
sg387
S'c:/marmalade/7.10/s3e/h/std/stdbool.h'
p3797
sbsS'uio.h'
p3798
g361
(g1773
g363
Ntp3799
Rp3800
(dp3801
g1777
g1785
sg1778
g1938
sg387
S'c:/marmalade/7.10/s3e/h/std/sys/uio.h'
p3802
sbsS'IwUncopyable.h'
p3803
g361
(g1773
g363
Ntp3804
Rp3805
(dp3806
g1777
g1624
sg1778
g1814
sg387
g1688
sbssS'juice_build_type'
p3807
g4
sS'tests'
p3808
(lp3809
sS'project_name'
p3810
g369
sS'root_file'
p3811
g145
sS'current_root'
p3812
S'd:/Marmalade/Stage1'
p3813
sS'dependencies'
p3814
(lp3815
sS'include_paths'
p3816
(lp3817
S'c:/marmalade/7.10/extensions/s3eamazonads/h'
p3818
aS'c:/marmalade/7.10/modules/iwutil/h'
p3819
aS'c:/marmalade/7.10/modules/third_party/libjpeg/h'
p3820
aS'c:/marmalade/7.10/modules/third_party/zlib/h'
p3821
aS'c:/marmalade/7.10/modules/third_party/libpng/h'
p3822
aS'c:/marmalade/7.10/modules/iw2d/h'
p3823
aS'c:/marmalade/7.10/modules/iwgx/h'
p3824
aS'c:/marmalade/7.10/modules/iwgl/h'
p3825
aS'c:/marmalade/7.10/modules/iwgeom/h'
p3826
aS'c:/marmalade/7.10/modules/iwresmanager/h'
p3827
aS'c:/marmalade/7.10/extensions/pvrtextool/h'
p3828
aS'c:/marmalade/7.10/modules/iwgxfont/h'
p3829
aS'c:/marmalade/7.10/modules/third_party/tiniconv/source'
p3830
aS'c:/marmalade/7.10/modules/iw2dscenegraph/h'
p3831
aS'c:/marmalade/7.10/modules/iw2dscenegraphcore/h'
p3832
aS'd:/marmalade/modules/soundengine/h'
p3833
aS'd:/marmalade/modules/soundengine/source'
p3834
aS'c:/marmalade/7.10/s3e/h'
p3835
aS'c:/marmalade/7.10/s3e/h/ext'
p3836
aS'c:/marmalade/7.10/s3e/h/std'
p3837
aS'c:/marmalade/7.10/s3e/h/std/c++'
p3838
aS'c:/marmalade/7.10/s3e/h/ext_legacy'
p3839
aS'c:/marmalade/7.10/s3e/h/legacy'
p3840
asS'weak_frameworks'
p3841
(lp3842
sS'extprojects'
p3843
(dp3844
sg692
(dp3845
g686
(lp3846
(S'd:/Marmalade/Stage1/data/textures'
p3847
S'textures'
p3848
I0
tp3849
a(S'd:/Marmalade/Stage1/data/audio'
p3850
S'audio'
p3851
I0
tp3852
assS'macro_types'
p3853
(dp3854
g615
I0
sg617
I1
sg618
I0
sg619
I0
sg620
I0
sg622
I0
sg623
I0
sg624
I0
sg625
I0
sg626
I0
sg627
I0
sg628
I0
sg630
I0
sg631
I0
sg632
I0
sg633
I0
sg634
I0
sg635
I0
sg636
I0
sg637
I0
sg638
I0
sg640
I0
sg641
I0
sg642
I0
sg643
I0
sg644
I0
sg645
I0
sg646
I0
sg647
I1
sg648
I0
sg649
I0
sg650
I0
sg651
I0
sg652
I01
sg653
I1
sg654
I0
sg655
I0
sg656
I0
sg657
I0
sg658
I0
sg659
I0
sg660
I0
ssS'commands'
p3855
(lp3856
sg694
(g1241
S'VC14'
p3857
S'X86ARMAARCH64'
p3858
tp3859
sS'build_libs'
p3860
(dp3861
sg696
g0
sS'frameworks'
p3862
(lp3863
sS'environ'
p3864
(dp3865
S'NACL_ROOT'
p3866
S'c:\\marmalade\\7.10/tools/gcc/x86_64/nacl_windows'
p3867
ssS'target_name_debug'
p3868
g369
sS'builders'
p3869
(dp3870
g686
(dp3871
S'.S'
p3872
(dp3873
S'gcc_aarch64'
p3874
(lp3875
S'.obj'
p3876
aS'echo AARCH64 Assembling(GCC) ${SOURCE}...'
p3877
aS'c:/marmalade/7.10/s3e\\gcc\\win32\\aarch64\\bin\\aarch64-none-elf-gcc -c -o ${TARGET} ${SOURCE}'
p3878
asS'rvct'
p3879
(lp3880
g3876
aS'echo ARM Assembling(RVCT) ${SOURCE}...'
p3881
aS'c:/marmalade/7.10/s3e\\rvct\\bin\\armasm -o ${TARGET} ${SOURCE}'
p3882
asg490
(lp3883
g3876
aS'echo ARM Assembling(GCC) ${SOURCE}...'
p3884
aS'c:/marmalade/7.10/s3e\\gcc\\win32\\arm\\bin\\arm-none-eabi-gcc -c -o ${TARGET} ${SOURCE}'
p3885
asS'ppu'
p3886
(lp3887
S'.a'
p3888
aS'echo PPU Assembling(SNC) ${SOURCE}...'
p3889
aS'c:/marmalade/7.10/s3e\\rvct\\bin\\armasm -o ${TARGET} ${SOURCE}'
p3890
assS'.s'
p3891
g3873
sS'.vp'
p3892
(lp3893
NaS'"C:/Marmalade/7.10/s3e/python/python.exe" "c:/marmalade/7.10/modules/iwgx/tools/compile_shaders.py" ${SOURCE}'
p3894
asssS'extproject_names'
p3895
(lp3896
sbtp3897
.