((dp0
S'arm_dbg_args'
p1
S'-via:"d:\\Marmalade\\Stage1\\build_stage1_vc14\\Stage1_vc14_arm_debug.via" -qemu'
p2
sS'game-icf'
p3
S''
p4
sS'dist'
p5
NsS'csproj'
p6
g4
sS'module_path_append'
p7
NsS'tizen_x86_dbg_exe'
p8
S'c:\\marmalade\\7.10\\s3e\\makefile_builder\\tool_launcher.exe'
p9
sS'global_path'
p10
S'd:\\marmalade'
p11
sS'system_path'
p12
S'c:\\marmalade\\7.10\\s3e\\makefile_builder'
p13
sS'android_x86_dbg_args'
p14
S'../../tools/DeployTool/DeployTool.exe --dir "d:\\Marmalade\\Stage1\\build_stage1_vc14"'
p15
sS'aarch64-arch-mod'
p16
g4
sS'no-emit'
p17
NsS'androidnativedebug'
p18
NsS'arm-float-abi'
p19
g4
sS'arm_rel_rtsm_args'
p20
S'-via:"d:\\Marmalade\\Stage1\\build_stage1_vc14\\Stage1_vc14_arm_release.via" -qemu'
p21
sS'amd64'
p22
NsS'line-width'
p23
I80
sS'gcc_dbg_args'
p24
S'-via:"d:\\Marmalade\\Stage1\\build_stage1_vc14\\Stage1_vc14_gcc_debug.via" -qemu'
p25
sS'sim-release-loader'
p26
NsS'android-x86'
p27
NsS'x86_dbg_exe'
p28
S'c:/marmalade/7.10/s3e\\win32\\s3e_simulator_debug.exe'
p29
sS'jflags'
p30
NsS'nacl_x86_64_rel_args'
p31
g15
sS'release'
p32
NsS'no-make'
p33
NsS'xcode-x86-build-settings'
p34
g4
sS'optimise-size'
p35
NsS'fat'
p36
NsS'output-name-debug'
p37
g4
sS'arm-fpu'
p38
g4
sS'proj_name'
p39
S'Stage1_vc14'
p40
sS'rvct-version'
p41
S'none'
p42
sS'compiler'
p43
g4
sS'execute'
p44
NsS'compile-static'
p45
NsS'nacl_x86_64_rel_exe'
p46
g9
sS'msvc-project'
p47
I01
sS'buildenv'
p48
S'VC14'
p49
sS'quick'
p50
NsS'module_path'
p51
(lp52
S'd:/Marmalade/modules'
p53
asS'mkf_default'
p54
S's3e-default.mkf'
p55
sS'use-release-std-libs'
p56
NsS'using_perforce'
p57
I00
sS'tizen-x86'
p58
NsS'mips-s3e'
p59
NsS's3e-api-lib-name'
p60
S's3e_api_iwgl'
p61
sS'ios-no-pic'
p62
NsS'shared-arm-lib'
p63
NsS'arm-cpu'
p64
g4
sS'compile-thumb'
p65
NsS'no-ide'
p66
NsS'msvc-version'
p67
S'6.0'
p68
sS'arm'
p69
NsS'nacl_x86_64_dbg_exe'
p70
g9
sS'builddir'
p71
g4
sS'compile-debug-as-release'
p72
I0
sS'arm-arch'
p73
g4
sS'brief'
p74
NsS'dll'
p75
NsS'buildenv-toolset'
p76
g4
sS'version'
p77
NsS'aarch64-arch'
p78
g4
sS'ccache'
p79
I0
sS'offline'
p80
NsS'ios-version'
p81
g4
sS'hub_data'
p82
g4
sS'fake_vc_call'
p83
I01
sS'jobs'
p84
I0
sS'linkflags'
p85
NsS'gcc_aarch64_dbg_args'
p86
g15
sS'nacl_x86_64_dbg_args'
p87
g15
sS'debug'
p88
NsS'xcode-build-order'
p89
g4
sS'gcc_aarch64_rel_rtsm_args'
p90
S'-via:"d:\\Marmalade\\Stage1\\build_stage1_vc14\\Stage1_vc14_gcc_aarch64_release.via" -qemu'
p91
sS'gcc_rel_rtsm_args'
p92
S'-via:"d:\\Marmalade\\Stage1\\build_stage1_vc14\\Stage1_vc14_gcc_release.via" -qemu'
p93
sS'done_defaults'
p94
I1
sS'path'
p95
(lp96
S'c:/marmalade/7.10/tools/gcc/x86_64/nacl_windows/toolchain/win_x86_glibc/bin'
p97
asS's3e-data-dir'
p98
S'd:/Marmalade/Stage1\\data'
p99
sS'enable-exceptions'
p100
NsS'osx-dll'
p101
NsS'extension'
p102
g4
sS'no-vc6'
p103
NsS'aarch64'
p104
NsS'win32-console'
p105
NsS'dist-format'
p106
g4
sS's3e-force-arch'
p107
NsS'dump_defines'
p108
NsS'use-shared-std-libs'
p109
NsS'gcc-version'
p110
g4
sS'x86_dbg_args'
p111
S'-via:"d:\\Marmalade\\Stage1\\build_stage1_vc14\\Stage1_vc14_debug.via"'
p112
sS'nacl'
p113
NsS'tizen_x86_dbg_args'
p114
g15
sS'arm-debugger'
p115
g4
sS'use_temp_extension'
p116
NsS'verbose'
p117
I0
sS'log'
p118
NsS'no-strip'
p119
NsS'rebuild'
p120
NsS'mips_dbg_args'
p121
g15
sS'win32-simulator-dll'
p122
NsS'strict'
p123
NsS'xcode-aarch64-build-settings'
p124
g4
sS'enable-global-path'
p125
NsS'gcc_aarch64_rel_args'
p126
g15
sS'cflags'
p127
NsS'dist-dir'
p128
g4
sS'xcode-arm-build-settings'
p129
g4
sS'disable-runtime-checks'
p130
NsS'csprojSDKRefs'
p131
g4
sS'tizen_x86_rel_exe'
p132
g9
sS'builddirroot'
p133
g4
sS'distcc'
p134
NsS'external-compiler'
p135
NsS'stripflags'
p136
NsS'retry-build'
p137
S'0'
p138
sS'preinclude'
p139
NsS'using_sdk'
p140
I01
sS'nologo'
p141
NsS'warn-level'
p142
I2
sS'mips_dbg_exe'
p143
g9
sS'mkb_in'
p144
S'd:/Marmalade/Stage1/Stage1.mkb'
p145
sS'no-objc-arc'
p146
NsS'app-icf'
p147
NsS'arm_dbg_exe'
p148
S'c:/marmalade/7.10/s3e\\bin\\armdebug.exe'
p149
sS'mdev-first'
p150
NsS'csprojDLLRef'
p151
NsS'tizen_x86_rel_args'
p152
g15
sS'android_x86_dbg_exe'
p153
g9
sS'naclx86_64'
p154
NsS'test-config'
p155
g4
sS'list-targets'
p156
NsS'arm_rel_exe'
p157
g9
sS'arm_rel_args'
p158
g15
sS'makedeps'
p159
NsS'android_x86_rel_exe'
p160
g9
sS'default-buildenv'
p161
S'vc14'
p162
sS'x86_rel_exe'
p163
S'c:/marmalade/7.10/s3e\\win32\\s3e_simulator_release.exe'
p164
sS'preprocess-java'
p165
NsS'mips_rel_args'
p166
g15
sS'test-assets'
p167
g4
sS'lib'
p168
NsS'non-interactive'
p169
NsS'global_argv'
p170
(lp171
S'C:\\Marmalade\\7.10\\s3e\\makefile_builder\\mkb.py'
p172
aS'd:/Marmalade/Stage1/Stage1.mkb'
p173
aS'--buildenv=VC14'
p174
aS'--fake-vc-call'
p175
aS'--default-buildenv=vc14'
p176
aS'--msvc-project'
p177
asS'make'
p178
NsS'optimise-speed'
p179
NsS'internal'
p180
NsS'enable-stdinc'
p181
NsS'defines'
p182
NsS'deploy-only'
p183
NsS'x86'
p184
NsS'deploy'
p185
g4
sS'objc-arc'
p186
NsS'x86_run_exe'
p187
S'c:/marmalade/7.10/s3e\\win32\\s3e_simulator_debug.exe'
p188
sS'cxxflags'
p189
NsS'x86_rel_args'
p190
S'-via:"d:\\Marmalade\\Stage1\\build_stage1_vc14\\Stage1_vc14_release.via"'
p191
sS'gcc_rel_args'
p192
g15
sS'mips'
p193
NsS'xcode-build-settings'
p194
g4
sS'csprojPostBuildActions'
p195
NsS'incredibuild'
p196
NsS'strict-compile'
p197
NsS'use-auto-subdirs'
p198
NsS'mips_rel_exe'
p199
g9
sS'android_x86_rel_args'
p200
g15
sS'no-distcc'
p201
NsS'deployargs'
p202
NsS'iosnativedebug'
p203
NsS'use_prebuilt'
p204
NsS'win-target-platform'
p205
g4
sS'mkf_in'
p206
(lp207
S'c:\\marmalade\\7.10\\s3e\\s3e-default.mkf'
p208
aS'c:\\marmalade\\7.10\\extensions\\s3eamazonads\\s3eamazonads.mkf'
p209
aS'c:\\marmalade\\7.10\\modules\\iwutil\\iwutil.mkf'
p210
aS'c:\\marmalade\\7.10\\modules\\third_party\\libjpeg\\libjpeg.mkf'
p211
aS'c:\\marmalade\\7.10\\modules\\third_party\\libpng\\libpng.mkf'
p212
aS'c:\\marmalade\\7.10\\modules\\third_party\\zlib\\zlib.mkf'
p213
aS'c:\\marmalade\\7.10\\platform_libs\\android\\amazon-ads-android-sdk\\amazon-ads-android-sdk.mkf'
p214
aS'c:\\marmalade\\7.10\\platform_libs\\iphone\\amazon-ads-ios-sdk\\amazon-ads-ios-sdk.mkf'
p215
aS'c:\\marmalade\\7.10\\modules\\iw2d\\iw2d.mkf'
p216
aS'c:\\marmalade\\7.10\\modules\\iwgx\\iwgx.mkf'
p217
aS'c:\\marmalade\\7.10\\modules\\iwgl\\iwgl.mkf'
p218
aS'c:\\marmalade\\7.10\\modules\\iwgeom\\iwgeom.mkf'
p219
aS'c:\\marmalade\\7.10\\modules\\iwresmanager\\iwresmanager.mkf'
p220
aS'c:\\marmalade\\7.10\\extensions\\pvrtextool\\pvrtextool.mkf'
p221
aS'c:\\marmalade\\7.10\\modules\\iwgxfont\\iwgxfont.mkf'
p222
aS'c:\\marmalade\\7.10\\modules\\third_party\\tiniconv\\tiniconv.mkf'
p223
aS'c:\\marmalade\\7.10\\examples\\marmaladeexampleresources\\marmaladeexampleresources.mkf'
p224
aS'd:\\marmalade\\modules\\soundengine\\soundengine.mkf'
p225
asS'strict-mkb'
p226
NsS'executeargs'
p227
NsS'clean'
p228
NsS'no-asm'
p229
NsS'output-name'
p230
g4
sS'no-modules'
p231
NsS'find_define'
p232
g4
s(dp233
S'c:\\marmalade\\7.10\\s3e\\makefile_builder\\templates\\aarch64_linker_script'
p234
F1443314056.0
sS'c:\\marmalade\\7.10\\s3e\\makefile_builder\\plugins\\xcode4_schememanagement.py'
p235
F1443314056.0
sS'c:\\marmalade\\7.10\\s3e\\makefile_builder\\templates\\wp81_csproj.pyc'
p236
F1443317622.0
sS'c:\\marmalade\\7.10\\s3e\\makefile_builder\\plugins\\s3e_win10.pyc'
p237
F1443317622.0
sS'c:\\marmalade\\7.10\\s3e\\makefile_builder\\mkb_launcher.exe'
p238
F1443315030.0
sS'c:\\marmalade\\7.10\\s3e\\makefile_builder\\templates\\win8_ext_csproj.pyc'
p239
F1443317622.0
sS'c:\\marmalade\\7.10\\s3e\\makefile_builder\\templates\\ws8_ext_sln.pyc'
p240
F1443317588.0
sS'c:\\marmalade\\7.10\\s3e\\makefile_builder\\templates\\ws81_sln.pyc'
p241
F1443317680.0
sS'c:\\marmalade\\7.10\\s3e\\makefile_builder\\templates\\xcode4_DeployTool.xcscheme'
p242
F1443314058.0
sS'c:\\marmalade\\7.10\\s3e\\makefile_builder\\plugins\\linux_vc14.pyc'
p243
F1443317654.0
sS'c:\\marmalade\\7.10\\s3e\\makefile_builder\\templates\\ws81_vcxproj.pyc'
p244
F1443317670.0
sS'c:\\marmalade\\7.10\\s3e\\makefile_builder\\plugins\\MakeEmitter.pyc'
p245
F1443317622.0
sS'c:\\marmalade\\7.10\\s3e\\makefile_builder\\templates\\win8_sln.pyc'
p246
F1443317610.0
sS'c:\\marmalade\\7.10\\s3e\\makefile_builder\\templates\\wp8_ext_csproj.pyc'
p247
F1443317704.0
sS'c:\\marmalade\\7.10\\s3e\\makefile_builder\\templates\\ws8_ext_csproj.pyc'
p248
F1443317594.0
sS'c:\\marmalade\\7.10\\s3e\\makefile_builder\\plugins\\deploy.pyc'
p249
F1443317634.0
sS'c:\\marmalade\\7.10\\s3e\\makefile_builder\\mkb_upstream.pyc'
p250
F1443317644.0
sS'c:\\marmalade\\7.10\\s3e\\makefile_builder\\templates\\wp81_vcxproj.pyc'
p251
F1443317612.0
sS'c:\\marmalade\\7.10\\s3e\\makefile_builder\\templates\\vc14_androidnative_ext_sln.pyc'
p252
F1443317640.0
sS'c:\\marmalade\\7.10\\s3e\\makefile_builder\\tool_launcher.exe'
p253
F1443315032.0
sS'c:\\marmalade\\7.10\\s3e\\makefile_builder\\plugins\\wp81_wp81.pyc'
p254
F1443317580.0
sS'c:\\marmalade\\7.10\\s3e\\makefile_builder\\templates\\qmake_user.py'
p255
F1443314056.0
sS'c:\\marmalade\\7.10\\s3e\\makefile_builder\\templates\\template.opt'
p256
F1443314056.0
sS'c:\\marmalade\\7.10\\s3e\\makefile_builder\\templates\\ws8_csproj_user.pyc'
p257
F1443317586.0
sS'c:\\marmalade\\7.10\\s3e\\makefile_builder\\plugins\\osx_scons.pyc'
p258
F1443317596.0
sS'c:\\marmalade\\7.10\\s3e\\makefile_builder\\plugins\\s3e_make.pyc'
p259
F1443317570.0
sS'c:\\marmalade\\7.10\\s3e\\makefile_builder\\templates\\win32_vcxproj.pyc'
p260
F1443317682.0
sS'c:\\marmalade\\7.10\\s3e\\makefile_builder\\templates\\win32_vcxproj_filters.pyc'
p261
F1443317594.0
sS'c:\\marmalade\\7.10\\s3e\\makefile_builder\\templates\\win32_dsp.pyc'
p262
F1443317690.0
sS'c:\\marmalade\\7.10\\s3e\\makefile_builder\\plugins\\linux_scons.pyc'
p263
F1443317710.0
sS'c:\\marmalade\\7.10\\s3e\\makefile_builder\\templates\\ws8_sln.pyc'
p264
F1443317680.0
sS'c:\\marmalade\\7.10\\s3e\\makefile_builder\\templates\\mips_linker_script'
p265
F1443314056.0
sS'c:\\marmalade\\7.10\\s3e\\makefile_builder\\templates\\wp8_vcxproj.pyc'
p266
F1443317624.0
sS'c:\\marmalade\\7.10\\s3e\\makefile_builder\\docs'
p267
F1446019855.710399
sS'c:\\marmalade\\7.10\\s3e\\makefile_builder\\templates\\xcode4_arm.xcscheme'
p268
F1443314058.0
sS'c:\\marmalade\\7.10\\s3e\\makefile_builder\\mkb_option.pyc'
p269
F1443317578.0
sS'c:\\marmalade\\7.10\\s3e\\makefile_builder\\templates\\xcode.py'
p270
F1443314058.0
sS'c:\\marmalade\\7.10\\s3e\\makefile_builder\\templates\\ws81_ext_sln.pyc'
p271
F1443317604.0
sS'c:\\marmalade\\7.10\\s3e\\makefile_builder\\templates\\win10_csproj.pyc'
p272
F1443317704.0
sS'c:\\marmalade\\7.10\\s3e\\makefile_builder\\templates\\wp8_csproj_user.pyc'
p273
F1443317658.0
sS'c:\\marmalade\\7.10\\s3e\\makefile_builder\\plugins\\s3e_wp8.pyc'
p274
F1443317680.0
sS'c:\\marmalade\\7.10\\s3e\\makefile_builder\\templates\\qmake.py'
p275
F1443314056.0
sS'c:\\marmalade\\7.10\\s3e\\makefile_builder\\templates\\win32_dsw.pyc'
p276
F1443317576.0
sS'c:\\marmalade\\7.10\\s3e\\makefile_builder\\templates\\wp8_sln.pyc'
p277
F1443317596.0
sS'c:\\marmalade\\7.10\\s3e\\makefile_builder\\templates\\vc6_opt.pyc'
p278
F1443317684.0
sS'c:\\marmalade\\7.10\\s3e\\makefile_builder\\plugins\\win10_win10.pyc'
p279
F1443317686.0
sS'c:\\marmalade\\7.10\\s3e\\makefile_builder\\templates\\linker_script'
p280
F1443314056.0
sS'c:\\marmalade\\7.10\\s3e\\makefile_builder\\templates\\win10_ext_sln.pyc'
p281
F1443317588.0
sS'c:\\marmalade\\7.10\\s3e\\makefile_builder\\plugins\\Win8Emitter.pyc'
p282
F1443317652.0
sS'c:\\marmalade\\7.10\\s3e\\makefile_builder\\nacl.mkf'
p283
F1443314056.0
sS'c:\\marmalade\\7.10\\s3e\\makefile_builder\\templates\\win10_ext_csproj.pyc'
p284
F1443317582.0
sS'c:\\marmalade\\7.10\\s3e\\makefile_builder\\templates\\wp81_ext_sln.pyc'
p285
F1443317610.0
sS'c:\\marmalade\\7.10\\s3e\\makefile_builder\\plugins\\s3e_wp81.pyc'
p286
F1443317678.0
sS'c:\\marmalade\\7.10\\s3e\\makefile_builder\\templates\\win8_csproj_user.pyc'
p287
F1443317596.0
sS'c:\\marmalade\\7.10\\s3e\\makefile_builder\\docs\\deployment_options.txt'
p288
F1443314056.0
sS'c:\\marmalade\\7.10\\s3e\\makefile_builder\\plugins\\s3e_vc14_androidnative.pyc'
p289
F1443317612.0
sS'c:\\marmalade\\7.10\\s3e\\makefile_builder\\templates\\wp8_csproj.pyc'
p290
F1443317690.0
sS'c:\\marmalade\\7.10\\s3e\\makefile_builder\\plugins\\VisualStudioEmitter.pyc'
p291
F1443317624.0
sS'c:\\marmalade\\7.10\\s3e\\makefile_builder\\mkb.py'
p292
F1443314056.0
sS'c:\\marmalade\\7.10\\s3e\\makefile_builder\\mkb_globals.pyc'
p293
F1443317674.0
sS'c:\\marmalade\\7.10\\s3e\\makefile_builder\\templates\\win10_sln.pyc'
p294
F1443317688.0
sS'c:\\marmalade\\7.10\\s3e\\makefile_builder\\plugins\\null.pyc'
p295
F1443317640.0
sS'c:\\marmalade\\7.10\\s3e\\makefile_builder\\docs\\mkb.defines.txt'
p296
F1443314056.0
sS'c:\\marmalade\\7.10\\s3e\\makefile_builder\\templates\\vc7_suo.pyc'
p297
F1443317678.0
sS'c:\\marmalade\\7.10\\s3e\\makefile_builder\\plugins\\S3EEmitter.pyc'
p298
F1443317686.0
sS'c:\\marmalade\\7.10\\s3e\\makefile_builder\\templates\\ws81_ext_csproj.pyc'
p299
F1443317660.0
sS'c:\\marmalade\\7.10\\s3e\\makefile_builder\\templates\\win8_vcxproj.pyc'
p300
F1443317706.0
sS'c:\\marmalade\\7.10\\s3e\\makefile_builder\\plugins\\s3e_vc6.pyc'
p301
F1443317594.0
sS'c:\\marmalade\\7.10\\s3e\\makefile_builder\\templates\\vc10_user.pyc'
p302
F1443317674.0
sS'c:\\marmalade\\7.10\\s3e\\makefile_builder\\docs\\deprecated.options.txt'
p303
F1443314056.0
sS'c:\\marmalade\\7.10\\s3e\\makefile_builder\\docs\\deprecated.defines.txt'
p304
F1443314056.0
sS'c:\\marmalade\\7.10\\s3e\\makefile_builder\\templates\\wp81_sln.pyc'
p305
F1443317634.0
sS'c:\\marmalade\\7.10\\s3e\\makefile_builder\\templates\\rvct_linker_script'
p306
F1443314056.0
sS'c:\\marmalade\\7.10\\s3e\\makefile_builder\\templates\\win10_vcxproj.pyc'
p307
F1443317618.0
sS'c:\\marmalade\\7.10\\s3e\\makefile_builder\\templates\\vc14_androidproj.pyc'
p308
F1443317640.0
sS'c:\\marmalade\\7.10\\s3e\\makefile_builder\\plugins\\XcodeEmitter.pyc'
p309
F1446052656.065168
sS'c:\\marmalade\\7.10\\s3e\\makefile_builder\\plugins\\s3e_scons.pyc'
p310
F1443317644.0
sS'c:\\marmalade\\7.10\\s3e\\makefile_builder\\templates\\win32_sln.pyc'
p311
F1443317704.0
sS'c:\\marmalade\\7.10\\s3e\\makefile_builder\\templates\\wp81_ext_csproj.pyc'
p312
F1443317684.0
sS'c:\\marmalade\\7.10\\s3e\\makefile_builder\\templates\\wp81_csproj_user.pyc'
p313
F1443317632.0
sS'c:\\marmalade\\7.10\\s3e\\makefile_builder\\plugins\\win8_utils.pyc'
p314
F1443317686.0
sS'c:\\marmalade\\7.10\\s3e\\makefile_builder\\plugins\\win32_vc6.pyc'
p315
F1443317604.0
sS'c:\\marmalade\\7.10\\s3e\\makefile_builder\\plugins\\ws8_ws8.pyc'
p316
F1443317676.0
sS'c:\\marmalade\\7.10\\s3e\\makefile_builder\\templates\\ws81_csproj.pyc'
p317
F1443317608.0
sS'c:\\marmalade\\7.10\\s3e\\makefile_builder\\plugins\\s3e_qmake.py'
p318
F1443314056.0
sS'c:\\marmalade\\7.10\\s3e\\makefile_builder\\plugins\\Emitter.pyc'
p319
F1443317632.0
sS'c:\\marmalade\\7.10\\s3e\\makefile_builder\\plugins\\wp8_wp8.pyc'
p320
F1443317650.0
sS'c:\\marmalade\\7.10\\s3e\\makefile_builder\\plugins\\s3e_win8.pyc'
p321
F1443317610.0
sS'c:\\marmalade\\7.10\\s3e\\makefile_builder\\templates\\gdb_start.txt'
p322
F1443314056.0
sS'c:\\marmalade\\7.10\\s3e\\makefile_builder\\templates\\Info.plist'
p323
F1443314056.0
sS'c:\\marmalade\\7.10\\s3e\\makefile_builder\\plugins\\vc7_utils.pyc'
p324
F1443317620.0
sS'c:\\marmalade\\7.10\\s3e\\makefile_builder\\templates\\vc8_user.pyc'
p325
F1443317650.0
sS'c:\\marmalade\\7.10\\s3e\\makefile_builder\\plugins\\s3e_ws81.pyc'
p326
F1443317688.0
sS'c:\\marmalade\\7.10\\s3e\\makefile_builder\\templates\\win10_csproj_user.pyc'
p327
F1443317618.0
sS'c:\\marmalade\\7.10\\s3e\\makefile_builder\\templates\\xcode_pbxuser.py'
p328
F1443314058.0
sS'c:\\marmalade\\7.10\\s3e\\makefile_builder\\mkb_parser.pyc'
p329
F1443317612.0
sS'c:\\marmalade\\7.10\\s3e\\makefile_builder\\templates\\ws8_vcxproj.pyc'
p330
F1443317696.0
sS'c:\\marmalade\\7.10\\s3e\\makefile_builder\\plugins\\xcode4_schememanagement.pyc'
p331
F1446052656.0711737
sS'c:\\marmalade\\7.10\\s3e\\makefile_builder\\templates'
p332
F1446019856.4123716
sS'c:\\marmalade\\7.10\\s3e\\makefile_builder\\templates\\xcode4.xcscheme'
p333
F1443314058.0
sS'c:\\marmalade\\7.10\\s3e\\makefile_builder\\plugins\\ws81_ws81.pyc'
p334
F1443317638.0
sS'c:\\marmalade\\7.10\\s3e\\makefile_builder\\docs\\parse_options.pyc'
p335
F1443317690.0
sS'c:\\marmalade\\7.10\\s3e\\makefile_builder\\templates\\template.suo'
p336
F1443314056.0
sS'c:\\marmalade\\7.10\\s3e\\makefile_builder\\docs\\options.txt'
p337
F1443314056.0
sS'c:\\marmalade\\7.10\\s3e\\makefile_builder\\mkb_util.pyc'
p338
F1443317616.0
sS'c:\\marmalade\\7.10\\s3e\\makefile_builder\\templates\\ws81_csproj_user.pyc'
p339
F1443317686.0
sS'c:\\marmalade\\7.10\\s3e\\makefile_builder\\plugins\\s3e_qmake.pyc'
p340
F1446052656.1569195
sS'c:\\marmalade\\7.10\\s3e\\makefile_builder\\templates\\win32_vcproj.pyc'
p341
F1443317676.0
sS'c:\\marmalade\\7.10\\s3e\\makefile_builder\\templates\\vc14_androidnative_vcxproj.pyc'
p342
F1443317580.0
sS'c:\\marmalade\\7.10\\s3e\\makefile_builder\\plugins\\s3e_xcode.pyc'
p343
F1446052656.1934426
sS'c:\\marmalade\\7.10\\s3e\\makefile_builder\\plugins\\s3e_xcode.py'
p344
F1443314056.0
sS'c:\\marmalade\\7.10\\s3e\\makefile_builder\\templates\\MainWindow.xib'
p345
F1443314056.0
sS'c:\\marmalade\\7.10\\s3e\\makefile_builder\\plugins'
p346
F1446052656.1919422
sS'c:\\marmalade\\7.10\\s3e\\makefile_builder\\templates\\win8_csproj.pyc'
p347
F1443317710.0
sS'c:\\marmalade\\7.10\\s3e\\makefile_builder\\plugins\\s3e_web.pyc'
p348
F1443317636.0
sS'c:\\marmalade\\7.10\\s3e\\makefile_builder\\templates\\make.py'
p349
F1443314056.0
sS'c:\\marmalade\\7.10\\s3e\\makefile_builder\\plugins\\s3e_ws8.pyc'
p350
F1443317684.0
sS'c:\\marmalade\\7.10\\s3e\\makefile_builder\\deployment.pyc'
p351
F1443317652.0
sS'c:\\marmalade\\7.10\\s3e\\makefile_builder\\plugins\\XcodeEmitter.py'
p352
F1443314056.0
sS'c:\\marmalade\\7.10\\s3e\\makefile_builder\\plugins\\vc6_utils.pyc'
p353
F1443317682.0
sS'c:\\marmalade\\7.10\\s3e\\makefile_builder\\plugins\\SConsEmitter.pyc'
p354
F1443317608.0
sS'c:\\marmalade\\7.10\\s3e\\makefile_builder\\templates\\ws8_csproj.pyc'
p355
F1443317670.0
sS'c:\\marmalade\\7.10\\s3e\\makefile_builder\\plugins\\java.pyc'
p356
F1443317626.0
sS'c:\\marmalade\\7.10\\s3e\\makefile_builder\\plugins\\osx_xcode.pyc'
p357
F1443317590.0
sS'c:\\marmalade\\7.10\\s3e\\makefile_builder\\templates\\vc14_androidnative_sln.pyc'
p358
F1443317622.0
sS'c:\\marmalade\\7.10\\s3e\\makefile_builder\\templates\\scons.pyc'
p359
F1443317700.0
sS'c:\\marmalade\\7.10\\s3e\\makefile_builder\\mkb_main.pyc'
p360
F1443317632.0
sS'c:\\marmalade\\7.10\\s3e\\makefile_builder\\plugins\\iphone.pyc'
p361
F1443317654.0
sccopy_reg
_reconstructor
p362
(cmkb_main
MkbFile
p363
c__builtin__
object
p364
Ntp365
Rp366
(dp367
g5
(lp368
sS'target_name'
p369
S'Stage1'
p370
sS'current_file'
p371
g145
sS'package_path'
p372
(lp373
S'C:\\Marmalade\\7.10\\examples\\MarmaladeExampleResources'
p374
asS'post_build'
p375
(lp376
(lp377
S'c:/marmalade/7.10/s3e/tools'
p378
aS'C:\\Marmalade\\7.10\\s3e\\python\\python.exe .\\process_map.py "$(TargetPath)"'
p379
aa(S'c:\\marmalade\\7.10\\s3e\\bin'
p380
S'"s3e_plink" -l "$(TargetPath)" '
p381
g184
tp382
asS'librarys'
p383
(lp384
g362
(cmkb_main
Library
p385
g364
Ntp386
Rp387
(dp388
S'name'
p389
S'vc12_compat.lib'
p390
sS'expand_name'
p391
I00
sS'include_spec_rvct_objs'
p392
(lp393
sS'include_all_objs'
p394
I00
sS'share_arm'
p395
I00
sS'arch'
p396
S'x86'
p397
sS'nodebug'
p398
I00
sg43
Nsbag362
(g385
g364
Ntp399
Rp400
(dp401
g389
S'iwutil'
p402
sg391
I01
sg392
(lp403
sg394
Nsg395
Nsg396
Nsg398
I00
sg43
Nsbag362
(g385
g364
Ntp404
Rp405
(dp406
g389
S'jpeg'
p407
sg391
I01
sg392
g403
sg394
Nsg395
Nsg396
Nsg398
I00
sg43
Nsbag362
(g385
g364
Ntp408
Rp409
(dp410
g389
S'z'
p411
sg391
I01
sg392
g403
sg394
Nsg395
Nsg396
Nsg398
I00
sg43
Nsbag362
(g385
g364
Ntp412
Rp413
(dp414
g389
S'png'
p415
sg391
I01
sg392
g403
sg394
Nsg395
Nsg396
Nsg398
I00
sg43
Nsbag362
(g385
g364
Ntp416
Rp417
(dp418
g389
S'iw2d'
p419
sg391
I01
sg392
g403
sg394
Nsg395
Nsg396
Nsg398
I00
sg43
Nsbag362
(g385
g364
Ntp420
Rp421
(dp422
g389
S'ATI_Compress_MT_VC7.lib'
p423
sg391
I00
sg392
g403
sg394
Nsg395
Nsg396
S'x86'
p424
sg398
I00
sg43
Nsbag362
(g385
g364
Ntp425
Rp426
(dp427
g389
S'iwgx'
p428
sg391
I01
sg392
g403
sg394
Nsg395
Nsg396
Nsg398
I00
sg43
Nsbag362
(g385
g364
Ntp429
Rp430
(dp431
g389
S'iwgl'
p432
sg391
I01
sg392
g403
sg394
Nsg395
Nsg396
Nsg398
I00
sg43
Nsbag362
(g385
g364
Ntp433
Rp434
(dp435
g389
S'iwgeom'
p436
sg391
I01
sg392
g403
sg394
Nsg395
Nsg396
Nsg398
I00
sg43
Nsbag362
(g385
g364
Ntp437
Rp438
(dp439
g389
S'iwresmanager'
p440
sg391
I01
sg392
g403
sg394
Nsg395
Nsg396
Nsg398
I00
sg43
Nsbag362
(g385
g364
Ntp441
Rp442
(dp443
g389
S'iwgxfont'
p444
sg391
I01
sg392
g403
sg394
Nsg395
Nsg396
Nsg398
I00
sg43
Nsbag362
(g385
g364
Ntp445
Rp446
(dp447
g389
S'tiniconv'
p448
sg391
I01
sg392
g403
sg394
Nsg395
Nsg396
Nsg398
I00
sg43
Nsbag362
(g385
g364
Ntp449
Rp450
(dp451
g389
S's3e_cpp'
p452
sg391
I01
sg392
g393
sg394
I00
sg395
I00
sg396
Nsg398
I00
sg43
Nsbag362
(g385
g364
Ntp453
Rp454
(dp455
g389
S's3e_vc14'
p456
sg391
I01
sg392
(lp457
S'iwcrt.o'
p458
asg394
I00
sg395
I00
sg396
S'x86'
p459
sg398
I00
sg43
Nsbag362
(g385
g364
Ntp460
Rp461
(dp462
g389
S's3e'
p463
sg391
I01
sg392
(lp464
g458
asg394
I00
sg395
I00
sg396
S'!x86'
p465
sg398
I00
sg43
Nsbag362
(g385
g364
Ntp466
Rp467
(dp468
g389
g61
sg391
I01
sg392
g393
sg394
I00
sg395
I00
sg396
S'x86'
p469
sg398
I01
sg43
Nsbag362
(g385
g364
Ntp470
Rp471
(dp472
g389
g61
sg391
I01
sg392
g393
sg394
I00
sg395
I00
sg396
S'!x86'
p473
sg398
I01
sg43
Nsbag362
(g385
g364
Ntp474
Rp475
(dp476
g389
S'stdc++'
p477
sg391
I00
sg392
g393
sg394
I00
sg395
I00
sg396
S'mips'
p478
sg398
I00
sg43
Nsbag362
(g385
g364
Ntp479
Rp480
(dp481
g389
S'c'
p482
sg391
I00
sg392
g393
sg394
I00
sg395
I00
sg396
S'mips'
p483
sg398
I00
sg43
Nsbag362
(g385
g364
Ntp484
Rp485
(dp486
g389
S'm'
p487
sg391
I00
sg392
g393
sg394
I00
sg395
I00
sg396
S'mips'
p488
sg398
I00
sg43
Nsbag362
(g385
g364
Ntp489
Rp490
(dp491
g389
S'gcc'
p492
sg391
I00
sg392
g393
sg394
I00
sg395
I00
sg396
S'mips'
p493
sg398
I00
sg43
Nsbag362
(g385
g364
Ntp494
Rp495
(dp496
g389
g492
sg391
I00
sg392
g393
sg394
I00
sg395
I00
sg396
S'naclx86_64'
p497
sg398
I00
sg43
Nsbag362
(g385
g364
Ntp498
Rp499
(dp500
g389
S'gcc_eh'
p501
sg391
I00
sg392
g393
sg394
I00
sg395
I00
sg396
S'naclx86_64'
p502
sg398
I00
sg43
Nsbag362
(g385
g364
Ntp503
Rp504
(dp505
g389
g482
sg391
I00
sg392
g393
sg394
I00
sg395
I00
sg396
S'naclx86_64'
p506
sg398
I00
sg43
Nsbag362
(g385
g364
Ntp507
Rp508
(dp509
g389
g487
sg391
I00
sg392
g393
sg394
I00
sg395
I00
sg396
S'naclx86_64'
p510
sg398
I00
sg43
Nsbag362
(g385
g364
Ntp511
Rp512
(dp513
g389
S'supc++'
p514
sg391
I00
sg392
g393
sg394
I00
sg395
I00
sg396
S'naclx86_64'
p515
sg398
I00
sg43
Nsbag362
(g385
g364
Ntp516
Rp517
(dp518
g389
S'supc++'
p519
sg391
I00
sg392
g393
sg394
I00
sg395
I00
sg396
S'gcc_x86_android'
p520
sg398
I00
sg43
Nsbag362
(g385
g364
Ntp521
Rp522
(dp523
g389
g482
sg391
I00
sg392
g393
sg394
I00
sg395
I00
sg396
S'gcc_x86_android'
p524
sg398
I00
sg43
Nsbag362
(g385
g364
Ntp525
Rp526
(dp527
g389
g487
sg391
I00
sg392
g393
sg394
I00
sg395
I00
sg396
S'gcc_x86_android'
p528
sg398
I00
sg43
Nsbag362
(g385
g364
Ntp529
Rp530
(dp531
g389
g492
sg391
I00
sg392
g393
sg394
I00
sg395
I00
sg396
S'gcc_x86_android'
p532
sg398
I00
sg43
Nsbag362
(g385
g364
Ntp533
Rp534
(dp535
g389
S'dl'
p536
sg391
I00
sg392
g393
sg394
I00
sg395
I00
sg396
S'gcc_x86_android'
p537
sg398
I00
sg43
Nsbag362
(g385
g364
Ntp538
Rp539
(dp540
g389
S'supc++'
p541
sg391
I00
sg392
g393
sg394
I00
sg395
I00
sg396
S'gcc_arm_android'
p542
sg398
I00
sg43
Nsbag362
(g385
g364
Ntp543
Rp544
(dp545
g389
g482
sg391
I00
sg392
g393
sg394
I00
sg395
I00
sg396
S'gcc_arm_android'
p546
sg398
I00
sg43
Nsbag362
(g385
g364
Ntp547
Rp548
(dp549
g389
g487
sg391
I00
sg392
g393
sg394
I00
sg395
I00
sg396
S'gcc_arm_android'
p550
sg398
I00
sg43
Nsbag362
(g385
g364
Ntp551
Rp552
(dp553
g389
g492
sg391
I00
sg392
g393
sg394
I00
sg395
I00
sg396
S'gcc_arm_android'
p554
sg398
I00
sg43
Nsbag362
(g385
g364
Ntp555
Rp556
(dp557
g389
g536
sg391
I00
sg392
g393
sg394
I00
sg395
I00
sg396
S'gcc_arm_android'
p558
sg398
I00
sg43
NsbasS'library_paths'
p559
(lp560
g362
(cmkb_main
LibraryPath
p561
g364
Ntp562
Rp563
(dp564
S'expand_path'
p565
I01
sg389
S'c:/marmalade/7.10/modules/iwutil'
p566
sbag362
(g561
g364
Ntp567
Rp568
(dp569
g565
I01
sg389
S'c:/marmalade/7.10/modules/third_party/libjpeg'
p570
sbag362
(g561
g364
Ntp571
Rp572
(dp573
g565
I01
sg389
S'c:/marmalade/7.10/modules/third_party/zlib'
p574
sbag362
(g561
g364
Ntp575
Rp576
(dp577
g565
I01
sg389
S'c:/marmalade/7.10/modules/third_party/libpng'
p578
sbag362
(g561
g364
Ntp579
Rp580
(dp581
g565
I01
sg389
S'c:/marmalade/7.10/modules/iw2d'
p582
sbag362
(g561
g364
Ntp583
Rp584
(dp585
g565
I00
sg389
S'c:/marmalade/7.10/modules/iwgx/atitools'
p586
sbag362
(g561
g364
Ntp587
Rp588
(dp589
g565
I01
sg389
S'c:/marmalade/7.10/modules/iwgx'
p590
sbag362
(g561
g364
Ntp591
Rp592
(dp593
g565
I01
sg389
S'c:/marmalade/7.10/modules/iwgl'
p594
sbag362
(g561
g364
Ntp595
Rp596
(dp597
g565
I01
sg389
S'c:/marmalade/7.10/modules/iwgeom'
p598
sbag362
(g561
g364
Ntp599
Rp600
(dp601
g565
I01
sg389
S'c:/marmalade/7.10/modules/iwresmanager'
p602
sbag362
(g561
g364
Ntp603
Rp604
(dp605
g565
I01
sg389
S'c:/marmalade/7.10/modules/iwgxfont'
p606
sbag362
(g561
g364
Ntp607
Rp608
(dp609
g565
I01
sg389
S'c:/marmalade/7.10/modules/third_party/tiniconv'
p610
sbag362
(g561
g364
Ntp611
Rp612
(dp613
g565
I01
sg389
S'c:/marmalade/7.10/s3e'
p614
sbasS'macros'
p615
(dp616
S'IW_TRACE_CHANNEL_AMAZONADS'
p617
S'1'
p618
sS'IW_USE_CALLSTACK'
p619
NsS'IW_PLATFORM_S3E'
p620
NsS'I3D_PLATFORM_S3E'
p621
NsS'__S3E__'
p622
NsS'IW_TRACE_CHANNEL_AMAZONADS_VERBOSE'
p623
S'2'
p624
sS'IW_MKF_LIBJPEG'
p625
NsS'I3D_OS_S3E'
p626
NsS'IW_MKF_PVRTEXTOOL'
p627
NsS'IW_MKF_AMAZON_ADS_IOS_SDK'
p628
NsS'IW_MKF_TINICONV'
p629
NsS'IW_APP_VERSION'
p630
S'"1.0"'
p631
sS'IW_MKF_IWRESMANAGER'
p632
NsS'IW_MKF_FREELICENSE'
p633
NsS'IW_MKF_S3EAMAZONADS'
p634
NsS'IW_MKF_IWUTIL'
p635
NsS'IW_MKF_IWGEOM'
p636
NsS'IW_MKF_AMAZON_ADS_ANDROID_SDK'
p637
NsS'IW_ASSERTION_CHANNEL_2D'
p638
g618
sS'IW_APP_NAME'
p639
S'"Stage1"'
p640
sS'IW_MKF_MARMALADEEXAMPLERESOURCES'
p641
NsS'IW_MKF_IWGXFONT'
p642
NsS'IW_MKF_ZLIB'
p643
NsS'IW_MKF_S3E_DEFAULT'
p644
NsS'IW_MKF_IWGX'
p645
NsS'IW_MKF_SOUNDENGINE'
p646
NsS'IW_ASSERTION_CHANNEL_AMAZONADS'
p647
g618
sS'IW_USE_ASSERTIONS'
p648
NsS'_CRT_SECURE_NO_DEPRECATE'
p649
NsS'IW_MKF_IWGL'
p650
NsS'IW_MKF_LIBPNG'
p651
NsS'IW_DEBUG'
p652
NsS'IW_USE_TRACING'
p653
NsS'IW_TRACE_CHANNEL_PVRTEXTOOL'
p654
g618
sS'IW_SDK'
p655
NsS'S3E_INCLUDE_LEGACY'
p656
NsS'IW_TRACE_CHANNEL_PVRTEXTOOL_VERBOSE'
p657
g624
sS'IW_MKF_IW2D'
p658
NsS'IW_ASSERTION_CHANNEL_PVRTEXTOOL'
p659
g618
ssS'done_warnings'
p660
(dp661
sS'subprojects'
p662
(dp663
g213
S'zlib'
p664
sg223
S'tiniconv'
p665
sg208
S's3e-default.mkf'
p666
sg221
S'PVRTexTool'
p667
sg220
S'iwresmanager'
p668
sg215
S'amazon-ads-ios-sdk'
p669
sg219
S'iwgeom'
p670
sg214
S'amazon-ads-android-sdk'
p671
sg217
S'iwgx'
p672
sg212
S'libpng'
p673
sg210
S'iwutil'
p674
sg209
S's3eAmazonAds'
p675
sg224
S'MarmaladeExampleResources'
p676
sg211
S'libjpeg'
p677
sg222
S'iwgxfont'
p678
sg225
S'SoundEngine'
p679
sg218
S'iwgl'
p680
sg216
S'iw2d'
p681
ssS'deployments'
p682
(dp683
S'Default'
p684
g362
(cdeployment
Deployment
p685
g364
Ntp686
Rp687
(dp688
S'got_version'
p689
I0
sS'assets'
p690
g684
sS'mkb'
p691
g366
sS'target'
p692
Nsg396
(lp693
sS'options'
p694
(dp695
S'iphone-link-lib'
p696
(lp697
S's3eAmazonAds'
p698
asS'game-icf'
p699
NsS'android-tm'
p700
NsS'winmobile-icon32'
p701
NsS'ws8-logo-image150x150'
p702
NsS'wp81-logo-image150x150'
p703
NsS'win10-product-name'
p704
NsS'android-keystore'
p705
NsS'osx-ext-dll'
p706
(lp707
S'c:/marmalade/7.10/extensions/pvrtextool/lib/osx/libPVRTexTool.dylib'
p708
asS'iphone-provisioning-profile'
p709
NsS'win10-identity-name'
p710
NsS'ws8-splash-screen-image620x300'
p711
NsS'wp81-extra-pri'
p712
(lp713
sS'ws8-ext-capabilities'
p714
(lp715
sS'android-icon-hdpi'
p716
NsS'iphone-ipad-only'
p717
NsS'iphone-splash-full-orient'
p718
NsS'wp8-tile-fliptemplate-supports-large'
p719
NsS'iphone-show-status-bar'
p720
NsS'roku-requires-mkv'
p721
NsS'long-caption'
p722
NsS'android-pkgname'
p723
NsS'ws8-ext-native-only-dll'
p724
(lp725
sS'wp81-publisher-display-name'
p726
NsS'win10-logo-image150x150'
p727
NsS'blackberry-permissions-read-device-identifying-information'
p728
NsS'ws81-certificate-end-date'
p729
NsS'psp-dlgcontentid'
p730
NsS'android-version-code'
p731
NsS'win10-ext-uap-capabilities'
p732
(lp733
sS'iphone-minimum-ios-version'
p734
NsS'target-folder'
p735
NsS'tizen-dist1-CA-path'
p736
NsS'symbian-icon2-format'
p737
NsS'tizen-author-key'
p738
NsS'firefoxos-icon-128X128'
p739
NsS'iphone-region'
p740
NsS'uiq3-icon3-mask'
p741
NsS'brew-encoding'
p742
NsS'version'
p743
NsS'nds-initialcode'
p744
NsS'win10-ext-native-dll'
p745
(lp746
sS'iphone-persistent-wifi'
p747
NsS'psp-snd0'
p748
NsS'roku-icon-focus-hd'
p749
NsS'osx-appid'
p750
NsS'ws81-ext-native-only-dll'
p751
(lp752
sS'winmobile-install-folder'
p753
NsS'android-external-res'
p754
(lp755
sS'ws8-product-version'
p756
NsS'brew-priviledges'
p757
NsS'iphone-icon-ipad-search'
p758
NsS'iphone-icon-ipad'
p759
NsS'iphone-skip-icon-generation'
p760
NsS'nacl-icon-128X128'
p761
NsS'roku-hidden'
p762
NsS'psp-titlename'
p763
NsS'wp81-product-version'
p764
NsS'symbian-icon1-mask'
p765
NsS'psp-parentallevel'
p766
NsS'iphone-launch-storyboard'
p767
NsS'splashscreen-use-all'
p768
NsS'symbian-disable-ecompxl'
p769
NsS'splashscreen-auto-onblack'
p770
NsS'iphone-icon-dir'
p771
NsS'iphone-icon-extra'
p772
NsS'win32-ext-dll'
p773
(lp774
S'c:/marmalade/7.10/extensions/pvrtextool/lib/win32/PVRTexTool.dll'
p775
asS'iphone-development-key'
p776
NsS'winmobile-icon48'
p777
NsS'android-unsigned'
p778
NsS'osx-appstore-category'
p779
NsS'version-revision'
p780
NsS'roku-icon-focus-sd'
p781
NsS'ws81-product-version'
p782
NsS'winmobile-png90'
p783
NsS'iphone-icon-ipad-high-res'
p784
NsS'iphone-disable-ipad'
p785
NsS'win10-ext-sdk-ref'
p786
(lp787
sS'ws81-splash-screen-background'
p788
NsS'wp8-ext-capabilities'
p789
(lp790
sS'brew-icon-large'
p791
NsS'symbian-icon1-mask-black'
p792
NsS'ws8-extra-res'
p793
(lp794
sS'iphone-bundle-localisations'
p795
NsS'winmobile-png60'
p796
NsS'blackberry-permissions-access-shared'
p797
NsS'blackberry-author'
p798
NsS'android-icon-xxxhdpi'
p799
NsS'olddeploytoolstyle'
p800
NsS'android_icon_gallery'
p801
NsS'win10-distribution-pfx-password'
p802
NsS'wp81-splash-screen-background'
p803
NsS'wp8-exclude-720p'
p804
NsS'iphone-info-plist'
p805
NsS'ws81-ext-managed-dll'
p806
(lp807
sS'playbook-cskpass'
p808
NsS'win10-description'
p809
NsS'ws8-distribution-pfx-password'
p810
NsS'symbian-key'
p811
NsS'app-icf'
p812
NsS'blackberry-storepass'
p813
NsS'wp8-tile-fliptemplate-back-title'
p814
NsS'brew-compress-loader'
p815
NsS'iphone-testflight'
p816
NsS'win32-pref-windowposy'
p817
NsS'win32-pref-windowposx'
p818
NsS'roku-requires-audiometadata'
p819
NsS'wp8-exclude-low-mem'
p820
NsS'android-min-sdk-version'
p821
NsS'wp8-tile-fliptemplate-title'
p822
NsS'iphone-icon-ipad-search-high-res'
p823
NsS'iphone-link-libdir'
p824
(lp825
S'c:/marmalade/7.10/extensions/s3eamazonads/lib/iphone'
p826
asS'wp81-ext-capabilities'
p827
(lp828
sS'blackberry-permissions-read-geolocation'
p829
NsS'win10-splash-screen-image620x300'
p830
NsS'ws81-ext-device-capabilities'
p831
(lp832
sS'tizen-signed'
p833
NsS'android-extra-application-manifest'
p834
(lp835
S'c:/marmalade/7.10/extensions/s3eamazonads/source/android/ExtraAppManifests.xml'
p836
asS'android-x86'
p837
NsS'win10-extra-res'
p838
(lp839
sS'ws8-ext-native-dll'
p840
(lp841
sS'symbian-icon2-mask'
p842
NsS'iphone-launch-extra'
p843
NsS'webos-memory'
p844
NsS'android-keypass'
p845
NsS'name'
p846
NsS'uiq3-icon2-format'
p847
NsS'roku-splash-screen-sd'
p848
NsS'auto-derbh'
p849
NsS'roku-icon-side-sd'
p850
NsS'android-external-assets'
p851
(lp852
sS'nds-publicsavedatasize'
p853
NsS'splashscreen'
p854
S'c:/marmalade/7.10/examples/marmaladeexampleresources/resources/splashscreens'
p855
sS'wp8-product-id'
p856
NsS'iphone-icon-settings-high-res'
p857
NsS'android-manifest'
p858
NsS'ws81-splash-screen-image620x300'
p859
NsS'wp81-product-name'
p860
NsS's3e-compression'
p861
NsS'tizen-author-password'
p862
NsS'wp8-tile-fliptemplate-back-content'
p863
NsS'blackberry-extra-descriptor'
p864
(lp865
sS'android-java-source-version'
p866
NsS'symbian-icon1'
p867
NsS'symbian-icon2'
p868
NsS'nds-makercode'
p869
NsS'android-extra-styles-file'
p870
NsS'android-ext-target-sdk-version'
p871
(lp872
I17
asS'wp81-publisher-id'
p873
NsS'nds-bannertitle-jp'
p874
NsS'wp81-logo-image44x44'
p875
NsS'osx-sign-for-store'
p876
NsS'symbian7-uid'
p877
NsS'wp8-tile-fliptemplate-large-back-content'
p878
NsS'wp81-phone-publisher-id'
p879
NsS'nds-bannertitle-cn'
p880
NsS'iphone-distribution-key'
p881
NsS'win10-phone-publisher-id'
p882
NsS'android-icon-gallery'
p883
NsS'blackberry-keystore'
p884
NsS'iphone-nosign'
p885
NsS'caption'
p886
NsS'nacl-permissions'
p887
NsS'android-extra-manifest'
p888
(lp889
sS'wp81-ext-sdk-ref'
p890
(lp891
sS'android-icon-xxhdpi'
p892
NsS'version-minor'
p893
NsS'iphone-skip-launch-generation'
p894
NsS'iphone-link-libdirs'
p895
(lp896
sS'iphone-icon-large'
p897
NsS'symbian-keypwd'
p898
NsS'symbian8-uid'
p899
NsS'symbian-cert-key'
p900
NsS'winmobile-ampd-part-number'
p901
NsS'arch'
p902
NsS'nds-romheadertemplate'
p903
NsS'webos-icon'
p904
NsS'wp81-ext-device-capabilities'
p905
(lp906
sS'psp-dlgprotectdocument'
p907
NsS'ws8-splash-screen-background'
p908
NsS'android-icon-mdpi'
p909
NsS'android-sdk-build-tools-version'
p910
NsS'nds-icon'
p911
NsS'ws8-custom-manifest-fill'
p912
NsS'iphone-development-cert'
p913
NsS'symbian-icon2-mask-black'
p914
NsS'blackberry-phone-icon'
p915
NsS'iphone-enable-4inch-retina'
p916
NsS'ws8-custom-manifest'
p917
NsS'version-major'
p918
NsS'wp8-genre-isgame'
p919
NsS'uiq3-uid'
p920
NsS'iphone-splash-retina-generate'
p921
NsS'tizen-hw-acceleration'
p922
NsS'iphone_bundle_localisations'
p923
NsS'tizen-dist1-key'
p924
NsS'wp81-custom-manifest-fill'
p925
NsS'wp8-custom-manifest'
p926
NsS'nds-bannertitle-ge'
p927
NsS'iphone-sign-for-distribution'
p928
NsS'wp8-tile-fliptemplate-medium-back-image'
p929
NsS'wp8-publisher-id'
p930
NsS'icon'
p931
S'c:/marmalade/7.10/examples/marmaladeexampleresources/resources/icons'
p932
sS'android-target-sdk-version'
p933
NsS'win10-ext-capabilities'
p934
(lp935
sS'wp8-exclude-wxga'
p936
NsS'wp81-identity-name'
p937
NsS'uiq3-icon2-mask'
p938
NsS'iphone-splashscreen-portrait'
p939
NsS'iphone-icon-high-res'
p940
NsS'ws81-distribution-pfx-password'
p941
NsS'playbook-author'
p942
NsS'wp8-custom-manifest-fill'
p943
NsS'linux-ext-lib'
p944
(lp945
sS'blackberry-permissions-access-internet'
p946
NsS'lgtv-use-drm'
p947
NsS'win10-splash-screen-image480x800'
p948
NsS'symbian-platsecflags'
p949
NsS'ws8-description'
p950
NsS'blackberry-playbook-icon'
p951
NsS'win10-distribution-cer'
p952
NsS'copyright'
p953
NsS'winmobile-cab-compress'
p954
NsS'win32-gles-directory'
p955
NsS'wp8-author'
p956
NsS'android-ext-min-sdk-version'
p957
(lp958
I4
asS'iphone-uiviewcontroller-based-status-bar'
p959
NsS'ws81-logo-image150x150'
p960
NsS'osx-signing-identity-app'
p961
NsS'tizen-project-url'
p962
NsS'symbian-icon-svg'
p963
NsS'android-aliasname'
p964
NsS'psp-dlgmanual'
p965
NsS'brew-uid'
p966
NsS'wp81-ext-native-only-dll'
p967
(lp968
sS'symbian-locationsupport'
p969
NsS'wp81-logo-image50x50'
p970
NsS'ws8-ext-managed-dll'
p971
(lp972
sS'nds-bannertitle-it'
p973
NsS'ws81-custom-manifest-fill'
p974
NsS'ws8-ext-sdk-manifest-part'
p975
(lp976
sS'uiq3-icon1-mask'
p977
NsS'winmobile-icon16'
p978
NsS'ws8-product-name'
p979
NsS'blackberry-cskpass'
p980
NsS'winmobile-start-menu-folder'
p981
NsS'brew-clsid'
p982
NsS'roku-requires-bluetooth'
p983
NsS'iphone-default-development-profile'
p984
NsS'ws8-ext-device-capabilities'
p985
(lp986
sS'blackberry-permissions-use-camera'
p987
NsS'ws81-extra-pri'
p988
(lp989
sS'iphone-prerendered-icon'
p990
NsS'iphone-appid'
p991
NsS'ws8-identity-name'
p992
NsS'tizen-dist2-CA-path'
p993
NsS'android-external-jars'
p994
(lp995
S'c:/marmalade/7.10/platform_libs/android/amazon-ads-android-sdk/third_party/lib/amazon-ads-5.5.149.jar'
p996
aS'c:/marmalade/7.10/extensions/s3eamazonads/lib/android/s3eAmazonAds.jar'
p997
asS'winmobile-icon64'
p998
NsS'blackberry-permissions-post-notification'
p999
NsS'winmobile-setup-dll'
p1000
NsS'firefoxos-manifest'
p1001
NsS'win8-winrt-extra-res'
p1002
(lp1003
sS'wp81-ext-sdk-manifest-part'
p1004
(lp1005
sS'symbian9-uid'
p1006
NsS'iphone-icon-ipad-ios7'
p1007
NsS'winmobile-trace-file'
p1008
NsS'roku-splash-color'
p1009
NsS'psp-appversion'
p1010
NsS'android-java-target-version'
p1011
NsS'ws8-publisher-id'
p1012
NsS'win10-splash-screen-background'
p1013
NsS'win10-product-id'
p1014
NsS'win10-logo-image30x30'
p1015
NsS'winmobile-png45'
p1016
NsS'wp81-extra-res'
p1017
(lp1018
sS'android-storepass'
p1019
NsS'nacl-icon-16X16'
p1020
NsS'osx-signing-identity-inst'
p1021
NsS'android-custom-activity'
p1022
NsS'psp-discversion'
p1023
NsS'wp81-ext-managed-dll'
p1024
(lp1025
sS'nacl-clear-user-data'
p1026
NsS'psp-copyright'
p1027
NsS'win10-ext-managed-dll'
p1028
(lp1029
sS'win10-logo-image50x50'
p1030
NsS'embed-icf'
p1031
NsS'tizen-manifest'
p1032
NsS'osx-icon'
p1033
NsS'webos-appinfo'
p1034
NsS'psp-dlghealthwarning'
p1035
NsS'webos-appid'
p1036
NsS'roku-icon-side-hd'
p1037
NsS'iphone-icon-ipad-search-high-res-ios7'
p1038
NsS'iphone-extra-plist'
p1039
(lp1040
sS'ws81-ext-sdk-manifest-part'
p1041
(lp1042
sS'loader_name_prefix'
p1043
NsS'iphone-launch-dir'
p1044
S'c:/marmalade/7.10/examples/marmaladeexampleresources/resources/splashscreens/ios'
p1045
sS'nds-titlename'
p1046
NsS'ws81-logo-image50x50'
p1047
NsS'wp81-custom-manifest'
p1048
NsS'osx-entitlements-plist'
p1049
NsS'win10-product-version'
p1050
NsS'psp-dlgicon0'
p1051
NsS'winmobile-nouninstall'
p1052
NsS'psp-discid'
p1053
NsS'tizen-dist2-password'
p1054
NsS'android-supports-gl-texture'
p1055
(lp1056
sS'ws8-ext-sdk-ref'
p1057
(lp1058
sS'iphone-extra-string'
p1059
(lp1060
sS'version-string'
p1061
NsS'iphone-icon-high-res-ios7'
p1062
NsS'ws8-certificate-end-date'
p1063
NsS'nacl-skip-zip'
p1064
NsS'win10-custom-manifest'
p1065
NsS'tizen-so'
p1066
(lp1067
sS'win10-logo-image44x44'
p1068
NsS'win10-custom-manifest-fill'
p1069
NsS'wp8-tile-fliptemplate-small-image'
p1070
NsS'win10-certificate-end-date'
p1071
NsS'playbook-authorid'
p1072
NsS'win10-publisher-id'
p1073
NsS'iphone-signing-identity'
p1074
NsS'roku-persist-quota'
p1075
NsS'nds-bannertitle-fr'
p1076
NsS'ws8-distribution-pfx'
p1077
NsS'ws8-publisher-display-name'
p1078
NsS'brew-icon-small'
p1079
NsS'psp-dlgpic2'
p1080
NsS'psp-dlgpic0'
p1081
NsS'win10-phone-product-id'
p1082
NsS'psp-pic0'
p1083
NsS'psp-pic1'
p1084
NsS'win32-pref-windowtitle'
p1085
NsS'psp-icon0'
p1086
NsS'psp-icon1'
p1087
NsS'ws81-identity-name'
p1088
NsS'win10-distribution-pfx'
p1089
NsS'winmobile-icon'
p1090
NsS'iphone-no-splash'
p1091
NsS'iphone-splash'
p1092
NsS'iphone-app-fonts'
p1093
NsS'wp8-ext-native-dll'
p1094
(lp1095
sS'wp81-splash-screen-image480x800'
p1096
NsS'ws81-distribution-cer'
p1097
NsS'win10-ext-sdk-manifest-part'
p1098
(lp1099
sS'uiq3-icon2'
p1100
NsS'uiq3-icon3'
p1101
NsS'uiq3-icon1'
p1102
NsS'uiq3-icon1-format'
p1103
NsS'ws8-logo-image50x50'
p1104
NsS'iphone-info-plist-override'
p1105
NsS'symbian-run-on-install'
p1106
NsS'wp81-description'
p1107
NsS'ws81-publisher-display-name'
p1108
NsS'android-version-name'
p1109
NsS'firefoxos-xulrunner'
p1110
NsS'symbian-soundrecordsupport'
p1111
NsS'iphone-backgroundmode-audio'
p1112
NsS'nds-bannertitle-sp'
p1113
NsS'win10-extra-pri'
p1114
(lp1115
sS'psp-producer'
p1116
NsS'iphone-apple-wwdr-cert'
p1117
NsS'android-icon-nonstandard'
p1118
NsS'win32-pref-processtitle'
p1119
NsS'android-icon-xhdpi'
p1120
NsS'nds-bannertitle-hn'
p1121
NsS'tizen-dist2-key'
p1122
NsS'brew-depends'
p1123
NsS'ws81-custom-manifest'
p1124
NsS'iphone-allow-launch-rotation'
p1125
NsS'brew-mif'
p1126
NsS'iphone-icon-ipad-search-ios7'
p1127
NsS'brew-icon-medium'
p1128
NsS'iphone-bundle-url-name'
p1129
NsS'wp8-tile-fliptemplate-large-front-image'
p1130
NsS'tizen-dist2-CA-root-path'
p1131
NsS'ws81-description'
p1132
NsS'uiq3-icon3-format'
p1133
NsS'win10-publisher-display-name'
p1134
NsS'ws81-logo-image30x30'
p1135
NsS'win10-ext-device-capabilities'
p1136
(lp1137
sS'win8-phone-extra-res'
p1138
(lp1139
sS'iphone-signing-host'
p1140
NsS'tizen-icon'
p1141
NsS'osx-info-plist'
p1142
NsS'symbian-icon1-format'
p1143
NsS'ws81-distribution-pfx'
p1144
NsS'win32-aux-dll'
p1145
(lp1146
sS'blackberry-authorid'
p1147
NsS'ws81-publisher-id'
p1148
NsS'win8-store-extra-res'
p1149
(lp1150
sS'wp8-description'
p1151
NsS'iphone-link-opts'
p1152
(lp1153
S'-Fc:/marmalade/7.10/platform_libs/iphone/amazon-ads-ios-sdk/third_party/Ads -framework AmazonAd'
p1154
aS'-weak_framework AdSupport -weak_framework CoreLocation -weak_framework SystemConfiguration'
p1155
aS'-weak_framework CoreTelephony -weak_framework MediaPlayer'
p1156
aS'-weak_framework EventKit -weak_framework EventKitUI'
p1157
asS'ws81-ext-sdk-ref'
p1158
(lp1159
sS'roku-splash-min-time'
p1160
NsS'wp8-tile-fliptemplate-medium-front-image'
p1161
NsS'iphone-disable-launch-images'
p1162
NsS'android-sdk-platform-version'
p1163
NsS'provider'
p1164
NsS'playbook-keystore'
p1165
NsS'tizen-appid'
p1166
NsS'wp8-extra-res'
p1167
(lp1168
sS'symbian-osexecsupport'
p1169
NsS'android-install-location'
p1170
NsS'nds-privatesavedatasize'
p1171
NsS'iphone-disable-testflight'
p1172
NsS'playbook-storepass'
p1173
NsS'android-icon-ldpi'
p1174
NsS'manufacturer'
p1175
NsS'itunes-artwork'
p1176
NsS'iphone-extra-sections'
p1177
NsS'ws81-product-name'
p1178
NsS'ws81-ext-native-dll'
p1179
(lp1180
sS'ws8-extra-pri'
p1181
(lp1182
sS'win32-icon'
p1183
NsS'ws8-logo-image30x30'
p1184
NsS'wp8-ext-managed-dll'
p1185
(lp1186
sS'iphone-splashscreen-landscape'
p1187
NsS'symbian-maxheapsize'
p1188
NsS'android-extra-packages'
p1189
(lp1190
sS'priv-sign-key'
p1191
NsS'networking'
p1192
NsS'android-icon'
p1193
NsS'iphone-icon-settings'
p1194
NsS'nacl-manifest'
p1195
NsS'wp81-phone-product-id'
p1196
NsS'firefoxos-icon-60X60'
p1197
NsS'iphone-distribution-cert'
p1198
NsS'android_extra_strings'
p1199
NsS'nds-bannertitle-en'
p1200
NsS'blackberry-permissions-record-audio'
p1201
NsS'android-so'
p1202
(lp1203
S'c:/marmalade/7.10/extensions/s3eamazonads/lib/android/libs3eAmazonAds.so'
p1204
asS'wp8-higher-mem'
p1205
NsS'wp8-ext-sdk-ref'
p1206
(lp1207
sS'wp8-fast-resume-mode'
p1208
NsS'roku-splash-screen-hd'
p1209
NsS'iphone-bundle-url-schemes'
p1210
NsS'roku-screensaver-private'
p1211
NsS'osx-extra-res'
p1212
(lp1213
sS'ws81-extra-res'
p1214
(lp1215
sS'playbook-icon'
p1216
NsS'uid'
p1217
NsS'pkguid-as-uid'
p1218
NsS'wp81-ext-native-dll'
p1219
(lp1220
sS'tizen-dist1-password'
p1221
NsS'roku-screensaver-title'
p1222
NsS'osx-minimum-osx-version'
p1223
NsS'symbian-cert'
p1224
NsS'iphone-icon'
p1225
NsS'ws81-ext-capabilities'
p1226
(lp1227
sS'ws8-distribution-cer'
p1228
NsS'playbook-access-shared'
p1229
NsS'iphone-icon-ipad-high-res-ios7'
p1230
NsS'iphone-link-libs'
p1231
(lp1232
sS'wp8-exclude-wvga'
p1233
NsS'assets'
p1234
NsS'wp8-tile-fliptemplate-large-back-image'
p1235
NsS'pub-sign-key'
p1236
NsS'nacl-legacy-ext'
p1237
NsS'android-extra-strings'
p1238
(lp1239
sS'tizen-author-CA-path'
p1240
Nssg389
g684
sbssS'platform'
p1241
S'S3E'
p1242
sg77
S'1.0'
p1243
sS'arcade_platform'
p1244
g4
sS'extensions'
p1245
(dp1246
sS'source_groups_tree'
p1247
(dp1248
S'(libpng)'
p1249
(dp1250
S'h'
p1251
(dp1252
S'c:/marmalade/7.10/modules/third_party/libpng/h/png.h'
p1253
(lp1254
I1
a(dp1255
asS'c:/marmalade/7.10/modules/third_party/libpng/h/pngconf.h'
p1256
(lp1257
I1
ag1255
assS'c:/marmalade/7.10/modules/third_party/libpng/libpng.mkf'
p1258
(lp1259
I1
a(dp1260
assS'(amazon-ads-android-sdk)'
p1261
(dp1262
S'c:/marmalade/7.10/platform_libs/android/amazon-ads-android-sdk/amazon-ads-android-sdk.mkf'
p1263
(lp1264
I1
a(dp1265
assS'(tiniconv)'
p1266
(dp1267
S'c:/marmalade/7.10/modules/third_party/tiniconv/source/tiniconv.h'
p1268
(lp1269
I1
a(dp1270
asS'c:/marmalade/7.10/modules/third_party/tiniconv/source/tiniconv_int.h'
p1271
(lp1272
I1
ag1270
asS'c:/marmalade/7.10/modules/third_party/tiniconv/tiniconv.mkf'
p1273
(lp1274
I1
a(dp1275
assS'(amazon-ads-ios-sdk)'
p1276
(dp1277
S'c:/marmalade/7.10/platform_libs/iphone/amazon-ads-ios-sdk/amazon-ads-ios-sdk.mkf'
p1278
(lp1279
I1
a(dp1280
assS'(SoundEngine)'
p1281
(dp1282
S'd:/marmalade/modules/soundengine/h/IwSoundInst.h'
p1283
(lp1284
I1
a(dp1285
asS'd:/marmalade/modules/soundengine/source/IwSoundPCM.cpp'
p1286
(lp1287
I1
ag1285
asS'd:/marmalade/modules/soundengine/h/IwSoundPCM.h'
p1288
(lp1289
I1
ag1285
asS'd:/marmalade/modules/soundengine/h/IwSoundSpec.h'
p1290
(lp1291
I1
ag1285
asS'd:/marmalade/modules/soundengine/h/IwResHandlerWAV.h'
p1292
(lp1293
I1
ag1285
asS'd:/marmalade/modules/soundengine/h/IwSoundManager.h'
p1294
(lp1295
I1
ag1285
asS'Docs'
p1296
(dp1297
S'd:/marmalade/modules/soundengine/docs/iwsound.config.txt'
p1298
(lp1299
I1
ag1285
assS'd:/marmalade/modules/soundengine/h/IwSound.h'
p1300
(lp1301
I1
ag1285
asS'd:/marmalade/modules/soundengine/source/IwSoundWAV.cpp'
p1302
(lp1303
I1
ag1285
asS'd:/marmalade/modules/soundengine/h/IwSoundParams.h'
p1304
(lp1305
I1
ag1285
asS'd:/marmalade/modules/soundengine/source/IwSoundADPCM.cpp'
p1306
(lp1307
I1
ag1285
asS'd:/marmalade/modules/soundengine/h/IwSoundADPCM.h'
p1308
(lp1309
I1
ag1285
asS'd:/marmalade/modules/soundengine/h/IwSoundWAV.h'
p1310
(lp1311
I1
ag1285
asS'd:/marmalade/modules/soundengine/source/IwResHandlerWAV.cpp'
p1312
(lp1313
I1
ag1285
asS'd:/marmalade/modules/soundengine/source/IwSoundInst.cpp'
p1314
(lp1315
I1
ag1285
asS'd:/marmalade/modules/soundengine/source/IwSoundData.cpp'
p1316
(lp1317
I1
ag1285
asS'd:/marmalade/modules/soundengine/source/IwSoundManager.cpp'
p1318
(lp1319
I1
ag1285
asS'd:/marmalade/modules/soundengine/h/IwSoundData.h'
p1320
(lp1321
I1
ag1285
asS'd:/marmalade/modules/soundengine/source/IwSoundParams.cpp'
p1322
(lp1323
I1
ag1285
asS'd:/marmalade/modules/soundengine/source/IwSoundGroup.cpp'
p1324
(lp1325
I1
ag1285
asS'd:/marmalade/modules/soundengine/soundengine.mkf'
p1326
(lp1327
I1
a(dp1328
asS'd:/marmalade/modules/soundengine/source/IwSoundSpec.cpp'
p1329
(lp1330
I1
ag1285
asS'd:/marmalade/modules/soundengine/h/IwSoundGroup.h'
p1331
(lp1332
I1
ag1285
assS'(MarmaladeExampleResources)'
p1333
(dp1334
S'c:/marmalade/7.10/examples/marmaladeexampleresources/marmaladeexampleresources.mkf'
p1335
(lp1336
I1
a(dp1337
assS'source'
p1338
(dp1339
S'd:/Marmalade/Stage1/source/input.h'
p1340
(lp1341
I1
a(dp1342
asS'd:/Marmalade/Stage1/source/audio.h'
p1343
(lp1344
I1
ag1342
asS'd:/Marmalade/Stage1/source/Stage1.cpp'
p1345
(lp1346
I1
ag1342
asS'd:/Marmalade/Stage1/source/input.cpp'
p1347
(lp1348
I1
ag1342
asS'd:/Marmalade/Stage1/source/audio.cpp'
p1349
(lp1350
I1
ag1342
assS'Extensions'
p1351
(dp1352
S's3eAmazonAds'
p1353
(dp1354
S'interface'
p1355
(dp1356
S'c:/marmalade/7.10/extensions/s3eamazonads/interface/s3eAmazonAds.defines.txt'
p1357
(lp1358
I1
a(dp1359
asS'c:/marmalade/7.10/extensions/s3eamazonads/interface/s3eAmazonAds_interface.cpp'
p1360
(lp1361
I1
ag1359
assS'c:/marmalade/7.10/extensions/s3eamazonads/s3eamazonads.mkf'
p1362
(lp1363
I1
a(dp1364
asS'c:/marmalade/7.10/extensions/s3eamazonads/h/s3eAmazonAds.h'
p1365
(lp1366
I1
ag1359
assS'PVRTexTool'
p1367
(dp1368
S'interface'
p1369
(dp1370
S'c:/marmalade/7.10/extensions/pvrtextool/interface/PVRTexTool_interface.cpp'
p1371
(lp1372
I1
a(dp1373
asS'c:/marmalade/7.10/extensions/pvrtextool/interface/PVRTexTool.defines.txt'
p1374
(lp1375
I1
ag1373
assS'c:/marmalade/7.10/extensions/pvrtextool/h/PVRTexTool.h'
p1376
(lp1377
I1
ag1373
asS'c:/marmalade/7.10/extensions/pvrtextool/pvrtextool.mkf'
p1378
(lp1379
I1
a(dp1380
asssS'(s3e-default)'
p1381
(dp1382
S'c:/marmalade/7.10/s3e/s3e-default.mkf'
p1383
(lp1384
I1
a(dp1385
assS"'Marmalade Studio'"
p1386
(dp1387
S'iwgl'
p1388
(dp1389
S'c:/marmalade/7.10/modules/iwgl/iwgl.mkf'
p1390
(lp1391
I1
a(dp1392
asS'c:/marmalade/7.10/modules/iwgl/h/IwGL.h'
p1393
(lp1394
I1
a(dp1395
asS'c:/marmalade/7.10/modules/iwgl/docs/iwgl.config.txt'
p1396
(lp1397
I1
ag1395
asS'c:/marmalade/7.10/modules/iwgl/h/IwGLExt.h'
p1398
(lp1399
I1
ag1395
assS'iw2d'
p1400
(dp1401
S'c:/marmalade/7.10/modules/iw2d/iw2d.mkf'
p1402
(lp1403
I1
a(dp1404
asS'c:/marmalade/7.10/modules/iw2d/docs/iw2d_public.defines.txt'
p1405
(lp1406
I1
a(dp1407
asS'c:/marmalade/7.10/modules/iw2d/h/Iw2D.h'
p1408
(lp1409
I1
ag1407
asS'c:/marmalade/7.10/modules/iw2d/docs/iw2d.config.txt'
p1410
(lp1411
I1
ag1407
assS'iwgxfont'
p1412
(dp1413
S'c:/marmalade/7.10/modules/iwgxfont/h/IwGxFont.h'
p1414
(lp1415
I1
a(dp1416
asS'c:/marmalade/7.10/modules/iwgxfont/h/IwGxFontPreparedData.h'
p1417
(lp1418
I1
ag1416
asS'c:/marmalade/7.10/modules/iwgxfont/iwgxfont.mkf'
p1419
(lp1420
I1
a(dp1421
asS'c:/marmalade/7.10/modules/iwgxfont/docs/iwgxfont.config.txt'
p1422
(lp1423
I1
ag1416
asS'c:/marmalade/7.10/modules/iwgxfont/h/IwGxFontState.h'
p1424
(lp1425
I1
ag1416
asS'c:/marmalade/7.10/modules/iwgxfont/docs/iwgxfont_public.defines.txt'
p1426
(lp1427
I1
ag1416
asS'c:/marmalade/7.10/modules/iwgxfont/h/IwGxFontContainer.h'
p1428
(lp1429
I1
ag1416
asS'c:/marmalade/7.10/modules/iwgxfont/h/IwGxFontGlyph.h'
p1430
(lp1431
I1
ag1416
asS'c:/marmalade/7.10/modules/iwgxfont/h/IwGxFontTypes.h'
p1432
(lp1433
I1
ag1416
assS'iwgeom'
p1434
(dp1435
S'c:/marmalade/7.10/modules/iwgeom/h/IwGeomQuat.h'
p1436
(lp1437
I1
a(dp1438
asS'c:/marmalade/7.10/modules/iwgeom/h/IwGeomMat2D.h.tpl'
p1439
(lp1440
I1
ag1438
asS'c:/marmalade/7.10/modules/iwgeom/h/IwGeomIntersect.h'
p1441
(lp1442
I1
ag1438
asS'c:/marmalade/7.10/modules/iwgeom/h/IwGeomQuat.h.tpl'
p1443
(lp1444
I1
ag1438
asS'c:/marmalade/7.10/modules/iwgeom/h/IwGeomVec.h.tpl'
p1445
(lp1446
I1
ag1438
asS'c:/marmalade/7.10/modules/iwgeom/docs/iwgeom.config.txt'
p1447
(lp1448
I1
ag1438
asS'c:/marmalade/7.10/modules/iwgeom/h/IwGeomFBBox.h'
p1449
(lp1450
I1
ag1438
asS'c:/marmalade/7.10/modules/iwgeom/iwgeom.mkf'
p1451
(lp1452
I1
a(dp1453
asS'c:/marmalade/7.10/modules/iwgeom/h/IwGeomFSphere.h'
p1454
(lp1455
I1
ag1438
asS'c:/marmalade/7.10/modules/iwgeom/h/IwGeomSVec4.h'
p1456
(lp1457
I1
ag1438
asS'c:/marmalade/7.10/modules/iwgeom/h/IwGeomPlane.h'
p1458
(lp1459
I1
ag1438
asS'c:/marmalade/7.10/modules/iwgeom/h/IwGeomSVec3.h'
p1460
(lp1461
I1
ag1438
asS'c:/marmalade/7.10/modules/iwgeom/h/IwGeomVec4.h'
p1462
(lp1463
I1
ag1438
asS'c:/marmalade/7.10/modules/iwgeom/h/IwGeom.h'
p1464
(lp1465
I1
ag1438
asS'c:/marmalade/7.10/modules/iwgeom/h/IwGeomVec3.h'
p1466
(lp1467
I1
ag1438
asS'c:/marmalade/7.10/modules/iwgeom/h/IwGeomMat.h.tpl'
p1468
(lp1469
I1
ag1438
asS'c:/marmalade/7.10/modules/iwgeom/h/IwGeomFQuat.h'
p1470
(lp1471
I1
ag1438
asS'c:/marmalade/7.10/modules/iwgeom/h/IwGeomSphere.h'
p1472
(lp1473
I1
ag1438
asS'c:/marmalade/7.10/modules/iwgeom/h/IwGeomLegacy.h'
p1474
(lp1475
I1
ag1438
asS'c:/marmalade/7.10/modules/iwgeom/h/IwGeomVec2.h'
p1476
(lp1477
I1
ag1438
asS'c:/marmalade/7.10/modules/iwgeom/h/IwGeomFIntersect.h'
p1478
(lp1479
I1
ag1438
asS'c:/marmalade/7.10/modules/iwgeom/h/IwGeomFPlane.h'
p1480
(lp1481
I1
ag1438
asS'c:/marmalade/7.10/modules/iwgeom/h/IwGeomSQuat.h'
p1482
(lp1483
I1
ag1438
asS'c:/marmalade/7.10/modules/iwgeom/h/IwGeomSVec2.h'
p1484
(lp1485
I1
ag1438
asS'c:/marmalade/7.10/modules/iwgeom/h/IwGeomBBox.h'
p1486
(lp1487
I1
ag1438
asS'c:/marmalade/7.10/modules/iwgeom/h/IwGeomFMat2D.h'
p1488
(lp1489
I1
ag1438
asS'c:/marmalade/7.10/modules/iwgeom/h/IwGeomVec.h'
p1490
(lp1491
I1
ag1438
asS'c:/marmalade/7.10/modules/iwgeom/h/IwGeomMenu.h'
p1492
(lp1493
I1
ag1438
asS'c:/marmalade/7.10/modules/iwgeom/h/IwGeomFVec2.h'
p1494
(lp1495
I1
ag1438
asS'c:/marmalade/7.10/modules/iwgeom/h/IwGeomFMat.h'
p1496
(lp1497
I1
ag1438
asS'c:/marmalade/7.10/modules/iwgeom/h/IwGeomCore.h'
p1498
(lp1499
I1
ag1438
asS'c:/marmalade/7.10/modules/iwgeom/h/IwGeomFVec3.h'
p1500
(lp1501
I1
ag1438
asS'c:/marmalade/7.10/modules/iwgeom/h/IwGeomMat2D.h'
p1502
(lp1503
I1
ag1438
asS'c:/marmalade/7.10/modules/iwgeom/h/IwGeomMat.h'
p1504
(lp1505
I1
ag1438
asS'c:/marmalade/7.10/modules/iwgeom/h/IwGeomFVec4.h'
p1506
(lp1507
I1
ag1438
asS'c:/marmalade/7.10/modules/iwgeom/h/IwGeomSqrt.h'
p1508
(lp1509
I1
ag1438
assS'iwresmanager'
p1510
(dp1511
S'c:/marmalade/7.10/modules/iwresmanager/h/IwResHandler.h'
p1512
(lp1513
I1
a(dp1514
asS'c:/marmalade/7.10/modules/iwresmanager/docs/iwresmanager.config.txt'
p1515
(lp1516
I1
ag1514
asS'c:/marmalade/7.10/modules/iwresmanager/h/IwResHandlerImage.h'
p1517
(lp1518
I1
ag1514
asS'c:/marmalade/7.10/modules/iwresmanager/h/IwResHandlerITX.h'
p1519
(lp1520
I1
ag1514
asS'c:/marmalade/7.10/modules/iwresmanager/h/IwResManager.h'
p1521
(lp1522
I1
ag1514
asS'c:/marmalade/7.10/modules/iwresmanager/h/IwResSerialise.h'
p1523
(lp1524
I1
ag1514
asS'c:/marmalade/7.10/modules/iwresmanager/iwresmanager.mkf'
p1525
(lp1526
I1
a(dp1527
asS'c:/marmalade/7.10/modules/iwresmanager/h/IwResManagerClass.h'
p1528
(lp1529
I1
ag1514
asS'c:/marmalade/7.10/modules/iwresmanager/h/IwResGroup.h'
p1530
(lp1531
I1
ag1514
asS'c:/marmalade/7.10/modules/iwresmanager/h/IwResHandlerGROUP.h'
p1532
(lp1533
I1
ag1514
assS'iwgx'
p1534
(dp1535
S'c:/marmalade/7.10/modules/iwgx/h/IwGxPrint.h'
p1536
(lp1537
I1
a(dp1538
asS'c:/marmalade/7.10/modules/iwgx/h/IwGxError.h'
p1539
(lp1540
I1
ag1538
asS'c:/marmalade/7.10/modules/iwgx/h/IwGxSurface.h'
p1541
(lp1542
I1
ag1538
asS'c:/marmalade/7.10/modules/iwgx/h/IwGxTransformSW.h'
p1543
(lp1544
I1
ag1538
asS'c:/marmalade/7.10/modules/iwgx/h/IwGxDebug.h'
p1545
(lp1546
I1
ag1538
asS'c:/marmalade/7.10/modules/iwgx/h/IwClip.h'
p1547
(lp1548
I1
ag1538
asS'c:/marmalade/7.10/modules/iwgx/docs/iwgx.config.txt'
p1549
(lp1550
I1
ag1538
asS'c:/marmalade/7.10/modules/iwgx/h/IwColour.h'
p1551
(lp1552
I1
ag1538
asS'c:/marmalade/7.10/modules/iwgx/h/IwGxTypes.h'
p1553
(lp1554
I1
ag1538
asS'c:/marmalade/7.10/modules/iwgx/h/IwGx.h'
p1555
(lp1556
I1
ag1538
asS'c:/marmalade/7.10/modules/iwgx/h/IwDebugPrim.h'
p1557
(lp1558
I1
ag1538
asS'c:/marmalade/7.10/modules/iwgx/h/IwGxMetrics.h'
p1559
(lp1560
I1
ag1538
asS'c:/marmalade/7.10/modules/iwgx/iwgx.mkf'
p1561
(lp1562
I1
a(dp1563
asS'c:/marmalade/7.10/modules/iwgx/h/IwClip.inl'
p1564
(lp1565
I1
ag1538
asS'c:/marmalade/7.10/modules/iwgx/h/IwMatAnim.h'
p1566
(lp1567
I1
ag1538
asS'c:/marmalade/7.10/modules/iwgx/h/IwGxState.h'
p1568
(lp1569
I1
ag1538
asS'c:/marmalade/7.10/modules/iwgx/h/IwTexture.h'
p1570
(lp1571
I1
ag1538
asS'c:/marmalade/7.10/modules/iwgx/h/IwGxStream.h'
p1572
(lp1573
I1
ag1538
asS'c:/marmalade/7.10/modules/iwgx/h/IwTPage.h'
p1574
(lp1575
I1
ag1538
asS'c:/marmalade/7.10/modules/iwgx/h/IwResHandlerMTL.h'
p1576
(lp1577
I1
ag1538
asS'c:/marmalade/7.10/modules/iwgx/h/IwMaterial.h'
p1578
(lp1579
I1
ag1538
asS'c:/marmalade/7.10/modules/iwgx/h/IwGxFuncTable.h'
p1580
(lp1581
I1
ag1538
asS'c:/marmalade/7.10/modules/iwgx/h/IwFColour.h'
p1582
(lp1583
I1
ag1538
asS'c:/marmalade/7.10/modules/iwgx/docs/iwgx_public.defines.txt'
p1584
(lp1585
I1
ag1538
asS'c:/marmalade/7.10/modules/iwgx/h/IwGxShaderTechnique.h'
p1586
(lp1587
I1
ag1538
assS'iwutil'
p1588
(dp1589
S'c:/marmalade/7.10/modules/iwutil/h/IwDivTable.h'
p1590
(lp1591
I1
a(dp1592
asS'c:/marmalade/7.10/modules/iwutil/h/IwPath.h'
p1593
(lp1594
I1
ag1592
asS'c:/marmalade/7.10/modules/iwutil/h/IwFile.h'
p1595
(lp1596
I1
ag1592
asS'c:/marmalade/7.10/modules/iwutil/h/IwImage.h'
p1597
(lp1598
I1
ag1592
asS'c:/marmalade/7.10/modules/iwutil/h/IwMenu.h'
p1599
(lp1600
I1
ag1592
asS'c:/marmalade/7.10/modules/iwutil/h/IwArray.h'
p1601
(lp1602
I1
ag1592
asS'c:/marmalade/7.10/modules/iwutil/h/IwMemBucketHelpers.h'
p1603
(lp1604
I1
ag1592
asS'c:/marmalade/7.10/modules/iwutil/h/IwClassFactory.h'
p1605
(lp1606
I1
ag1592
asS'c:/marmalade/7.10/modules/iwutil/iwutil.mkf'
p1607
(lp1608
I1
a(dp1609
asS'c:/marmalade/7.10/modules/iwutil/h/IwDivide.h'
p1610
(lp1611
I1
ag1592
asS'c:/marmalade/7.10/modules/iwutil/h/IwMemory.h'
p1612
(lp1613
I1
ag1592
asS'c:/marmalade/7.10/modules/iwutil/h/IwManagedList.h'
p1614
(lp1615
I1
ag1592
asS'c:/marmalade/7.10/modules/iwutil/h/IwUtil.h'
p1616
(lp1617
I1
ag1592
asS'c:/marmalade/7.10/modules/iwutil/h/IwFibre.h'
p1618
(lp1619
I1
ag1592
asS'c:/marmalade/7.10/modules/iwutil/h/IwBuffer.h'
p1620
(lp1621
I1
ag1592
asS'c:/marmalade/7.10/modules/iwutil/h/IwHashString.h'
p1622
(lp1623
I1
ag1592
asS'c:/marmalade/7.10/modules/iwutil/h/IwSingleton.h'
p1624
(lp1625
I1
ag1592
asS'c:/marmalade/7.10/modules/iwutil/h/IwSerialise.h'
p1626
(lp1627
I1
ag1592
asS'c:/marmalade/7.10/modules/iwutil/h/IwMath.h'
p1628
(lp1629
I1
ag1592
asS'c:/marmalade/7.10/modules/iwutil/h/IwTypes.h'
p1630
(lp1631
I1
ag1592
asS'c:/marmalade/7.10/modules/iwutil/h/IwTextParser.h'
p1632
(lp1633
I1
ag1592
asS'c:/marmalade/7.10/modules/iwutil/h/IwOptimiseSpeed.h'
p1634
(lp1635
I1
ag1592
asS'c:/marmalade/7.10/modules/iwutil/h/IwKeymap.h'
p1636
(lp1637
I1
ag1592
asS'c:/marmalade/7.10/modules/iwutil/h/IwCore.h'
p1638
(lp1639
I1
ag1592
asS'c:/marmalade/7.10/modules/iwutil/h/IwAllocator.h'
p1640
(lp1641
I1
ag1592
asS'c:/marmalade/7.10/modules/iwutil/h/IwChar.h'
p1642
(lp1643
I1
ag1592
asS'c:/marmalade/7.10/modules/iwutil/h/IwOptimiseThumb.h'
p1644
(lp1645
I1
ag1592
asS'c:/marmalade/7.10/modules/iwutil/h/IwAutoFile.h'
p1646
(lp1647
I1
ag1592
asS'c:/marmalade/7.10/modules/iwutil/h/IwManaged.h'
p1648
(lp1649
I1
ag1592
asS'c:/marmalade/7.10/modules/iwutil/h/IwOptimiseARM.h'
p1650
(lp1651
I1
ag1592
asS'c:/marmalade/7.10/modules/iwutil/h/IwTextParserITX.h'
p1652
(lp1653
I1
ag1592
asS'c:/marmalade/7.10/modules/iwutil/h/IwList.h'
p1654
(lp1655
I1
ag1592
asS'c:/marmalade/7.10/modules/iwutil/h/IwUncopyable.h'
p1656
(lp1657
I1
ag1592
asS'c:/marmalade/7.10/modules/iwutil/h/IwRandom.h'
p1658
(lp1659
I1
ag1592
asS'c:/marmalade/7.10/modules/iwutil/h/IwProfileMenu.h'
p1660
(lp1661
I1
ag1592
asS'c:/marmalade/7.10/modules/iwutil/h/IwDebug.h'
p1662
(lp1663
I1
ag1592
asS'c:/marmalade/7.10/modules/iwutil/h/IwTextParseable.h'
p1664
(lp1665
I1
ag1592
asS'c:/marmalade/7.10/modules/iwutil/h/IwResource.h'
p1666
(lp1667
I1
ag1592
asS'c:/marmalade/7.10/modules/iwutil/h/IwOptimiseSize.h'
p1668
(lp1669
I1
ag1592
asS'c:/marmalade/7.10/modules/iwutil/h/IwVariableBitField.h'
p1670
(lp1671
I1
ag1592
asS'c:/marmalade/7.10/modules/iwutil/h/IwCopyingPtr.h'
p1672
(lp1673
I1
ag1592
asS'c:/marmalade/7.10/modules/iwutil/docs/iwutil.config.txt'
p1674
(lp1675
I1
ag1592
asS'c:/marmalade/7.10/modules/iwutil/h/IwUtilInitTerm.h'
p1676
(lp1677
I1
ag1592
asS'c:/marmalade/7.10/modules/iwutil/h/IwEvent.h'
p1678
(lp1679
I1
ag1592
asS'c:/marmalade/7.10/modules/iwutil/h/IwRuntime.h'
p1680
(lp1681
I1
ag1592
asS'c:/marmalade/7.10/modules/iwutil/h/IwUTF8.h'
p1682
(lp1683
I1
ag1592
asS'c:/marmalade/7.10/modules/iwutil/h/IwImageHelper.h'
p1684
(lp1685
I1
ag1592
asS'c:/marmalade/7.10/modules/iwutil/h/IwMemManagerDL.h'
p1686
(lp1687
I1
ag1592
asS'c:/marmalade/7.10/modules/iwutil/h/IwMemBucket.h'
p1688
(lp1689
I1
ag1592
asS'c:/marmalade/7.10/modules/iwutil/h/IwString.h'
p1690
(lp1691
I1
ag1592
asssS'(zlib)'
p1692
(dp1693
g1251
(dp1694
S'c:/marmalade/7.10/modules/third_party/zlib/h/zconf.h'
p1695
(lp1696
I1
a(dp1697
asS'c:/marmalade/7.10/modules/third_party/zlib/h/zlib.h'
p1698
(lp1699
I1
ag1697
assS'c:/marmalade/7.10/modules/third_party/zlib/zlib.mkf'
p1700
(lp1701
I1
a(dp1702
assS'(libjpeg)'
p1703
(dp1704
g1251
(dp1705
S'c:/marmalade/7.10/modules/third_party/libjpeg/h/jpeglib.h'
p1706
(lp1707
I1
a(dp1708
asS'c:/marmalade/7.10/modules/third_party/libjpeg/h/jdhuff.h'
p1709
(lp1710
I1
ag1708
asS'c:/marmalade/7.10/modules/third_party/libjpeg/h/transupp.h'
p1711
(lp1712
I1
ag1708
asS'c:/marmalade/7.10/modules/third_party/libjpeg/h/cdjpeg.h'
p1713
(lp1714
I1
ag1708
asS'c:/marmalade/7.10/modules/third_party/libjpeg/h/jerror.h'
p1715
(lp1716
I1
ag1708
asS'c:/marmalade/7.10/modules/third_party/libjpeg/h/jconfig.h'
p1717
(lp1718
I1
ag1708
asS'c:/marmalade/7.10/modules/third_party/libjpeg/h/jmorecfg.h'
p1719
(lp1720
I1
ag1708
asS'c:/marmalade/7.10/modules/third_party/libjpeg/h/jdct.h'
p1721
(lp1722
I1
ag1708
asS'c:/marmalade/7.10/modules/third_party/libjpeg/h/cderror.h'
p1723
(lp1724
I1
ag1708
asS'c:/marmalade/7.10/modules/third_party/libjpeg/h/jmemsys.h'
p1725
(lp1726
I1
ag1708
asS'c:/marmalade/7.10/modules/third_party/libjpeg/h/jchuff.h'
p1727
(lp1728
I1
ag1708
asS'c:/marmalade/7.10/modules/third_party/libjpeg/h/jpegint.h'
p1729
(lp1730
I1
ag1708
asS'c:/marmalade/7.10/modules/third_party/libjpeg/h/jinclude.h'
p1731
(lp1732
I1
ag1708
asS'c:/marmalade/7.10/modules/third_party/libjpeg/h/jversion.h'
p1733
(lp1734
I1
ag1708
assS'c:/marmalade/7.10/modules/third_party/libjpeg/libjpeg.mkf'
p1735
(lp1736
I1
a(dp1737
asssS'files'
p1738
(dp1739
S'IwGxFontPreparedData.h'
p1740
g362
(cmkb_main
File
p1741
g364
Ntp1742
Rp1743
(dp1744
S'flags'
p1745
g1416
sS'group'
p1746
(lp1747
S"'Marmalade Studio'"
p1748
ag1412
asg389
g1417
sbsS'iterator'
p1749
g362
(g1741
g364
Ntp1750
Rp1751
(dp1752
g1745
(dp1753
sg1746
(lp1754
S"'Marmalade System (S3E)'"
p1755
aS'stdc headers'
p1756
aS'c++'
p1757
asg389
S'c:/marmalade/7.10/s3e/h/std/c++/iterator'
p1758
sbsS'IwGL.h'
p1759
g362
(g1741
g364
Ntp1760
Rp1761
(dp1762
g1745
g1395
sg1746
(lp1763
S"'Marmalade Studio'"
p1764
ag1388
asg389
g1393
sbsS's3e.h'
p1765
g362
(g1741
g364
Ntp1766
Rp1767
(dp1768
g1745
g1753
sg1746
(lp1769
g1755
asg389
S'c:/marmalade/7.10/s3e/h/s3e.h'
p1770
sbsS'errno.h'
p1771
g362
(g1741
g364
Ntp1772
Rp1773
(dp1774
g1745
g1753
sg1746
(lp1775
g1755
aS'stdc headers'
p1776
asg389
S'c:/marmalade/7.10/s3e/h/std/errno.h'
p1777
sbsS'IwSingleton.h'
p1778
g362
(g1741
g364
Ntp1779
Rp1780
(dp1781
g1745
g1592
sg1746
(lp1782
S"'Marmalade Studio'"
p1783
ag1588
asg389
g1624
sbsS'dlfcn.h'
p1784
g362
(g1741
g364
Ntp1785
Rp1786
(dp1787
g1745
g1753
sg1746
g1775
sg389
S'c:/marmalade/7.10/s3e/h/std/dlfcn.h'
p1788
sbsS'IwSoundWAV.cpp'
p1789
g362
(g1741
g364
Ntp1790
Rp1791
(dp1792
g1745
g1285
sg1746
(lp1793
g1281
asg389
g1302
sbsS'sched.h'
p1794
g362
(g1741
g364
Ntp1795
Rp1796
(dp1797
g1745
g1753
sg1746
g1775
sg389
S'c:/marmalade/7.10/s3e/h/std/sched.h'
p1798
sbsS'IwSoundPCM.h'
p1799
g362
(g1741
g364
Ntp1800
Rp1801
(dp1802
g1745
g1285
sg1746
g1793
sg389
g1288
sbsS'IwGeomFMat2D.h'
p1803
g362
(g1741
g364
Ntp1804
Rp1805
(dp1806
g1745
g1438
sg1746
(lp1807
S"'Marmalade Studio'"
p1808
ag1434
asg389
g1488
sbsS'cassert'
p1809
g362
(g1741
g364
Ntp1810
Rp1811
(dp1812
g1745
g1753
sg1746
g1754
sg389
S'c:/marmalade/7.10/s3e/h/std/c++/cassert'
p1813
sbsS'grp.h'
p1814
g362
(g1741
g364
Ntp1815
Rp1816
(dp1817
g1745
g1753
sg1746
g1775
sg389
S'c:/marmalade/7.10/s3e/h/std/grp.h'
p1818
sbsS'list'
p1819
g362
(g1741
g364
Ntp1820
Rp1821
(dp1822
g1745
g1753
sg1746
g1754
sg389
S'c:/marmalade/7.10/s3e/h/std/c++/list'
p1823
sbsS'IwSoundSpec.cpp'
p1824
g362
(g1741
g364
Ntp1825
Rp1826
(dp1827
g1745
g1285
sg1746
g1793
sg389
g1329
sbsS'IwGeomMat.h.tpl'
p1828
g362
(g1741
g364
Ntp1829
Rp1830
(dp1831
g1745
g1438
sg1746
g1807
sg389
g1468
sbsS'istream'
p1832
g362
(g1741
g364
Ntp1833
Rp1834
(dp1835
g1745
g1753
sg1746
g1754
sg389
S'c:/marmalade/7.10/s3e/h/std/c++/istream'
p1836
sbsS'jpeglib.h'
p1837
g362
(g1741
g364
Ntp1838
Rp1839
(dp1840
g1745
g1708
sg1746
(lp1841
g1703
ag1251
asg389
g1706
sbsS'iw2d_public.defines.txt'
p1842
g362
(g1741
g364
Ntp1843
Rp1844
(dp1845
g1745
g1407
sg1746
(lp1846
S"'Marmalade Studio'"
p1847
ag1400
asg389
g1405
sbsS'iostream.h'
p1848
g362
(g1741
g364
Ntp1849
Rp1850
(dp1851
g1745
g1753
sg1746
g1754
sg389
S'c:/marmalade/7.10/s3e/h/std/c++/iostream.h'
p1852
sbsS'IwSoundADPCM.h'
p1853
g362
(g1741
g364
Ntp1854
Rp1855
(dp1856
g1745
g1285
sg1746
g1793
sg389
g1308
sbsS'string'
p1857
g362
(g1741
g364
Ntp1858
Rp1859
(dp1860
g1745
g1753
sg1746
g1754
sg389
S'c:/marmalade/7.10/s3e/h/std/c++/string'
p1861
sbsS'IwMemory.h'
p1862
g362
(g1741
g364
Ntp1863
Rp1864
(dp1865
g1745
g1592
sg1746
g1782
sg389
g1612
sbsS'IwGeomPlane.h'
p1866
g362
(g1741
g364
Ntp1867
Rp1868
(dp1869
g1745
g1438
sg1746
g1807
sg389
g1458
sbsS'iw2d.config.txt'
p1870
g362
(g1741
g364
Ntp1871
Rp1872
(dp1873
g1745
g1407
sg1746
g1846
sg389
g1410
sbsS'iomanip'
p1874
g362
(g1741
g364
Ntp1875
Rp1876
(dp1877
g1745
g1753
sg1746
g1754
sg389
S'c:/marmalade/7.10/s3e/h/std/c++/iomanip'
p1878
sbsS'iwgeom.mkf'
p1879
g362
(g1741
g364
Ntp1880
Rp1881
(dp1882
g1745
g1453
sg1746
g1807
sg389
g1451
sbsS'IwGxError.h'
p1883
g362
(g1741
g364
Ntp1884
Rp1885
(dp1886
g1745
g1538
sg1746
(lp1887
S"'Marmalade Studio'"
p1888
ag1534
asg389
g1539
sbsS'IwGeom.h'
p1889
g362
(g1741
g364
Ntp1890
Rp1891
(dp1892
g1745
g1438
sg1746
g1807
sg389
g1464
sbsS'IwGeomVec4.h'
p1893
g362
(g1741
g364
Ntp1894
Rp1895
(dp1896
g1745
g1438
sg1746
g1807
sg389
g1462
sbsS'dir.h'
p1897
g362
(g1741
g364
Ntp1898
Rp1899
(dp1900
g1745
g1753
sg1746
(lp1901
g1755
aS'stdc headers'
p1902
aS'sys'
p1903
asg389
S'c:/marmalade/7.10/s3e/h/std/sys/dir.h'
p1904
sbsS'locale.h'
p1905
g362
(g1741
g364
Ntp1906
Rp1907
(dp1908
g1745
g1753
sg1746
g1775
sg389
S'c:/marmalade/7.10/s3e/h/std/locale.h'
p1909
sbsS'vector'
p1910
g362
(g1741
g364
Ntp1911
Rp1912
(dp1913
g1745
g1753
sg1746
g1754
sg389
S'c:/marmalade/7.10/s3e/h/std/c++/vector'
p1914
sbsS'IwManaged.h'
p1915
g362
(g1741
g364
Ntp1916
Rp1917
(dp1918
g1745
g1592
sg1746
g1782
sg389
g1648
sbsS's3eCompass.h'
p1919
g362
(g1741
g364
Ntp1920
Rp1921
(dp1922
g1745
g1753
sg1746
g1769
sg389
S'c:/marmalade/7.10/s3e/h/s3eCompass.h'
p1923
sbsS'cderror.h'
p1924
g362
(g1741
g364
Ntp1925
Rp1926
(dp1927
g1745
g1708
sg1746
g1841
sg389
g1723
sbsS'climits'
p1928
g362
(g1741
g364
Ntp1929
Rp1930
(dp1931
g1745
g1753
sg1746
g1754
sg389
S'c:/marmalade/7.10/s3e/h/std/c++/climits'
p1932
sbsS'ipc.h'
p1933
g362
(g1741
g364
Ntp1934
Rp1935
(dp1936
g1745
g1753
sg1746
g1901
sg389
S'c:/marmalade/7.10/s3e/h/std/sys/ipc.h'
p1937
sbsS'jversion.h'
p1938
g362
(g1741
g364
Ntp1939
Rp1940
(dp1941
g1745
g1708
sg1746
g1841
sg389
g1733
sbsS'fnmatch.h'
p1942
g362
(g1741
g364
Ntp1943
Rp1944
(dp1945
g1745
g1753
sg1746
g1775
sg389
S'c:/marmalade/7.10/s3e/h/std/fnmatch.h'
p1946
sbsS'IwGxState.h'
p1947
g362
(g1741
g364
Ntp1948
Rp1949
(dp1950
g1745
g1538
sg1746
g1887
sg389
g1568
sbsS's3eAudio.h'
p1951
g362
(g1741
g364
Ntp1952
Rp1953
(dp1954
g1745
g1753
sg1746
g1769
sg389
S'c:/marmalade/7.10/s3e/h/s3eAudio.h'
p1955
sbsS's3eSurface.h'
p1956
g362
(g1741
g364
Ntp1957
Rp1958
(dp1959
g1745
g1753
sg1746
g1769
sg389
S'c:/marmalade/7.10/s3e/h/s3eSurface.h'
p1960
sbsS'new'
p1961
g362
(g1741
g364
Ntp1962
Rp1963
(dp1964
g1745
g1753
sg1746
g1754
sg389
S'c:/marmalade/7.10/s3e/h/std/c++/new'
p1965
sbsS's3eWindow.h'
p1966
g362
(g1741
g364
Ntp1967
Rp1968
(dp1969
g1745
g1753
sg1746
(lp1970
g1755
aS'Extensions'
p1971
asg389
S'c:/marmalade/7.10/s3e/h/ext/s3eWindow.h'
p1972
sbsS'IwBuffer.h'
p1973
g362
(g1741
g364
Ntp1974
Rp1975
(dp1976
g1745
g1592
sg1746
g1782
sg389
g1620
sbsS'stdio_streambuf'
p1977
g362
(g1741
g364
Ntp1978
Rp1979
(dp1980
g1745
g1753
sg1746
g1754
sg389
S'c:/marmalade/7.10/s3e/h/std/c++/stdio_streambuf'
p1981
sbsS'IwGeomQuat.h.tpl'
p1982
g362
(g1741
g364
Ntp1983
Rp1984
(dp1985
g1745
g1438
sg1746
g1807
sg389
g1443
sbsS's3eOSExec.h'
p1986
g362
(g1741
g364
Ntp1987
Rp1988
(dp1989
g1745
g1753
sg1746
g1970
sg389
S'c:/marmalade/7.10/s3e/h/ext/s3eOSExec.h'
p1990
sbsS'IwGxTransformSW.h'
p1991
g362
(g1741
g364
Ntp1992
Rp1993
(dp1994
g1745
g1538
sg1746
g1887
sg389
g1543
sbsS'IwGxMetrics.h'
p1995
g362
(g1741
g364
Ntp1996
Rp1997
(dp1998
g1745
g1538
sg1746
g1887
sg389
g1559
sbsS'iwgxfont.config.txt'
p1999
g362
(g1741
g364
Ntp2000
Rp2001
(dp2002
g1745
g1416
sg1746
g1747
sg389
g1422
sbsS'gl2platform.h'
p2003
g362
(g1741
g364
Ntp2004
Rp2005
(dp2006
g1745
g1753
sg1746
(lp2007
g1755
aS'GL'
p2008
aS'GLES 2.0'
p2009
asg389
S'c:/marmalade/7.10/s3e/h/GLES2/gl2platform.h'
p2010
sbsS'IwResManagerClass.h'
p2011
g362
(g1741
g364
Ntp2012
Rp2013
(dp2014
g1745
g1514
sg1746
(lp2015
g1386
ag1510
asg389
g1528
sbsS'queue'
p2016
g362
(g1741
g364
Ntp2017
Rp2018
(dp2019
g1745
g1753
sg1746
g1754
sg389
S'c:/marmalade/7.10/s3e/h/std/c++/queue'
p2020
sbsS'time_1.h'
p2021
g362
(g1741
g364
Ntp2022
Rp2023
(dp2024
g1745
g1753
sg1746
g1901
sg389
S'c:/marmalade/7.10/s3e/h/std/sys/time.h'
p2025
sbsS'Iw2D.h'
p2026
g362
(g1741
g364
Ntp2027
Rp2028
(dp2029
g1745
g1407
sg1746
g1846
sg389
g1408
sbsS'IwGeomVec2.h'
p2030
g362
(g1741
g364
Ntp2031
Rp2032
(dp2033
g1745
g1438
sg1746
g1807
sg389
g1476
sbsS's3eDevice.h'
p2034
g362
(g1741
g364
Ntp2035
Rp2036
(dp2037
g1745
g1753
sg1746
g1769
sg389
S'c:/marmalade/7.10/s3e/h/s3eDevice.h'
p2038
sbsS'malloc.h'
p2039
g362
(g1741
g364
Ntp2040
Rp2041
(dp2042
g1745
g1753
sg1746
g1775
sg389
S'c:/marmalade/7.10/s3e/h/std/malloc.h'
p2043
sbsS'stdarg.h'
p2044
g362
(g1741
g364
Ntp2045
Rp2046
(dp2047
g1745
g1753
sg1746
g1775
sg389
S'c:/marmalade/7.10/s3e/h/std/stdarg.h'
p2048
sbsS'IwGeomCore.h'
p2049
g362
(g1741
g364
Ntp2050
Rp2051
(dp2052
g1745
g1438
sg1746
g1807
sg389
g1498
sbsS'endian.h'
p2053
g362
(g1741
g364
Ntp2054
Rp2055
(dp2056
g1745
g1753
sg1746
g1775
sg389
S'c:/marmalade/7.10/s3e/h/std/endian.h'
p2057
sbsS'gl3ext.h'
p2058
g362
(g1741
g364
Ntp2059
Rp2060
(dp2061
g1745
g1753
sg1746
(lp2062
g1755
aS'GL'
p2063
aS'GLES 3.0'
p2064
asg389
S'c:/marmalade/7.10/s3e/h/GLES3/gl3ext.h'
p2065
sbsS'glob.h'
p2066
g362
(g1741
g364
Ntp2067
Rp2068
(dp2069
g1745
g1753
sg1746
g1775
sg389
S'c:/marmalade/7.10/s3e/h/std/glob.h'
p2070
sbsS'fstream'
p2071
g362
(g1741
g364
Ntp2072
Rp2073
(dp2074
g1745
g1753
sg1746
g1754
sg389
S'c:/marmalade/7.10/s3e/h/std/c++/fstream'
p2075
sbsS's3eCamera.h'
p2076
g362
(g1741
g364
Ntp2077
Rp2078
(dp2079
g1745
g1753
sg1746
g1769
sg389
S'c:/marmalade/7.10/s3e/h/s3eCamera.h'
p2080
sbsS'jconfig.h'
p2081
g362
(g1741
g364
Ntp2082
Rp2083
(dp2084
g1745
g1708
sg1746
g1841
sg389
g1717
sbsS'memory'
p2085
g362
(g1741
g364
Ntp2086
Rp2087
(dp2088
g1745
g1753
sg1746
g1754
sg389
S'c:/marmalade/7.10/s3e/h/std/c++/memory'
p2089
sbsS'egl.h'
p2090
g362
(g1741
g364
Ntp2091
Rp2092
(dp2093
g1745
g1753
sg1746
(lp2094
g1755
aS'GL'
p2095
aS'EGL'
p2096
asg389
S'c:/marmalade/7.10/s3e/h/EGL/egl.h'
p2097
sbsS'IwClip.inl'
p2098
g362
(g1741
g364
Ntp2099
Rp2100
(dp2101
g1745
g1538
sg1746
g1887
sg389
g1564
sbsS'IwMemManagerDL.h'
p2102
g362
(g1741
g364
Ntp2103
Rp2104
(dp2105
g1745
g1592
sg1746
g1782
sg389
g1686
sbsS'deque'
p2106
g362
(g1741
g364
Ntp2107
Rp2108
(dp2109
g1745
g1753
sg1746
g1754
sg389
S'c:/marmalade/7.10/s3e/h/std/c++/deque'
p2110
sbsS'IwString.h'
p2111
g362
(g1741
g364
Ntp2112
Rp2113
(dp2114
g1745
g1592
sg1746
g1782
sg389
g1690
sbsS'cwchar'
p2115
g362
(g1741
g364
Ntp2116
Rp2117
(dp2118
g1745
g1753
sg1746
g1754
sg389
S'c:/marmalade/7.10/s3e/h/std/c++/cwchar'
p2119
sbsS'iwutil.mkf'
p2120
g362
(g1741
g364
Ntp2121
Rp2122
(dp2123
g1745
g1609
sg1746
g1782
sg389
g1607
sbsS'csignal'
p2124
g362
(g1741
g364
Ntp2125
Rp2126
(dp2127
g1745
g1753
sg1746
g1754
sg389
S'c:/marmalade/7.10/s3e/h/std/c++/csignal'
p2128
sbsS'pthread_types.h'
p2129
g362
(g1741
g364
Ntp2130
Rp2131
(dp2132
g1745
g1753
sg1746
g1775
sg389
S'c:/marmalade/7.10/s3e/h/std/pthread_types.h'
p2133
sbsS'pthread_alloc'
p2134
g362
(g1741
g364
Ntp2135
Rp2136
(dp2137
g1745
g1753
sg1746
g1754
sg389
S'c:/marmalade/7.10/s3e/h/std/c++/pthread_alloc'
p2138
sbsS'getopt.h'
p2139
g362
(g1741
g364
Ntp2140
Rp2141
(dp2142
g1745
g1753
sg1746
g1775
sg389
S'c:/marmalade/7.10/s3e/h/std/getopt.h'
p2143
sbsS'IwOptimiseARM.h'
p2144
g362
(g1741
g364
Ntp2145
Rp2146
(dp2147
g1745
g1592
sg1746
g1782
sg389
g1650
sbsS'times.h'
p2148
g362
(g1741
g364
Ntp2149
Rp2150
(dp2151
g1745
g1753
sg1746
g1901
sg389
S'c:/marmalade/7.10/s3e/h/std/sys/times.h'
p2152
sbsS'IwGeomFSphere.h'
p2153
g362
(g1741
g364
Ntp2154
Rp2155
(dp2156
g1745
g1438
sg1746
g1807
sg389
g1454
sbsS'amazon-ads-android-sdk.mkf'
p2157
g362
(g1741
g364
Ntp2158
Rp2159
(dp2160
g1745
g1265
sg1746
(lp2161
g1261
asg389
g1263
sbsS'IwTypes.h'
p2162
g362
(g1741
g364
Ntp2163
Rp2164
(dp2165
g1745
g1592
sg1746
g1782
sg389
g1630
sbsS'unistd.h'
p2166
g362
(g1741
g364
Ntp2167
Rp2168
(dp2169
g1745
g1753
sg1746
g1775
sg389
S'c:/marmalade/7.10/s3e/h/std/unistd.h'
p2170
sbsS'audio.cpp'
p2171
g362
(g1741
g364
Ntp2172
Rp2173
(dp2174
g1745
g1342
sg1746
(lp2175
g1338
asg389
g1349
sbsS's3eCompression.h'
p2176
g362
(g1741
g364
Ntp2177
Rp2178
(dp2179
g1745
g1753
sg1746
g1769
sg389
S'c:/marmalade/7.10/s3e/h/s3eCompression.h'
p2180
sbsS'langinfo.h'
p2181
g362
(g1741
g364
Ntp2182
Rp2183
(dp2184
g1745
g1753
sg1746
g1775
sg389
S'c:/marmalade/7.10/s3e/h/std/langinfo.h'
p2185
sbsS's3edebugHeap.h'
p2186
g362
(g1741
g364
Ntp2187
Rp2188
(dp2189
g1745
g1753
sg1746
g1970
sg389
S'c:/marmalade/7.10/s3e/h/ext/s3edebugHeap.h'
p2190
sbsS'AirplayVersion.h'
p2191
g362
(g1741
g364
Ntp2192
Rp2193
(dp2194
g1745
g1753
sg1746
g1769
sg389
S'c:/marmalade/7.10/s3e/h/AirplayVersion.h'
p2195
sbsS'gl2extimg.h'
p2196
g362
(g1741
g364
Ntp2197
Rp2198
(dp2199
g1745
g1753
sg1746
g2007
sg389
S'c:/marmalade/7.10/s3e/h/GLES2/gl2extimg.h'
p2200
sbsS'app.config.txt'
p2201
g362
(g1741
g364
Ntp2202
Rp2203
(dp2204
g1745
(dp2205
sg1746
g4
sg389
S'd:/Marmalade/Stage1/data/app.config.txt'
p2206
sbsS'IwGeomSqrt.h'
p2207
g362
(g1741
g364
Ntp2208
Rp2209
(dp2210
g1745
g1438
sg1746
g1807
sg389
g1508
sbsS'tiniconv_int.h'
p2211
g362
(g1741
g364
Ntp2212
Rp2213
(dp2214
g1745
g1270
sg1746
(lp2215
g1266
asg389
g1271
sbsS'syslog.h'
p2216
g362
(g1741
g364
Ntp2217
Rp2218
(dp2219
g1745
g1753
sg1746
g1775
sg389
S'c:/marmalade/7.10/s3e/h/std/syslog.h'
p2220
sbsS'IwGxFontTypes.h'
p2221
g362
(g1741
g364
Ntp2222
Rp2223
(dp2224
g1745
g1416
sg1746
g1747
sg389
g1432
sbsS'IwGeomFIntersect.h'
p2225
g362
(g1741
g364
Ntp2226
Rp2227
(dp2228
g1745
g1438
sg1746
g1807
sg389
g1478
sbsS'hash_map'
p2229
g362
(g1741
g364
Ntp2230
Rp2231
(dp2232
g1745
g1753
sg1746
g1754
sg389
S'c:/marmalade/7.10/s3e/h/std/c++/hash_map'
p2233
sbsS's3e.mkf'
p2234
g362
(g1741
g364
Ntp2235
Rp2236
(dp2237
g1745
(dp2238
sg1746
g1769
sg389
S'c:/marmalade/7.10/s3e/s3e.mkf'
p2239
sbsS'IwGeomMat2D.h.tpl'
p2240
g362
(g1741
g364
Ntp2241
Rp2242
(dp2243
g1745
g1438
sg1746
g1807
sg389
g1439
sbsS's3eOSReadString.h'
p2244
g362
(g1741
g364
Ntp2245
Rp2246
(dp2247
g1745
g1753
sg1746
g1970
sg389
S'c:/marmalade/7.10/s3e/h/ext/s3eOSReadString.h'
p2248
sbsS'IwSound.h'
p2249
g362
(g1741
g364
Ntp2250
Rp2251
(dp2252
g1745
g1285
sg1746
g1793
sg389
g1300
sbsS'map'
p2253
g362
(g1741
g364
Ntp2254
Rp2255
(dp2256
g1745
g1753
sg1746
g1754
sg389
S'c:/marmalade/7.10/s3e/h/std/c++/map'
p2257
sbsS'IwOptimiseSpeed.h'
p2258
g362
(g1741
g364
Ntp2259
Rp2260
(dp2261
g1745
g1592
sg1746
g1782
sg389
g1634
sbsS'ostream'
p2262
g362
(g1741
g364
Ntp2263
Rp2264
(dp2265
g1745
g1753
sg1746
g1754
sg389
S'c:/marmalade/7.10/s3e/h/std/c++/ostream'
p2266
sbsS'msl_string.h'
p2267
g362
(g1741
g364
Ntp2268
Rp2269
(dp2270
g1745
g1753
sg1746
g1754
sg389
S'c:/marmalade/7.10/s3e/h/std/c++/msl_string.h'
p2271
sbsS'select.h'
p2272
g362
(g1741
g364
Ntp2273
Rp2274
(dp2275
g1745
g1753
sg1746
g1901
sg389
S'c:/marmalade/7.10/s3e/h/std/sys/select.h'
p2276
sbsS'zlib.mkf'
p2277
g362
(g1741
g364
Ntp2278
Rp2279
(dp2280
g1745
g1702
sg1746
(lp2281
g1692
asg389
g1700
sbsS'signal.h'
p2282
g362
(g1741
g364
Ntp2283
Rp2284
(dp2285
g1745
g1753
sg1746
g1775
sg389
S'c:/marmalade/7.10/s3e/h/std/signal.h'
p2286
sbsS'sigcontext.h'
p2287
g362
(g1741
g364
Ntp2288
Rp2289
(dp2290
g1745
g1753
sg1746
g1775
sg389
S'c:/marmalade/7.10/s3e/h/std/sigcontext.h'
p2291
sbsS'libpng.mkf'
p2292
g362
(g1741
g364
Ntp2293
Rp2294
(dp2295
g1745
g1260
sg1746
(lp2296
g1249
asg389
g1258
sbsS's3eClipboard.h'
p2297
g362
(g1741
g364
Ntp2298
Rp2299
(dp2300
g1745
g1753
sg1746
g1769
sg389
S'c:/marmalade/7.10/s3e/h/s3eClipboard.h'
p2301
sbsS'IwGxFuncTable.h'
p2302
g362
(g1741
g364
Ntp2303
Rp2304
(dp2305
g1745
g1538
sg1746
g1887
sg389
g1580
sbsS'IwResHandlerGROUP.h'
p2306
g362
(g1741
g364
Ntp2307
Rp2308
(dp2309
g1745
g1514
sg1746
g2015
sg389
g1532
sbsS's3eDebug.h'
p2310
g362
(g1741
g364
Ntp2311
Rp2312
(dp2313
g1745
g1753
sg1746
g1769
sg389
S'c:/marmalade/7.10/s3e/h/s3eDebug.h'
p2314
sbsS'socket.h'
p2315
g362
(g1741
g364
Ntp2316
Rp2317
(dp2318
g1745
g1753
sg1746
g1901
sg389
S'c:/marmalade/7.10/s3e/h/std/sys/socket.h'
p2319
sbsS'glext.h'
p2320
g362
(g1741
g364
Ntp2321
Rp2322
(dp2323
g1745
g1753
sg1746
(lp2324
g1755
aS'GL'
p2325
aS'GLES 1.x'
p2326
asg389
S'c:/marmalade/7.10/s3e/h/GLES/glext.h'
p2327
sbsS'typeinfo.h'
p2328
g362
(g1741
g364
Ntp2329
Rp2330
(dp2331
g1745
g1753
sg1746
g1754
sg389
S'c:/marmalade/7.10/s3e/h/std/c++/typeinfo.h'
p2332
sbsS'typeinfo'
p2333
g362
(g1741
g364
Ntp2334
Rp2335
(dp2336
g1745
g1753
sg1746
g1754
sg389
S'c:/marmalade/7.10/s3e/h/std/c++/typeinfo'
p2337
sbsS'iwsound.config.txt'
p2338
g362
(g1741
g364
Ntp2339
Rp2340
(dp2341
g1745
g1285
sg1746
(lp2342
g1281
ag1296
asg389
g1298
sbsS'fstream.h'
p2343
g362
(g1741
g364
Ntp2344
Rp2345
(dp2346
g1745
g1753
sg1746
g1754
sg389
S'c:/marmalade/7.10/s3e/h/std/c++/fstream.h'
p2347
sbsS's3ePointer.h'
p2348
g362
(g1741
g364
Ntp2349
Rp2350
(dp2351
g1745
g1753
sg1746
g1769
sg389
S'c:/marmalade/7.10/s3e/h/s3ePointer.h'
p2352
sbsS'IwMemBucket.h'
p2353
g362
(g1741
g364
Ntp2354
Rp2355
(dp2356
g1745
g1592
sg1746
g1782
sg389
g1688
sbsS'PVRTexTool.h'
p2357
g362
(g1741
g364
Ntp2358
Rp2359
(dp2360
g1745
g1373
sg1746
(lp2361
S'Extensions'
p2362
ag1367
asg389
g1376
sbsS's3eGL.h'
p2363
g362
(g1741
g364
Ntp2364
Rp2365
(dp2366
g1745
g1753
sg1746
g1769
sg389
S'c:/marmalade/7.10/s3e/h/s3eGL.h'
p2367
sbsS'IwGeomFVec2.h'
p2368
g362
(g1741
g364
Ntp2369
Rp2370
(dp2371
g1745
g1438
sg1746
g1807
sg389
g1494
sbsS'IwGeomSVec4.h'
p2372
g362
(g1741
g364
Ntp2373
Rp2374
(dp2375
g1745
g1438
sg1746
g1807
sg389
g1456
sbsS'poll.h'
p2376
g362
(g1741
g364
Ntp2377
Rp2378
(dp2379
g1745
g1753
sg1746
g1775
sg389
S'c:/marmalade/7.10/s3e/h/std/poll.h'
p2380
sbsS'IwMatAnim.h'
p2381
g362
(g1741
g364
Ntp2382
Rp2383
(dp2384
g1745
g1538
sg1746
g1887
sg389
g1566
sbsS'IwGeomFVec4.h'
p2385
g362
(g1741
g364
Ntp2386
Rp2387
(dp2388
g1745
g1438
sg1746
g1807
sg389
g1506
sbsS'IwGx.h'
p2389
g362
(g1741
g364
Ntp2390
Rp2391
(dp2392
g1745
g1538
sg1746
g1887
sg389
g1555
sbsS'valarray'
p2393
g362
(g1741
g364
Ntp2394
Rp2395
(dp2396
g1745
g1753
sg1746
g1754
sg389
S'c:/marmalade/7.10/s3e/h/std/c++/valarray'
p2397
sbsS'iosfwd'
p2398
g362
(g1741
g364
Ntp2399
Rp2400
(dp2401
g1745
g1753
sg1746
g1754
sg389
S'c:/marmalade/7.10/s3e/h/std/c++/iosfwd'
p2402
sbsS'gl2.h'
p2403
g362
(g1741
g364
Ntp2404
Rp2405
(dp2406
g1745
g1753
sg1746
g2007
sg389
S'c:/marmalade/7.10/s3e/h/GLES2/gl2.h'
p2407
sbsS'jpegint.h'
p2408
g362
(g1741
g364
Ntp2409
Rp2410
(dp2411
g1745
g1708
sg1746
g1841
sg389
g1729
sbsS'stdiostream.h'
p2412
g362
(g1741
g364
Ntp2413
Rp2414
(dp2415
g1745
g1753
sg1746
g1754
sg389
S'c:/marmalade/7.10/s3e/h/std/c++/stdiostream.h'
p2416
sbsS'mem.h'
p2417
g362
(g1741
g364
Ntp2418
Rp2419
(dp2420
g1745
g1753
sg1746
g1754
sg389
S'c:/marmalade/7.10/s3e/h/std/c++/mem.h'
p2421
sbsS'jerror.h'
p2422
g362
(g1741
g364
Ntp2423
Rp2424
(dp2425
g1745
g1708
sg1746
g1841
sg389
g1715
sbsS'zconf.h'
p2426
g362
(g1741
g364
Ntp2427
Rp2428
(dp2429
g1745
g1697
sg1746
(lp2430
g1692
ag1251
asg389
g1695
sbsS's3e.config.txt'
p2431
g362
(g1741
g364
Ntp2432
Rp2433
(dp2434
g1745
g1753
sg1746
g1769
sg389
S'c:/marmalade/7.10/s3e/s3e.config.txt'
p2435
sbsS'numeric'
p2436
g362
(g1741
g364
Ntp2437
Rp2438
(dp2439
g1745
g1753
sg1746
g1754
sg389
S'c:/marmalade/7.10/s3e/h/std/c++/numeric'
p2440
sbsS'utime.h'
p2441
g362
(g1741
g364
Ntp2442
Rp2443
(dp2444
g1745
g1753
sg1746
g1775
sg389
S'c:/marmalade/7.10/s3e/h/std/utime.h'
p2445
sbsS'jdhuff.h'
p2446
g362
(g1741
g364
Ntp2447
Rp2448
(dp2449
g1745
g1708
sg1746
g1841
sg389
g1709
sbsS'IwResHandlerWAV.cpp'
p2450
g362
(g1741
g364
Ntp2451
Rp2452
(dp2453
g1745
g1285
sg1746
g1793
sg389
g1312
sbsS'IwGxStream.h'
p2454
g362
(g1741
g364
Ntp2455
Rp2456
(dp2457
g1745
g1538
sg1746
g1887
sg389
g1572
sbsS'IwImage.h'
p2458
g362
(g1741
g364
Ntp2459
Rp2460
(dp2461
g1745
g1592
sg1746
g1782
sg389
g1597
sbsS's3eImagePicker.h'
p2462
g362
(g1741
g364
Ntp2463
Rp2464
(dp2465
g1745
g1753
sg1746
g1970
sg389
S'c:/marmalade/7.10/s3e/h/ext/s3eImagePicker.h'
p2466
sbsS'stdlib.h'
p2467
g362
(g1741
g364
Ntp2468
Rp2469
(dp2470
g1745
g1753
sg1746
g1775
sg389
S'c:/marmalade/7.10/s3e/h/std/stdlib.h'
p2471
sbsS'IwCopyingPtr.h'
p2472
g362
(g1741
g364
Ntp2473
Rp2474
(dp2475
g1745
g1592
sg1746
g1782
sg389
g1672
sbsS'iostream'
p2476
g362
(g1741
g364
Ntp2477
Rp2478
(dp2479
g1745
g1753
sg1746
g1754
sg389
S'c:/marmalade/7.10/s3e/h/std/c++/iostream'
p2480
sbsS'png.h'
p2481
g362
(g1741
g364
Ntp2482
Rp2483
(dp2484
g1745
g1255
sg1746
(lp2485
g1249
ag1251
asg389
g1253
sbsS'stddef.h'
p2486
g362
(g1741
g364
Ntp2487
Rp2488
(dp2489
g1745
g1753
sg1746
g1775
sg389
S'c:/marmalade/7.10/s3e/h/std/stddef.h'
p2490
sbsS'setjmp_win32.h'
p2491
g362
(g1741
g364
Ntp2492
Rp2493
(dp2494
g1745
g1753
sg1746
g1775
sg389
S'c:/marmalade/7.10/s3e/h/std/setjmp_win32.h'
p2495
sbsS'IwGxPrint.h'
p2496
g362
(g1741
g364
Ntp2497
Rp2498
(dp2499
g1745
g1538
sg1746
g1887
sg389
g1536
sbsS'iwgx_public.defines.txt'
p2500
g362
(g1741
g364
Ntp2501
Rp2502
(dp2503
g1745
g1538
sg1746
g1887
sg389
g1584
sbsS'streambuf.h'
p2504
g362
(g1741
g364
Ntp2505
Rp2506
(dp2507
g1745
g1753
sg1746
g1754
sg389
S'c:/marmalade/7.10/s3e/h/std/c++/streambuf.h'
p2508
sbsS'IwGeomFPlane.h'
p2509
g362
(g1741
g364
Ntp2510
Rp2511
(dp2512
g1745
g1438
sg1746
g1807
sg389
g1480
sbsS'wchar.h'
p2513
g362
(g1741
g364
Ntp2514
Rp2515
(dp2516
g1745
g1753
sg1746
g1775
sg389
S'c:/marmalade/7.10/s3e/h/std/wchar.h'
p2517
sbsS's3eCameraCapture.h'
p2518
g362
(g1741
g364
Ntp2519
Rp2520
(dp2521
g1745
g1753
sg1746
g1970
sg389
S'c:/marmalade/7.10/s3e/h/ext/s3eCameraCapture.h'
p2522
sbsS'eglext.h'
p2523
g362
(g1741
g364
Ntp2524
Rp2525
(dp2526
g1745
g1753
sg1746
g2094
sg389
S'c:/marmalade/7.10/s3e/h/EGL/eglext.h'
p2527
sbsS'IwResHandlerImage.h'
p2528
g362
(g1741
g364
Ntp2529
Rp2530
(dp2531
g1745
g1514
sg1746
g2015
sg389
g1517
sbsS'strstream.h'
p2532
g362
(g1741
g364
Ntp2533
Rp2534
(dp2535
g1745
g1753
sg1746
g1754
sg389
S'c:/marmalade/7.10/s3e/h/std/c++/strstream.h'
p2536
sbsS'tiniconv.h'
p2537
g362
(g1741
g364
Ntp2538
Rp2539
(dp2540
g1745
g1270
sg1746
g2215
sg389
g1268
sbsS'IwGLExt.h'
p2541
g362
(g1741
g364
Ntp2542
Rp2543
(dp2544
g1745
g1395
sg1746
g1763
sg389
g1398
sbsS'app.icf'
p2545
g362
(g1741
g364
Ntp2546
Rp2547
(dp2548
g1745
(dp2549
sg1746
g4
sg389
S'd:/Marmalade/Stage1/data/app.icf'
p2550
sbsS'IwClassFactory.h'
p2551
g362
(g1741
g364
Ntp2552
Rp2553
(dp2554
g1745
g1592
sg1746
g1782
sg389
g1605
sbsS'file.h'
p2555
g362
(g1741
g364
Ntp2556
Rp2557
(dp2558
g1745
g1753
sg1746
g1901
sg389
S'c:/marmalade/7.10/s3e/h/std/sys/file.h'
p2559
sbsS'cstring'
p2560
g362
(g1741
g364
Ntp2561
Rp2562
(dp2563
g1745
g1753
sg1746
g1754
sg389
S'c:/marmalade/7.10/s3e/h/std/c++/cstring'
p2564
sbsS'IwSoundInst.cpp'
p2565
g362
(g1741
g364
Ntp2566
Rp2567
(dp2568
g1745
g1285
sg1746
g1793
sg389
g1314
sbsS'iwutil.config.txt'
p2569
g362
(g1741
g364
Ntp2570
Rp2571
(dp2572
g1745
g1592
sg1746
g1782
sg389
g1674
sbsS's3eSMS.h'
p2573
g362
(g1741
g364
Ntp2574
Rp2575
(dp2576
g1745
g1753
sg1746
g1970
sg389
S'c:/marmalade/7.10/s3e/h/ext/s3eSMS.h'
p2577
sbsS'limits.h'
p2578
g362
(g1741
g364
Ntp2579
Rp2580
(dp2581
g1745
g1753
sg1746
g1775
sg389
S'c:/marmalade/7.10/s3e/h/std/limits.h'
p2582
sbsS'iwgl.config.txt'
p2583
g362
(g1741
g364
Ntp2584
Rp2585
(dp2586
g1745
g1395
sg1746
g1763
sg389
g1396
sbsS'IwMaterial.h'
p2587
g362
(g1741
g364
Ntp2588
Rp2589
(dp2590
g1745
g1538
sg1746
g1887
sg389
g1578
sbsS'amazon-ads-ios-sdk.mkf'
p2591
g362
(g1741
g364
Ntp2592
Rp2593
(dp2594
g1745
g1280
sg1746
(lp2595
g1276
asg389
g1278
sbsS'PVRTexTool_interface.cpp'
p2596
g362
(g1741
g364
Ntp2597
Rp2598
(dp2599
g1745
g1373
sg1746
(lp2600
g2362
ag1367
ag1369
asg389
g1371
sbsS'IwGxSurface.h'
p2601
g362
(g1741
g364
Ntp2602
Rp2603
(dp2604
g1745
g1538
sg1746
g1887
sg389
g1541
sbsS's3eSocket.h'
p2605
g362
(g1741
g364
Ntp2606
Rp2607
(dp2608
g1745
g1753
sg1746
g1769
sg389
S'c:/marmalade/7.10/s3e/h/s3eSocket.h'
p2609
sbsS'IwAutoFile.h'
p2610
g362
(g1741
g364
Ntp2611
Rp2612
(dp2613
g1745
g1592
sg1746
g1782
sg389
g1646
sbsS's3eVibra.h'
p2614
g362
(g1741
g364
Ntp2615
Rp2616
(dp2617
g1745
g1753
sg1746
g1769
sg389
S'c:/marmalade/7.10/s3e/h/s3eVibra.h'
p2618
sbsS'poll_1.h'
p2619
g362
(g1741
g364
Ntp2620
Rp2621
(dp2622
g1745
g1753
sg1746
g1901
sg389
S'c:/marmalade/7.10/s3e/h/std/sys/poll.h'
p2623
sbsS's3eThread.h'
p2624
g362
(g1741
g364
Ntp2625
Rp2626
(dp2627
g1745
g1753
sg1746
g1769
sg389
S'c:/marmalade/7.10/s3e/h/s3eThread.h'
p2628
sbsS'ucontext.h'
p2629
g362
(g1741
g364
Ntp2630
Rp2631
(dp2632
g1745
g1753
sg1746
g1775
sg389
S'c:/marmalade/7.10/s3e/h/std/ucontext.h'
p2633
sbsS'time.h'
p2634
g362
(g1741
g364
Ntp2635
Rp2636
(dp2637
g1745
g1753
sg1746
g1775
sg389
S'c:/marmalade/7.10/s3e/h/std/time.h'
p2638
sbsS'jchuff.h'
p2639
g362
(g1741
g364
Ntp2640
Rp2641
(dp2642
g1745
g1708
sg1746
g1841
sg389
g1727
sbsS'IwSoundPCM.cpp'
p2643
g362
(g1741
g364
Ntp2644
Rp2645
(dp2646
g1745
g1285
sg1746
g1793
sg389
g1286
sbsS's3eSoundRecord.h'
p2647
g362
(g1741
g364
Ntp2648
Rp2649
(dp2650
g1745
g1753
sg1746
g1769
sg389
S'c:/marmalade/7.10/s3e/h/s3eSoundRecord.h'
p2651
sbsS'IwFibre.h'
p2652
g362
(g1741
g364
Ntp2653
Rp2654
(dp2655
g1745
g1592
sg1746
g1782
sg389
g1618
sbsS's3eVersion.h'
p2656
g362
(g1741
g364
Ntp2657
Rp2658
(dp2659
g1745
g1753
sg1746
g1769
sg389
S'c:/marmalade/7.10/s3e/h/s3eVersion.h'
p2660
sbsS'input.cpp'
p2661
g362
(g1741
g364
Ntp2662
Rp2663
(dp2664
g1745
g1342
sg1746
g2175
sg389
g1347
sbsS'IwSoundGroup.h'
p2665
g362
(g1741
g364
Ntp2666
Rp2667
(dp2668
g1745
g1285
sg1746
g1793
sg389
g1331
sbsS'IwSoundWAV.h'
p2669
g362
(g1741
g364
Ntp2670
Rp2671
(dp2672
g1745
g1285
sg1746
g1793
sg389
g1310
sbsS'IwGxFontGlyph.h'
p2673
g362
(g1741
g364
Ntp2674
Rp2675
(dp2676
g1745
g1416
sg1746
g1747
sg389
g1430
sbsS's3eTypes.h'
p2677
g362
(g1741
g364
Ntp2678
Rp2679
(dp2680
g1745
g1753
sg1746
g1769
sg389
S'c:/marmalade/7.10/s3e/h/s3eTypes.h'
p2681
sbsS'IwSoundSpec.h'
p2682
g362
(g1741
g364
Ntp2683
Rp2684
(dp2685
g1745
g1285
sg1746
g1793
sg389
g1290
sbsS'signal_2.h'
p2686
g362
(g1741
g364
Ntp2687
Rp2688
(dp2689
g1745
g1753
sg1746
g1754
sg389
S'c:/marmalade/7.10/s3e/h/std/c++/signal.h'
p2690
sbsS'termios.h'
p2691
g362
(g1741
g364
Ntp2692
Rp2693
(dp2694
g1745
g1753
sg1746
g1775
sg389
S'c:/marmalade/7.10/s3e/h/std/termios.h'
p2695
sbsS's3eAmazonAds_interface.cpp'
p2696
g362
(g1741
g364
Ntp2697
Rp2698
(dp2699
g1745
g1359
sg1746
(lp2700
g1351
ag1353
ag1355
asg389
g1360
sbsS'slist'
p2701
g362
(g1741
g364
Ntp2702
Rp2703
(dp2704
g1745
g1753
sg1746
g1754
sg389
S'c:/marmalade/7.10/s3e/h/std/c++/slist'
p2705
sbsS'cstdlib'
p2706
g362
(g1741
g364
Ntp2707
Rp2708
(dp2709
g1745
g1753
sg1746
g1754
sg389
S'c:/marmalade/7.10/s3e/h/std/c++/cstdlib'
p2710
sbsS's3eLocation.h'
p2711
g362
(g1741
g364
Ntp2712
Rp2713
(dp2714
g1745
g1753
sg1746
g1769
sg389
S'c:/marmalade/7.10/s3e/h/s3eLocation.h'
p2715
sbsS'IwMemBucketHelpers.h'
p2716
g362
(g1741
g364
Ntp2717
Rp2718
(dp2719
g1745
g1592
sg1746
g1782
sg389
g1603
sbsS's3eHash.h'
p2720
g362
(g1741
g364
Ntp2721
Rp2722
(dp2723
g1745
g1753
sg1746
g1769
sg389
S'c:/marmalade/7.10/s3e/h/s3eHash.h'
p2724
sbsS'IwSoundGroup.cpp'
p2725
g362
(g1741
g364
Ntp2726
Rp2727
(dp2728
g1745
g1285
sg1746
g1793
sg389
g1324
sbsS'IwGeomFMat.h'
p2729
g362
(g1741
g364
Ntp2730
Rp2731
(dp2732
g1745
g1438
sg1746
g1807
sg389
g1496
sbsS'type_traits.h'
p2733
g362
(g1741
g364
Ntp2734
Rp2735
(dp2736
g1745
g1753
sg1746
g1754
sg389
S'c:/marmalade/7.10/s3e/h/std/c++/type_traits.h'
p2737
sbsS's3eAtomic.h'
p2738
g362
(g1741
g364
Ntp2739
Rp2740
(dp2741
g1745
g1753
sg1746
g1769
sg389
S'c:/marmalade/7.10/s3e/h/s3eAtomic.h'
p2742
sbsS'IwMenu.h'
p2743
g362
(g1741
g364
Ntp2744
Rp2745
(dp2746
g1745
g1592
sg1746
g1782
sg389
g1599
sbsS'IwResHandlerITX.h'
p2747
g362
(g1741
g364
Ntp2748
Rp2749
(dp2750
g1745
g1514
sg1746
g2015
sg389
g1519
sbsS'IwSoundData.h'
p2751
g362
(g1741
g364
Ntp2752
Rp2753
(dp2754
g1745
g1285
sg1746
g1793
sg389
g1320
sbsS'IwArray.h'
p2755
g362
(g1741
g364
Ntp2756
Rp2757
(dp2758
g1745
g1592
sg1746
g1782
sg389
g1601
sbsS'IwUTF8.h'
p2759
g362
(g1741
g364
Ntp2760
Rp2761
(dp2762
g1745
g1592
sg1746
g1782
sg389
g1682
sbsS'math_rvct.h'
p2763
g362
(g1741
g364
Ntp2764
Rp2765
(dp2766
g1745
g1753
sg1746
g1775
sg389
S'c:/marmalade/7.10/s3e/h/std/math_rvct.h'
p2767
sbsS'IwUtil.h'
p2768
g362
(g1741
g364
Ntp2769
Rp2770
(dp2771
g1745
g1592
sg1746
g1782
sg389
g1616
sbsS'IwFColour.h'
p2772
g362
(g1741
g364
Ntp2773
Rp2774
(dp2775
g1745
g1538
sg1746
g1887
sg389
g1582
sbsS's3eamazonads.mkf'
p2776
g362
(g1741
g364
Ntp2777
Rp2778
(dp2779
g1745
g1364
sg1746
(lp2780
g1351
ag1353
asg389
g1362
sbsS'wctype.h'
p2781
g362
(g1741
g364
Ntp2782
Rp2783
(dp2784
g1745
g1753
sg1746
g1775
sg389
S'c:/marmalade/7.10/s3e/h/std/wctype.h'
p2785
sbsS'cstddef'
p2786
g362
(g1741
g364
Ntp2787
Rp2788
(dp2789
g1745
g1753
sg1746
g1754
sg389
S'c:/marmalade/7.10/s3e/h/std/c++/cstddef'
p2790
sbsS'assert.h'
p2791
g362
(g1741
g364
Ntp2792
Rp2793
(dp2794
g1745
g1753
sg1746
g1775
sg389
S'c:/marmalade/7.10/s3e/h/std/assert.h'
p2795
sbsS'mman.h'
p2796
g362
(g1741
g364
Ntp2797
Rp2798
(dp2799
g1745
g1753
sg1746
g1901
sg389
S'c:/marmalade/7.10/s3e/h/std/sys/mman.h'
p2800
sbsS'IwRandom.h'
p2801
g362
(g1741
g364
Ntp2802
Rp2803
(dp2804
g1745
g1592
sg1746
g1782
sg389
g1658
sbsS'libgen.h'
p2805
g362
(g1741
g364
Ntp2806
Rp2807
(dp2808
g1745
g1753
sg1746
g1775
sg389
S'c:/marmalade/7.10/s3e/h/std/libgen.h'
p2809
sbsS'utsname.h'
p2810
g362
(g1741
g364
Ntp2811
Rp2812
(dp2813
g1745
g1753
sg1746
g1901
sg389
S'c:/marmalade/7.10/s3e/h/std/sys/utsname.h'
p2814
sbsS'wait.h'
p2815
g362
(g1741
g364
Ntp2816
Rp2817
(dp2818
g1745
g1753
sg1746
g1901
sg389
S'c:/marmalade/7.10/s3e/h/std/sys/wait.h'
p2819
sbsS'param.h'
p2820
g362
(g1741
g364
Ntp2821
Rp2822
(dp2823
g1745
g1753
sg1746
g1901
sg389
S'c:/marmalade/7.10/s3e/h/std/sys/param.h'
p2824
sbsS'IwDivide.h'
p2825
g362
(g1741
g364
Ntp2826
Rp2827
(dp2828
g1745
g1592
sg1746
g1782
sg389
g1610
sbsS'IwResManager.h'
p2829
g362
(g1741
g364
Ntp2830
Rp2831
(dp2832
g1745
g1514
sg1746
g2015
sg389
g1521
sbsS'IwSoundManager.h'
p2833
g362
(g1741
g364
Ntp2834
Rp2835
(dp2836
g1745
g1285
sg1746
g1793
sg389
g1294
sbsS'cwctype'
p2837
g362
(g1741
g364
Ntp2838
Rp2839
(dp2840
g1745
g1753
sg1746
g1754
sg389
S'c:/marmalade/7.10/s3e/h/std/c++/cwctype'
p2841
sbsS'set'
p2842
g362
(g1741
g364
Ntp2843
Rp2844
(dp2845
g1745
g1753
sg1746
g1754
sg389
S'c:/marmalade/7.10/s3e/h/std/c++/set'
p2846
sbsS'IwGeomSQuat.h'
p2847
g362
(g1741
g364
Ntp2848
Rp2849
(dp2850
g1745
g1438
sg1746
g1807
sg389
g1482
sbsS'locale'
p2851
g362
(g1741
g364
Ntp2852
Rp2853
(dp2854
g1745
g1753
sg1746
g1754
sg389
S'c:/marmalade/7.10/s3e/h/std/c++/locale'
p2855
sbsS'cstdio'
p2856
g362
(g1741
g364
Ntp2857
Rp2858
(dp2859
g1745
g1753
sg1746
g1754
sg389
S'c:/marmalade/7.10/s3e/h/std/c++/cstdio'
p2860
sbsS'cdjpeg.h'
p2861
g362
(g1741
g364
Ntp2862
Rp2863
(dp2864
g1745
g1708
sg1746
g1841
sg389
g1713
sbsS'audio.h'
p2865
g362
(g1741
g364
Ntp2866
Rp2867
(dp2868
g1745
g1342
sg1746
g2175
sg389
g1343
sbsS'IwList.h'
p2869
g362
(g1741
g364
Ntp2870
Rp2871
(dp2872
g1745
g1592
sg1746
g1782
sg389
g1654
sbsS'inttypes.h'
p2873
g362
(g1741
g364
Ntp2874
Rp2875
(dp2876
g1745
g1753
sg1746
g1775
sg389
S'c:/marmalade/7.10/s3e/h/std/inttypes.h'
p2877
sbsS'dirent.h'
p2878
g362
(g1741
g364
Ntp2879
Rp2880
(dp2881
g1745
g1753
sg1746
g1775
sg389
S'c:/marmalade/7.10/s3e/h/std/dirent.h'
p2882
sbsS'IwGeomVec3.h'
p2883
g362
(g1741
g364
Ntp2884
Rp2885
(dp2886
g1745
g1438
sg1746
g1807
sg389
g1466
sbsS'transupp.h'
p2887
g362
(g1741
g364
Ntp2888
Rp2889
(dp2890
g1745
g1708
sg1746
g1841
sg389
g1711
sbsS'IwMath.h'
p2891
g362
(g1741
g364
Ntp2892
Rp2893
(dp2894
g1745
g1592
sg1746
g1782
sg389
g1628
sbsS'IwGeomQuat.h'
p2895
g362
(g1741
g364
Ntp2896
Rp2897
(dp2898
g1745
g1438
sg1746
g1807
sg389
g1436
sbsS'glplatform.h'
p2899
g362
(g1741
g364
Ntp2900
Rp2901
(dp2902
g1745
g1753
sg1746
g2324
sg389
S'c:/marmalade/7.10/s3e/h/GLES/glplatform.h'
p2903
sbsS's3e-default.mkf'
p2904
g362
(g1741
g364
Ntp2905
Rp2906
(dp2907
g1745
g1385
sg1746
(lp2908
g1381
asg389
g1383
sbsS'bitset'
p2909
g362
(g1741
g364
Ntp2910
Rp2911
(dp2912
g1745
g1753
sg1746
g1754
sg389
S'c:/marmalade/7.10/s3e/h/std/c++/bitset'
p2913
sbsS'alloca.h'
p2914
g362
(g1741
g364
Ntp2915
Rp2916
(dp2917
g1745
g1753
sg1746
g1775
sg389
S'c:/marmalade/7.10/s3e/h/std/alloca.h'
p2918
sbsS'IwResHandler.h'
p2919
g362
(g1741
g364
Ntp2920
Rp2921
(dp2922
g1745
g1514
sg1746
g2015
sg389
g1512
sbsS'IwResHandlerMTL.h'
p2923
g362
(g1741
g364
Ntp2924
Rp2925
(dp2926
g1745
g1538
sg1746
g1887
sg389
g1576
sbsS'IwRuntime.h'
p2927
g362
(g1741
g364
Ntp2928
Rp2929
(dp2930
g1745
g1592
sg1746
g1782
sg389
g1680
sbsS'limits'
p2931
g362
(g1741
g364
Ntp2932
Rp2933
(dp2934
g1745
g1753
sg1746
g1754
sg389
S'c:/marmalade/7.10/s3e/h/std/c++/limits'
p2935
sbsS'IwGeomBBox.h'
p2936
g362
(g1741
g364
Ntp2937
Rp2938
(dp2939
g1745
g1438
sg1746
g1807
sg389
g1486
sbsS's3eContacts.h'
p2940
g362
(g1741
g364
Ntp2941
Rp2942
(dp2943
g1745
g1753
sg1746
g1769
sg389
S'c:/marmalade/7.10/s3e/h/s3eContacts.h'
p2944
sbsS's3eLicense.h'
p2945
g362
(g1741
g364
Ntp2946
Rp2947
(dp2948
g1745
g1753
sg1746
g1769
sg389
S'c:/marmalade/7.10/s3e/h/s3eLicense.h'
p2949
sbsS'iwgx.config.txt'
p2950
g362
(g1741
g364
Ntp2951
Rp2952
(dp2953
g1745
g1538
sg1746
g1887
sg389
g1549
sbsS'IwTextParser.h'
p2954
g362
(g1741
g364
Ntp2955
Rp2956
(dp2957
g1745
g1592
sg1746
g1782
sg389
g1632
sbsS's3eTimer.h'
p2958
g362
(g1741
g364
Ntp2959
Rp2960
(dp2961
g1745
g1753
sg1746
g1769
sg389
S'c:/marmalade/7.10/s3e/h/s3eTimer.h'
p2962
sbsS'IwGeomVec.h'
p2963
g362
(g1741
g364
Ntp2964
Rp2965
(dp2966
g1745
g1438
sg1746
g1807
sg389
g1490
sbsS'IwSerialise.h'
p2967
g362
(g1741
g364
Ntp2968
Rp2969
(dp2970
g1745
g1592
sg1746
g1782
sg389
g1626
sbsS'cstdarg'
p2971
g362
(g1741
g364
Ntp2972
Rp2973
(dp2974
g1745
g1753
sg1746
g1754
sg389
S'c:/marmalade/7.10/s3e/h/std/c++/cstdarg'
p2975
sbsS'gl2ext.h'
p2976
g362
(g1741
g364
Ntp2977
Rp2978
(dp2979
g1745
g1753
sg1746
g2007
sg389
S'c:/marmalade/7.10/s3e/h/GLES2/gl2ext.h'
p2980
sbsS'IwChar.h'
p2981
g362
(g1741
g364
Ntp2982
Rp2983
(dp2984
g1745
g1592
sg1746
g1782
sg389
g1642
sbsS's3eSound.h'
p2985
g362
(g1741
g364
Ntp2986
Rp2987
(dp2988
g1745
g1753
sg1746
g1769
sg389
S'c:/marmalade/7.10/s3e/h/s3eSound.h'
p2989
sbsS'IwOptimiseThumb.h'
p2990
g362
(g1741
g364
Ntp2991
Rp2992
(dp2993
g1745
g1592
sg1746
g1782
sg389
g1644
sbsS'exception.h'
p2994
g362
(g1741
g364
Ntp2995
Rp2996
(dp2997
g1745
g1753
sg1746
g1754
sg389
S'c:/marmalade/7.10/s3e/h/std/c++/exception.h'
p2998
sbsS'iwgeom.config.txt'
p2999
g362
(g1741
g364
Ntp3000
Rp3001
(dp3002
g1745
g1438
sg1746
g1807
sg389
g1447
sbsS'gl31.h'
p3003
g362
(g1741
g364
Ntp3004
Rp3005
(dp3006
g1745
g1753
sg1746
g2062
sg389
S'c:/marmalade/7.10/s3e/h/GLES3/gl31.h'
p3007
sbsS'gl.h'
p3008
g362
(g1741
g364
Ntp3009
Rp3010
(dp3011
g1745
g1753
sg1746
g2324
sg389
S'c:/marmalade/7.10/s3e/h/GLES/gl.h'
p3012
sbsS'zlib.h'
p3013
g362
(g1741
g364
Ntp3014
Rp3015
(dp3016
g1745
g1697
sg1746
g2430
sg389
g1698
sbsS'temp_defines_release.h'
p3017
g362
(g1741
g364
Ntp3018
Rp3019
(dp3020
g1745
(lp3021
sg1746
(lp3022
S"'generated files'"
p3023
asg389
S'd:/Marmalade/Stage1/build_stage1_vc14/temp_defines_release.h'
p3024
sbsS'iwgl.mkf'
p3025
g362
(g1741
g364
Ntp3026
Rp3027
(dp3028
g1745
g1392
sg1746
g1763
sg389
g1390
sbsS'IwColour.h'
p3029
g362
(g1741
g364
Ntp3030
Rp3031
(dp3032
g1745
g1538
sg1746
g1887
sg389
g1551
sbsS's3eLibrary.h'
p3033
g362
(g1741
g364
Ntp3034
Rp3035
(dp3036
g1745
g1753
sg1746
g1970
sg389
S'c:/marmalade/7.10/s3e/h/ext/s3eLibrary.h'
p3037
sbsS'types.h'
p3038
g362
(g1741
g364
Ntp3039
Rp3040
(dp3041
g1745
g1753
sg1746
g1901
sg389
S'c:/marmalade/7.10/s3e/h/std/sys/types.h'
p3042
sbsS'ifaddrs.h'
p3043
g362
(g1741
g364
Ntp3044
Rp3045
(dp3046
g1745
g1753
sg1746
g1775
sg389
S'c:/marmalade/7.10/s3e/h/std/ifaddrs.h'
p3047
sbsS'strstream'
p3048
g362
(g1741
g364
Ntp3049
Rp3050
(dp3051
g1745
g1753
sg1746
g1754
sg389
S'c:/marmalade/7.10/s3e/h/std/c++/strstream'
p3052
sbsS'Stage1.cpp'
p3053
g362
(g1741
g364
Ntp3054
Rp3055
(dp3056
g1745
g1342
sg1746
g2175
sg389
g1345
sbsS'exception'
p3057
g362
(g1741
g364
Ntp3058
Rp3059
(dp3060
g1745
g1753
sg1746
g1754
sg389
S'c:/marmalade/7.10/s3e/h/std/c++/exception'
p3061
sbsS's3eAmazonAds.defines.txt'
p3062
g362
(g1741
g364
Ntp3063
Rp3064
(dp3065
g1745
g1359
sg1746
g2700
sg389
g1357
sbsS'rlocks.h'
p3066
g362
(g1741
g364
Ntp3067
Rp3068
(dp3069
g1745
g1753
sg1746
g1754
sg389
S'c:/marmalade/7.10/s3e/h/std/c++/rlocks.h'
p3070
sbsS'ioctl.h'
p3071
g362
(g1741
g364
Ntp3072
Rp3073
(dp3074
g1745
g1753
sg1746
g1901
sg389
S'c:/marmalade/7.10/s3e/h/std/sys/ioctl.h'
p3075
sbsS'rope'
p3076
g362
(g1741
g364
Ntp3077
Rp3078
(dp3079
g1745
g1753
sg1746
g1754
sg389
S'c:/marmalade/7.10/s3e/h/std/c++/rope'
p3080
sbsS'jinclude.h'
p3081
g362
(g1741
g364
Ntp3082
Rp3083
(dp3084
g1745
g1708
sg1746
g1841
sg389
g1731
sbsS'IwEvent.h'
p3085
g362
(g1741
g364
Ntp3086
Rp3087
(dp3088
g1745
g1592
sg1746
g1782
sg389
g1678
sbsS'IwOptimiseSize.h'
p3089
g362
(g1741
g364
Ntp3090
Rp3091
(dp3092
g1745
g1592
sg1746
g1782
sg389
g1668
sbsS'iwgxfont_public.defines.txt'
p3093
g362
(g1741
g364
Ntp3094
Rp3095
(dp3096
g1745
g1416
sg1746
g1747
sg389
g1426
sbsS'iconv.h'
p3097
g362
(g1741
g364
Ntp3098
Rp3099
(dp3100
g1745
g1753
sg1746
g1775
sg389
S'c:/marmalade/7.10/s3e/h/std/iconv.h'
p3101
sbsS'sendfile.h'
p3102
g362
(g1741
g364
Ntp3103
Rp3104
(dp3105
g1745
g1753
sg1746
g1901
sg389
S'c:/marmalade/7.10/s3e/h/std/sys/sendfile.h'
p3106
sbsS'IwGeomSphere.h'
p3107
g362
(g1741
g364
Ntp3108
Rp3109
(dp3110
g1745
g1438
sg1746
g1807
sg389
g1472
sbsS'tiniconv.mkf'
p3111
g362
(g1741
g364
Ntp3112
Rp3113
(dp3114
g1745
g1275
sg1746
g2215
sg389
g1273
sbsS'jdct.h'
p3115
g362
(g1741
g364
Ntp3116
Rp3117
(dp3118
g1745
g1708
sg1746
g1841
sg389
g1721
sbsS'cctype'
p3119
g362
(g1741
g364
Ntp3120
Rp3121
(dp3122
g1745
g1753
sg1746
g1754
sg389
S'c:/marmalade/7.10/s3e/h/std/c++/cctype'
p3123
sbsS'IwSoundADPCM.cpp'
p3124
g362
(g1741
g364
Ntp3125
Rp3126
(dp3127
g1745
g1285
sg1746
g1793
sg389
g1306
sbsS's3eConfig.h'
p3128
g362
(g1741
g364
Ntp3129
Rp3130
(dp3131
g1745
g1753
sg1746
g1769
sg389
S'c:/marmalade/7.10/s3e/h/s3eConfig.h'
p3132
sbsS'IwHashString.h'
p3133
g362
(g1741
g364
Ntp3134
Rp3135
(dp3136
g1745
g1592
sg1746
g1782
sg389
g1622
sbsS'stat.h'
p3137
g362
(g1741
g364
Ntp3138
Rp3139
(dp3140
g1745
g1753
sg1746
g1901
sg389
S'c:/marmalade/7.10/s3e/h/std/sys/stat.h'
p3141
sbsS'byteswap.h'
p3142
g362
(g1741
g364
Ntp3143
Rp3144
(dp3145
g1745
g1753
sg1746
g1775
sg389
S'c:/marmalade/7.10/s3e/h/std/byteswap.h'
p3146
sbsS'iwresmanager.mkf'
p3147
g362
(g1741
g364
Ntp3148
Rp3149
(dp3150
g1745
g1527
sg1746
g2015
sg389
g1525
sbsS'IwUtilInitTerm.h'
p3151
g362
(g1741
g364
Ntp3152
Rp3153
(dp3154
g1745
g1592
sg1746
g1782
sg389
g1676
sbsS'pthread_1.h'
p3155
g362
(g1741
g364
Ntp3156
Rp3157
(dp3158
g1745
g1753
sg1746
g1754
sg389
S'c:/marmalade/7.10/s3e/h/std/c++/pthread.h'
p3159
sbsS'iw2d.mkf'
p3160
g362
(g1741
g364
Ntp3161
Rp3162
(dp3163
g1745
g1404
sg1746
g1846
sg389
g1402
sbsS'complex'
p3164
g362
(g1741
g364
Ntp3165
Rp3166
(dp3167
g1745
g1753
sg1746
g1754
sg389
S'c:/marmalade/7.10/s3e/h/std/c++/complex'
p3168
sbsS'algorithm'
p3169
g362
(g1741
g364
Ntp3170
Rp3171
(dp3172
g1745
g1753
sg1746
g1754
sg389
S'c:/marmalade/7.10/s3e/h/std/c++/algorithm'
p3173
sbsS's3e.icf'
p3174
g362
(g1741
g364
Ntp3175
Rp3176
(dp3177
g1745
g1753
sg1746
g1769
sg389
S'c:/marmalade/7.10/s3e/s3e.icf'
p3178
sbsS'IwVariableBitField.h'
p3179
g362
(g1741
g364
Ntp3180
Rp3181
(dp3182
g1745
g1592
sg1746
g1782
sg389
g1670
sbsS'sem.h'
p3183
g362
(g1741
g364
Ntp3184
Rp3185
(dp3186
g1745
g1753
sg1746
g1901
sg389
S'c:/marmalade/7.10/s3e/h/std/sys/sem.h'
p3187
sbsS'IwGxFontState.h'
p3188
g362
(g1741
g364
Ntp3189
Rp3190
(dp3191
g1745
g1416
sg1746
g1747
sg389
g1424
sbsS'marmaladeexampleresources.mkf'
p3192
g362
(g1741
g364
Ntp3193
Rp3194
(dp3195
g1745
g1337
sg1746
(lp3196
g1333
asg389
g1335
sbsS'stdio.h'
p3197
g362
(g1741
g364
Ntp3198
Rp3199
(dp3200
g1745
g1753
sg1746
g1775
sg389
S'c:/marmalade/7.10/s3e/h/std/stdio.h'
p3201
sbsS'jmemsys.h'
p3202
g362
(g1741
g364
Ntp3203
Rp3204
(dp3205
g1745
g1708
sg1746
g1841
sg389
g1725
sbsS'ios'
p3206
g362
(g1741
g364
Ntp3207
Rp3208
(dp3209
g1745
g1753
sg1746
g1754
sg389
S'c:/marmalade/7.10/s3e/h/std/c++/ios'
p3210
sbsS'PVRTexTool.defines.txt'
p3211
g362
(g1741
g364
Ntp3212
Rp3213
(dp3214
g1745
g1373
sg1746
g2600
sg389
g1374
sbsS'stack'
p3215
g362
(g1741
g364
Ntp3216
Rp3217
(dp3218
g1745
g1753
sg1746
g1754
sg389
S'c:/marmalade/7.10/s3e/h/std/c++/stack'
p3219
sbsS'IwSoundParams.h'
p3220
g362
(g1741
g364
Ntp3221
Rp3222
(dp3223
g1745
g1285
sg1746
g1793
sg389
g1304
sbsS'new.h'
p3224
g362
(g1741
g364
Ntp3225
Rp3226
(dp3227
g1745
g1753
sg1746
g1754
sg389
S'c:/marmalade/7.10/s3e/h/std/c++/new.h'
p3228
sbsS's3eAmazonAds.h'
p3229
g362
(g1741
g364
Ntp3230
Rp3231
(dp3232
g1745
g1359
sg1746
g2780
sg389
g1365
sbsS's3eEMail.h'
p3233
g362
(g1741
g364
Ntp3234
Rp3235
(dp3236
g1745
g1753
sg1746
g1970
sg389
S'c:/marmalade/7.10/s3e/h/ext/s3eEMail.h'
p3237
sbsS's3eVideo.h'
p3238
g362
(g1741
g364
Ntp3239
Rp3240
(dp3241
g1745
g1753
sg1746
g1769
sg389
S'c:/marmalade/7.10/s3e/h/s3eVideo.h'
p3242
sbsS'pngconf.h'
p3243
g362
(g1741
g364
Ntp3244
Rp3245
(dp3246
g1745
g1255
sg1746
g2485
sg389
g1256
sbsS'pwd.h'
p3247
g362
(g1741
g364
Ntp3248
Rp3249
(dp3250
g1745
g1753
sg1746
g1775
sg389
S'c:/marmalade/7.10/s3e/h/std/pwd.h'
p3251
sbsS'gl3.h'
p3252
g362
(g1741
g364
Ntp3253
Rp3254
(dp3255
g1745
g1753
sg1746
g2062
sg389
S'c:/marmalade/7.10/s3e/h/GLES3/gl3.h'
p3256
sbsS'IwClip.h'
p3257
g362
(g1741
g364
Ntp3258
Rp3259
(dp3260
g1745
g1538
sg1746
g1887
sg389
g1547
sbsS'IwSoundInst.h'
p3261
g362
(g1741
g364
Ntp3262
Rp3263
(dp3264
g1745
g1285
sg1746
g1793
sg389
g1283
sbsS'iwresmanager.config.txt'
p3265
g362
(g1741
g364
Ntp3266
Rp3267
(dp3268
g1745
g1514
sg1746
g2015
sg389
g1515
sbsS'IwGxShaderTechnique.h'
p3269
g362
(g1741
g364
Ntp3270
Rp3271
(dp3272
g1745
g1538
sg1746
g1887
sg389
g1586
sbsS'IwCore.h'
p3273
g362
(g1741
g364
Ntp3274
Rp3275
(dp3276
g1745
g1592
sg1746
g1782
sg389
g1638
sbsS'cfloat'
p3277
g362
(g1741
g364
Ntp3278
Rp3279
(dp3280
g1745
g1753
sg1746
g1754
sg389
S'c:/marmalade/7.10/s3e/h/std/c++/cfloat'
p3281
sbsS'IwGeomMat2D.h'
p3282
g362
(g1741
g364
Ntp3283
Rp3284
(dp3285
g1745
g1438
sg1746
g1807
sg389
g1502
sbsS'IwAllocator.h'
p3286
g362
(g1741
g364
Ntp3287
Rp3288
(dp3289
g1745
g1592
sg1746
g1782
sg389
g1640
sbsS'IwPath.h'
p3290
g362
(g1741
g364
Ntp3291
Rp3292
(dp3293
g1745
g1592
sg1746
g1782
sg389
g1593
sbsS'iwgxfont.mkf'
p3294
g362
(g1741
g364
Ntp3295
Rp3296
(dp3297
g1745
g1421
sg1746
g1747
sg389
g1419
sbsS'IwTexture.h'
p3298
g362
(g1741
g364
Ntp3299
Rp3300
(dp3301
g1745
g1538
sg1746
g1887
sg389
g1570
sbsS'IwGeomVec.h.tpl'
p3302
g362
(g1741
g364
Ntp3303
Rp3304
(dp3305
g1745
g1438
sg1746
g1807
sg389
g1445
sbsS's3eAccelerometer.h'
p3306
g362
(g1741
g364
Ntp3307
Rp3308
(dp3309
g1745
g1753
sg1746
g1769
sg389
S'c:/marmalade/7.10/s3e/h/s3eAccelerometer.h'
p3310
sbsS'setjmp.h'
p3311
g362
(g1741
g364
Ntp3312
Rp3313
(dp3314
g1745
g1753
sg1746
g1775
sg389
S'c:/marmalade/7.10/s3e/h/std/setjmp.h'
p3315
sbsS'IwSoundParams.cpp'
p3316
g362
(g1741
g364
Ntp3317
Rp3318
(dp3319
g1745
g1285
sg1746
g1793
sg389
g1322
sbsS'IwFile.h'
p3320
g362
(g1741
g364
Ntp3321
Rp3322
(dp3323
g1745
g1592
sg1746
g1782
sg389
g1595
sbsS'IwTextParseable.h'
p3324
g362
(g1741
g364
Ntp3325
Rp3326
(dp3327
g1745
g1592
sg1746
g1782
sg389
g1664
sbsS'istream.h'
p3328
g362
(g1741
g364
Ntp3329
Rp3330
(dp3331
g1745
g1753
sg1746
g1754
sg389
S'c:/marmalade/7.10/s3e/h/std/c++/istream.h'
p3332
sbsS'stdint.h'
p3333
g362
(g1741
g364
Ntp3334
Rp3335
(dp3336
g1745
g1753
sg1746
g1775
sg389
S'c:/marmalade/7.10/s3e/h/std/stdint.h'
p3337
sbsS'semaphore.h'
p3338
g362
(g1741
g364
Ntp3339
Rp3340
(dp3341
g1745
g1753
sg1746
g1775
sg389
S'c:/marmalade/7.10/s3e/h/std/semaphore.h'
p3342
sbsS'ctime'
p3343
g362
(g1741
g364
Ntp3344
Rp3345
(dp3346
g1745
g1753
sg1746
g1754
sg389
S'c:/marmalade/7.10/s3e/h/std/c++/ctime'
p3347
sbsS'sstream'
p3348
g362
(g1741
g364
Ntp3349
Rp3350
(dp3351
g1745
g1753
sg1746
g1754
sg389
S'c:/marmalade/7.10/s3e/h/std/c++/sstream'
p3352
sbsS'IwGeomFBBox.h'
p3353
g362
(g1741
g364
Ntp3354
Rp3355
(dp3356
g1745
g1438
sg1746
g1807
sg389
g1449
sbsS'IwDebugPrim.h'
p3357
g362
(g1741
g364
Ntp3358
Rp3359
(dp3360
g1745
g1538
sg1746
g1887
sg389
g1557
sbsS'IwGxFontContainer.h'
p3361
g362
(g1741
g364
Ntp3362
Rp3363
(dp3364
g1745
g1416
sg1746
g1747
sg389
g1428
sbsS'IwGeomSVec3.h'
p3365
g362
(g1741
g364
Ntp3366
Rp3367
(dp3368
g1745
g1438
sg1746
g1807
sg389
g1460
sbsS's3eExt.h'
p3369
g362
(g1741
g364
Ntp3370
Rp3371
(dp3372
g1745
g1753
sg1746
g1769
sg389
S'c:/marmalade/7.10/s3e/h/s3eExt.h'
p3373
sbsS'IwGeomFVec3.h'
p3374
g362
(g1741
g364
Ntp3375
Rp3376
(dp3377
g1745
g1438
sg1746
g1807
sg389
g1500
sbsS'streambuf'
p3378
g362
(g1741
g364
Ntp3379
Rp3380
(dp3381
g1745
g1753
sg1746
g1754
sg389
S'c:/marmalade/7.10/s3e/h/std/c++/streambuf'
p3382
sbsS's3eMetrics.h'
p3383
g362
(g1741
g364
Ntp3384
Rp3385
(dp3386
g1745
g1753
sg1746
g1970
sg389
S'c:/marmalade/7.10/s3e/h/ext/s3eMetrics.h'
p3387
sbsS'IwGxFont.h'
p3388
g362
(g1741
g364
Ntp3389
Rp3390
(dp3391
g1745
g1416
sg1746
g1747
sg389
g1414
sbsS's3eSecureStorage.h'
p3392
g362
(g1741
g364
Ntp3393
Rp3394
(dp3395
g1745
g1753
sg1746
g1769
sg389
S'c:/marmalade/7.10/s3e/h/s3eSecureStorage.h'
p3396
sbsS'string.h'
p3397
g362
(g1741
g364
Ntp3398
Rp3399
(dp3400
g1745
g1753
sg1746
g1775
sg389
S'c:/marmalade/7.10/s3e/h/std/string.h'
p3401
sbsS'IwResource.h'
p3402
g362
(g1741
g364
Ntp3403
Rp3404
(dp3405
g1745
g1592
sg1746
g1782
sg389
g1666
sbsS'IwGeomSVec2.h'
p3406
g362
(g1741
g364
Ntp3407
Rp3408
(dp3409
g1745
g1438
sg1746
g1807
sg389
g1484
sbsS'libjpeg.mkf'
p3410
g362
(g1741
g364
Ntp3411
Rp3412
(dp3413
g1745
g1737
sg1746
(lp3414
g1703
asg389
g1735
sbsS'IwGxDebug.h'
p3415
g362
(g1741
g364
Ntp3416
Rp3417
(dp3418
g1745
g1538
sg1746
g1887
sg389
g1545
sbsS'float.h'
p3419
g362
(g1741
g364
Ntp3420
Rp3421
(dp3422
g1745
g1753
sg1746
g1775
sg389
S'c:/marmalade/7.10/s3e/h/std/float.h'
p3423
sbsS'iomanip.h'
p3424
g362
(g1741
g364
Ntp3425
Rp3426
(dp3427
g1745
g1753
sg1746
g1754
sg389
S'c:/marmalade/7.10/s3e/h/std/c++/iomanip.h'
p3428
sbsS'IwKeymap.h'
p3429
g362
(g1741
g364
Ntp3430
Rp3431
(dp3432
g1745
g1592
sg1746
g1782
sg389
g1636
sbsS'IwDebug.h'
p3433
g362
(g1741
g364
Ntp3434
Rp3435
(dp3436
g1745
g1592
sg1746
g1782
sg389
g1662
sbsS's3eIOSBackgroundAudio.h'
p3437
g362
(g1741
g364
Ntp3438
Rp3439
(dp3440
g1745
g1753
sg1746
g1970
sg389
S'c:/marmalade/7.10/s3e/h/ext/s3eIOSBackgroundAudio.h'
p3441
sbsS'IwGeomMenu.h'
p3442
g362
(g1741
g364
Ntp3443
Rp3444
(dp3445
g1745
g1438
sg1746
g1807
sg389
g1492
sbsS'IwDivTable.h'
p3446
g362
(g1741
g364
Ntp3447
Rp3448
(dp3449
g1745
g1592
sg1746
g1782
sg389
g1590
sbsS'ctype.h'
p3450
g362
(g1741
g364
Ntp3451
Rp3452
(dp3453
g1745
g1753
sg1746
g1775
sg389
S'c:/marmalade/7.10/s3e/h/std/ctype.h'
p3454
sbsS'IwGeomMat.h'
p3455
g362
(g1741
g364
Ntp3456
Rp3457
(dp3458
g1745
g1438
sg1746
g1807
sg389
g1504
sbsS'IwResGroup.h'
p3459
g362
(g1741
g364
Ntp3460
Rp3461
(dp3462
g1745
g1514
sg1746
g2015
sg389
g1530
sbsS'signal_1.h'
p3463
g362
(g1741
g364
Ntp3464
Rp3465
(dp3466
g1745
g1753
sg1746
g1901
sg389
S'c:/marmalade/7.10/s3e/h/std/sys/signal.h'
p3467
sbsS'IwSoundData.cpp'
p3468
g362
(g1741
g364
Ntp3469
Rp3470
(dp3471
g1745
g1285
sg1746
g1793
sg389
g1316
sbsS'functional'
p3472
g362
(g1741
g364
Ntp3473
Rp3474
(dp3475
g1745
g1753
sg1746
g1754
sg389
S'c:/marmalade/7.10/s3e/h/std/c++/functional'
p3476
sbsS'shm.h'
p3477
g362
(g1741
g364
Ntp3478
Rp3479
(dp3480
g1745
g1753
sg1746
g1901
sg389
S'c:/marmalade/7.10/s3e/h/std/sys/shm.h'
p3481
sbsS'IwManagedList.h'
p3482
g362
(g1741
g364
Ntp3483
Rp3484
(dp3485
g1745
g1592
sg1746
g1782
sg389
g1614
sbsS'prctl.h'
p3486
g362
(g1741
g364
Ntp3487
Rp3488
(dp3489
g1745
g1753
sg1746
g1901
sg389
S'c:/marmalade/7.10/s3e/h/std/sys/prctl.h'
p3490
sbsS'un.h'
p3491
g362
(g1741
g364
Ntp3492
Rp3493
(dp3494
g1745
g1753
sg1746
g1901
sg389
S'c:/marmalade/7.10/s3e/h/std/sys/un.h'
p3495
sbsS'temp_defines_debug.h'
p3496
g362
(g1741
g364
Ntp3497
Rp3498
(dp3499
g1745
(lp3500
sg1746
(lp3501
g3023
asg389
S'd:/Marmalade/Stage1/build_stage1_vc14/temp_defines_debug.h'
p3502
sbsS'utility'
p3503
g362
(g1741
g364
Ntp3504
Rp3505
(dp3506
g1745
g1753
sg1746
g1754
sg389
S'c:/marmalade/7.10/s3e/h/std/c++/utility'
p3507
sbsS'input.h'
p3508
g362
(g1741
g364
Ntp3509
Rp3510
(dp3511
g1745
g1342
sg1746
g2175
sg389
g1340
sbsS'IwGeomLegacy.h'
p3512
g362
(g1741
g364
Ntp3513
Rp3514
(dp3515
g1745
g1438
sg1746
g1807
sg389
g1474
sbsS'IwTPage.h'
p3516
g362
(g1741
g364
Ntp3517
Rp3518
(dp3519
g1745
g1538
sg1746
g1887
sg389
g1574
sbsS'IwResSerialise.h'
p3520
g362
(g1741
g364
Ntp3521
Rp3522
(dp3523
g1745
g1514
sg1746
g2015
sg389
g1523
sbsS's3eCrypto.h'
p3524
g362
(g1741
g364
Ntp3525
Rp3526
(dp3527
g1745
g1753
sg1746
g1769
sg389
S'c:/marmalade/7.10/s3e/h/s3eCrypto.h'
p3528
sbsS's3eKeyboard.h'
p3529
g362
(g1741
g364
Ntp3530
Rp3531
(dp3532
g1745
g1753
sg1746
g1769
sg389
S'c:/marmalade/7.10/s3e/h/s3eKeyboard.h'
p3533
sbsS'fcntl.h'
p3534
g362
(g1741
g364
Ntp3535
Rp3536
(dp3537
g1745
g1753
sg1746
g1775
sg389
S'c:/marmalade/7.10/s3e/h/std/fcntl.h'
p3538
sbsS'memory.h'
p3539
g362
(g1741
g364
Ntp3540
Rp3541
(dp3542
g1745
g1753
sg1746
g1775
sg389
S'c:/marmalade/7.10/s3e/h/std/memory.h'
p3543
sbsS'pthread.h'
p3544
g362
(g1741
g364
Ntp3545
Rp3546
(dp3547
g1745
g1753
sg1746
g1775
sg389
S'c:/marmalade/7.10/s3e/h/std/pthread.h'
p3548
sbsS'IwGeomIntersect.h'
p3549
g362
(g1741
g364
Ntp3550
Rp3551
(dp3552
g1745
g1438
sg1746
g1807
sg389
g1441
sbsS'IwTextParserITX.h'
p3553
g362
(g1741
g364
Ntp3554
Rp3555
(dp3556
g1745
g1592
sg1746
g1782
sg389
g1652
sbsS'egl_1.h'
p3557
g362
(g1741
g364
Ntp3558
Rp3559
(dp3560
g1745
g1753
sg1746
g2324
sg389
S'c:/marmalade/7.10/s3e/h/GLES/egl.h'
p3561
sbsS'ostream.h'
p3562
g362
(g1741
g364
Ntp3563
Rp3564
(dp3565
g1745
g1753
sg1746
g1754
sg389
S'c:/marmalade/7.10/s3e/h/std/c++/ostream.h'
p3566
sbsS'stl_user_config.h'
p3567
g362
(g1741
g364
Ntp3568
Rp3569
(dp3570
g1745
g1753
sg1746
g1754
sg389
S'c:/marmalade/7.10/s3e/h/std/c++/stl_user_config.h'
p3571
sbsS'iwgx.mkf'
p3572
g362
(g1741
g364
Ntp3573
Rp3574
(dp3575
g1745
g1563
sg1746
g1887
sg389
g1561
sbsS'IwProfileMenu.h'
p3576
g362
(g1741
g364
Ntp3577
Rp3578
(dp3579
g1745
g1592
sg1746
g1782
sg389
g1660
sbsS'MarmaladeVersion.h'
p3580
g362
(g1741
g364
Ntp3581
Rp3582
(dp3583
g1745
g1753
sg1746
g1769
sg389
S'c:/marmalade/7.10/s3e/h/MarmaladeVersion.h'
p3584
sbsS'IwResHandlerWAV.h'
p3585
g362
(g1741
g364
Ntp3586
Rp3587
(dp3588
g1745
g1285
sg1746
g1793
sg389
g1292
sbsS'gl3platform.h'
p3589
g362
(g1741
g364
Ntp3590
Rp3591
(dp3592
g1745
g1753
sg1746
g2062
sg389
S'c:/marmalade/7.10/s3e/h/GLES3/gl3platform.h'
p3593
sbsS'ios.h'
p3594
g362
(g1741
g364
Ntp3595
Rp3596
(dp3597
g1745
g1753
sg1746
g1754
sg389
S'c:/marmalade/7.10/s3e/h/std/c++/ios.h'
p3598
sbsS'IwImageHelper.h'
p3599
g362
(g1741
g364
Ntp3600
Rp3601
(dp3602
g1745
g1592
sg1746
g1782
sg389
g1684
sbsS'hash_set'
p3603
g362
(g1741
g364
Ntp3604
Rp3605
(dp3606
g1745
g1753
sg1746
g1754
sg389
S'c:/marmalade/7.10/s3e/h/std/c++/hash_set'
p3607
sbsS'IwGeomFQuat.h'
p3608
g362
(g1741
g364
Ntp3609
Rp3610
(dp3611
g1745
g1438
sg1746
g1807
sg389
g1470
sbsS'jmorecfg.h'
p3612
g362
(g1741
g364
Ntp3613
Rp3614
(dp3615
g1745
g1708
sg1746
g1841
sg389
g1719
sbsS'eglplatform.h'
p3616
g362
(g1741
g364
Ntp3617
Rp3618
(dp3619
g1745
g1753
sg1746
g2094
sg389
S'c:/marmalade/7.10/s3e/h/EGL/eglplatform.h'
p3620
sbsS'cmath'
p3621
g362
(g1741
g364
Ntp3622
Rp3623
(dp3624
g1745
g1753
sg1746
g1754
sg389
S'c:/marmalade/7.10/s3e/h/std/c++/cmath'
p3625
sbsS'math_gcc.h'
p3626
g362
(g1741
g364
Ntp3627
Rp3628
(dp3629
g1745
g1753
sg1746
g1775
sg389
S'c:/marmalade/7.10/s3e/h/std/math_gcc.h'
p3630
sbsS's3eMemory.h'
p3631
g362
(g1741
g364
Ntp3632
Rp3633
(dp3634
g1745
g1753
sg1746
g1769
sg389
S'c:/marmalade/7.10/s3e/h/s3eMemory.h'
p3635
sbsS'strings.h'
p3636
g362
(g1741
g364
Ntp3637
Rp3638
(dp3639
g1745
g1753
sg1746
g1775
sg389
S'c:/marmalade/7.10/s3e/h/std/strings.h'
p3640
sbsS's3eFile.h'
p3641
g362
(g1741
g364
Ntp3642
Rp3643
(dp3644
g1745
g1753
sg1746
g1769
sg389
S'c:/marmalade/7.10/s3e/h/s3eFile.h'
p3645
sbsS'IwGxTypes.h'
p3646
g362
(g1741
g364
Ntp3647
Rp3648
(dp3649
g1745
g1538
sg1746
g1887
sg389
g1553
sbsS'cerrno'
p3650
g362
(g1741
g364
Ntp3651
Rp3652
(dp3653
g1745
g1753
sg1746
g1754
sg389
S'c:/marmalade/7.10/s3e/h/std/c++/cerrno'
p3654
sbsS'IwSoundManager.cpp'
p3655
g362
(g1741
g364
Ntp3656
Rp3657
(dp3658
g1745
g1285
sg1746
g1793
sg389
g1318
sbsS'soundengine.mkf'
p3659
g362
(g1741
g364
Ntp3660
Rp3661
(dp3662
g1745
g1328
sg1746
g1793
sg389
g1326
sbsS'resource.h'
p3663
g362
(g1741
g364
Ntp3664
Rp3665
(dp3666
g1745
g1753
sg1746
g1901
sg389
S'c:/marmalade/7.10/s3e/h/std/sys/resource.h'
p3667
sbsS'clocale'
p3668
g362
(g1741
g364
Ntp3669
Rp3670
(dp3671
g1745
g1753
sg1746
g1754
sg389
S'c:/marmalade/7.10/s3e/h/std/c++/clocale'
p3672
sbsS'pvrtextool.mkf'
p3673
g362
(g1741
g364
Ntp3674
Rp3675
(dp3676
g1745
g1380
sg1746
g2361
sg389
g1378
sbsS'csetjmp'
p3677
g362
(g1741
g364
Ntp3678
Rp3679
(dp3680
g1745
g1753
sg1746
g1754
sg389
S'c:/marmalade/7.10/s3e/h/std/c++/csetjmp'
p3681
sbsS'netdb.h'
p3682
g362
(g1741
g364
Ntp3683
Rp3684
(dp3685
g1745
g1753
sg1746
g1775
sg389
S'c:/marmalade/7.10/s3e/h/std/netdb.h'
p3686
sbsS's3eAndroidJNI.h'
p3687
g362
(g1741
g364
Ntp3688
Rp3689
(dp3690
g1745
g1753
sg1746
g1970
sg389
S'c:/marmalade/7.10/s3e/h/ext/s3eAndroidJNI.h'
p3691
sbsS'stdexcept'
p3692
g362
(g1741
g364
Ntp3693
Rp3694
(dp3695
g1745
g1753
sg1746
g1754
sg389
S'c:/marmalade/7.10/s3e/h/std/c++/stdexcept'
p3696
sbsS'math.h'
p3697
g362
(g1741
g364
Ntp3698
Rp3699
(dp3700
g1745
g1753
sg1746
g1775
sg389
S'c:/marmalade/7.10/s3e/h/std/math.h'
p3701
sbsS'stdbool.h'
p3702
g362
(g1741
g364
Ntp3703
Rp3704
(dp3705
g1745
g1753
sg1746
g1775
sg389
S'c:/marmalade/7.10/s3e/h/std/stdbool.h'
p3706
sbsS'uio.h'
p3707
g362
(g1741
g364
Ntp3708
Rp3709
(dp3710
g1745
g1753
sg1746
g1901
sg389
S'c:/marmalade/7.10/s3e/h/std/sys/uio.h'
p3711
sbsS'IwUncopyable.h'
p3712
g362
(g1741
g364
Ntp3713
Rp3714
(dp3715
g1745
g1592
sg1746
g1782
sg389
g1656
sbssS'juice_build_type'
p3716
g4
sS'tests'
p3717
(lp3718
sS'project_name'
p3719
g370
sS'root_file'
p3720
g145
sS'current_root'
p3721
S'd:/Marmalade/Stage1'
p3722
sS'dependencies'
p3723
(lp3724
sS'include_paths'
p3725
(lp3726
S'c:/marmalade/7.10/extensions/s3eamazonads/h'
p3727
aS'c:/marmalade/7.10/modules/iwutil/h'
p3728
aS'c:/marmalade/7.10/modules/third_party/libjpeg/h'
p3729
aS'c:/marmalade/7.10/modules/third_party/zlib/h'
p3730
aS'c:/marmalade/7.10/modules/third_party/libpng/h'
p3731
aS'c:/marmalade/7.10/modules/iw2d/h'
p3732
aS'c:/marmalade/7.10/modules/iwgx/h'
p3733
aS'c:/marmalade/7.10/modules/iwgl/h'
p3734
aS'c:/marmalade/7.10/modules/iwgeom/h'
p3735
aS'c:/marmalade/7.10/modules/iwresmanager/h'
p3736
aS'c:/marmalade/7.10/extensions/pvrtextool/h'
p3737
aS'c:/marmalade/7.10/modules/iwgxfont/h'
p3738
aS'c:/marmalade/7.10/modules/third_party/tiniconv/source'
p3739
aS'd:/marmalade/modules/soundengine/h'
p3740
aS'd:/marmalade/modules/soundengine/source'
p3741
aS'c:/marmalade/7.10/s3e/h'
p3742
aS'c:/marmalade/7.10/s3e/h/ext'
p3743
aS'c:/marmalade/7.10/s3e/h/std'
p3744
aS'c:/marmalade/7.10/s3e/h/std/c++'
p3745
aS'c:/marmalade/7.10/s3e/h/ext_legacy'
p3746
aS'c:/marmalade/7.10/s3e/h/legacy'
p3747
asS'weak_frameworks'
p3748
(lp3749
sS'extprojects'
p3750
(dp3751
sg690
(dp3752
g684
(lp3753
(S'd:/Marmalade/Stage1/data/textures'
p3754
S'textures'
p3755
I0
tp3756
a(S'd:/Marmalade/Stage1/data/audio'
p3757
S'audio'
p3758
I0
tp3759
assS'macro_types'
p3760
(dp3761
g617
I0
sg619
I1
sg620
I0
sg621
I0
sg622
I0
sg623
I0
sg625
I0
sg626
I0
sg627
I0
sg628
I0
sg629
I0
sg630
I0
sg632
I0
sg633
I0
sg634
I0
sg635
I0
sg636
I0
sg637
I0
sg638
I0
sg639
I0
sg641
I0
sg642
I0
sg643
I0
sg644
I0
sg645
I0
sg646
I0
sg647
I0
sg648
I1
sg649
I0
sg650
I0
sg651
I0
sg652
I01
sg653
I1
sg654
I0
sg655
I0
sg656
I0
sg657
I0
sg658
I0
sg659
I0
ssS'commands'
p3762
(lp3763
sg692
(g1242
S'VC14'
p3764
S'X86ARMAARCH64'
p3765
tp3766
sS'build_libs'
p3767
(dp3768
sg694
g0
sS'frameworks'
p3769
(lp3770
sS'environ'
p3771
(dp3772
S'NACL_ROOT'
p3773
S'c:\\marmalade\\7.10/tools/gcc/x86_64/nacl_windows'
p3774
ssS'target_name_debug'
p3775
g370
sS'builders'
p3776
(dp3777
g684
(dp3778
S'.S'
p3779
(dp3780
S'gcc_aarch64'
p3781
(lp3782
S'.obj'
p3783
aS'echo AARCH64 Assembling(GCC) ${SOURCE}...'
p3784
aS'c:/marmalade/7.10/s3e\\gcc\\win32\\aarch64\\bin\\aarch64-none-elf-gcc -c -o ${TARGET} ${SOURCE}'
p3785
asS'rvct'
p3786
(lp3787
g3783
aS'echo ARM Assembling(RVCT) ${SOURCE}...'
p3788
aS'c:/marmalade/7.10/s3e\\rvct\\bin\\armasm -o ${TARGET} ${SOURCE}'
p3789
asg492
(lp3790
g3783
aS'echo ARM Assembling(GCC) ${SOURCE}...'
p3791
aS'c:/marmalade/7.10/s3e\\gcc\\win32\\arm\\bin\\arm-none-eabi-gcc -c -o ${TARGET} ${SOURCE}'
p3792
asS'ppu'
p3793
(lp3794
S'.a'
p3795
aS'echo PPU Assembling(SNC) ${SOURCE}...'
p3796
aS'c:/marmalade/7.10/s3e\\rvct\\bin\\armasm -o ${TARGET} ${SOURCE}'
p3797
assS'.s'
p3798
g3780
sS'.vp'
p3799
(lp3800
NaS'"C:/Marmalade/7.10/s3e/python/python.exe" "c:/marmalade/7.10/modules/iwgx/tools/compile_shaders.py" ${SOURCE}'
p3801
asssS'extproject_names'
p3802
(lp3803
sbtp3804
.