((dp0
S'arm_dbg_args'
p1
S'-via:"d:\\Marmalade\\Stage1\\build_stage1_vc14\\Stage1_vc14_arm_debug.via" -qemu'
p2
sS'game-icf'
p3
S''
p4
sS'dist'
p5
NsS'csproj'
p6
g4
sS'module_path_append'
p7
NsS'tizen_x86_dbg_exe'
p8
S'c:\\marmalade\\7.10\\s3e\\makefile_builder\\tool_launcher.exe'
p9
sS'global_path'
p10
S'd:\\marmalade'
p11
sS'system_path'
p12
S'c:\\marmalade\\7.10\\s3e\\makefile_builder'
p13
sS'android_x86_dbg_args'
p14
S'../../tools/DeployTool/DeployTool.exe --dir "d:\\Marmalade\\Stage1\\build_stage1_vc14"'
p15
sS'aarch64-arch-mod'
p16
g4
sS'no-emit'
p17
NsS'androidnativedebug'
p18
NsS'arm-float-abi'
p19
g4
sS'arm_rel_rtsm_args'
p20
S'-via:"d:\\Marmalade\\Stage1\\build_stage1_vc14\\Stage1_vc14_arm_release.via" -qemu'
p21
sS'amd64'
p22
NsS'line-width'
p23
I80
sS'gcc_dbg_args'
p24
S'-via:"d:\\Marmalade\\Stage1\\build_stage1_vc14\\Stage1_vc14_gcc_debug.via" -qemu'
p25
sS'sim-release-loader'
p26
NsS'android-x86'
p27
NsS'x86_dbg_exe'
p28
S'c:/marmalade/7.10/s3e\\win32\\s3e_simulator_debug.exe'
p29
sS'jflags'
p30
NsS'nacl_x86_64_rel_args'
p31
g15
sS'release'
p32
NsS'no-make'
p33
NsS'xcode-x86-build-settings'
p34
g4
sS'optimise-size'
p35
NsS'fat'
p36
NsS'output-name-debug'
p37
g4
sS'arm-fpu'
p38
g4
sS'proj_name'
p39
S'Stage1_vc14'
p40
sS'rvct-version'
p41
S'none'
p42
sS'compiler'
p43
g4
sS'execute'
p44
NsS'compile-static'
p45
NsS'nacl_x86_64_rel_exe'
p46
g9
sS'msvc-project'
p47
I01
sS'buildenv'
p48
S'VC14'
p49
sS'quick'
p50
NsS'module_path'
p51
NsS'mkf_default'
p52
S's3e-default.mkf'
p53
sS'use-release-std-libs'
p54
NsS'using_perforce'
p55
I00
sS'tizen-x86'
p56
NsS'mips-s3e'
p57
NsS's3e-api-lib-name'
p58
S's3e_api_iwgl'
p59
sS'ios-no-pic'
p60
NsS'shared-arm-lib'
p61
NsS'arm-cpu'
p62
g4
sS'compile-thumb'
p63
NsS'no-ide'
p64
NsS'msvc-version'
p65
S'6.0'
p66
sS'arm'
p67
NsS'nacl_x86_64_dbg_exe'
p68
g9
sS'builddir'
p69
g4
sS'compile-debug-as-release'
p70
I0
sS'arm-arch'
p71
g4
sS'brief'
p72
NsS'dll'
p73
NsS'buildenv-toolset'
p74
g4
sS'version'
p75
NsS'aarch64-arch'
p76
g4
sS'ccache'
p77
I0
sS'offline'
p78
NsS'ios-version'
p79
g4
sS'hub_data'
p80
g4
sS'fake_vc_call'
p81
I01
sS'jobs'
p82
I0
sS'linkflags'
p83
NsS'gcc_aarch64_dbg_args'
p84
g15
sS'nacl_x86_64_dbg_args'
p85
g15
sS'debug'
p86
NsS'xcode-build-order'
p87
g4
sS'gcc_aarch64_rel_rtsm_args'
p88
S'-via:"d:\\Marmalade\\Stage1\\build_stage1_vc14\\Stage1_vc14_gcc_aarch64_release.via" -qemu'
p89
sS'gcc_rel_rtsm_args'
p90
S'-via:"d:\\Marmalade\\Stage1\\build_stage1_vc14\\Stage1_vc14_gcc_release.via" -qemu'
p91
sS'done_defaults'
p92
I1
sS'path'
p93
(lp94
S'c:/marmalade/7.10/tools/gcc/x86_64/nacl_windows/toolchain/win_x86_glibc/bin'
p95
asS's3e-data-dir'
p96
S'd:/Marmalade/Stage1\\data'
p97
sS'enable-exceptions'
p98
NsS'osx-dll'
p99
NsS'extension'
p100
g4
sS'no-vc6'
p101
NsS'aarch64'
p102
NsS'win32-console'
p103
NsS'dist-format'
p104
g4
sS's3e-force-arch'
p105
NsS'dump_defines'
p106
NsS'use-shared-std-libs'
p107
NsS'gcc-version'
p108
g4
sS'x86_dbg_args'
p109
S'-via:"d:\\Marmalade\\Stage1\\build_stage1_vc14\\Stage1_vc14_debug.via"'
p110
sS'nacl'
p111
NsS'tizen_x86_dbg_args'
p112
g15
sS'arm-debugger'
p113
g4
sS'use_temp_extension'
p114
NsS'verbose'
p115
I0
sS'log'
p116
NsS'no-strip'
p117
NsS'rebuild'
p118
NsS'mips_dbg_args'
p119
g15
sS'win32-simulator-dll'
p120
NsS'strict'
p121
NsS'xcode-aarch64-build-settings'
p122
g4
sS'enable-global-path'
p123
NsS'gcc_aarch64_rel_args'
p124
g15
sS'cflags'
p125
NsS'dist-dir'
p126
g4
sS'xcode-arm-build-settings'
p127
g4
sS'disable-runtime-checks'
p128
NsS'csprojSDKRefs'
p129
g4
sS'tizen_x86_rel_exe'
p130
g9
sS'builddirroot'
p131
g4
sS'distcc'
p132
NsS'external-compiler'
p133
NsS'stripflags'
p134
NsS'retry-build'
p135
S'0'
p136
sS'preinclude'
p137
NsS'using_sdk'
p138
I01
sS'nologo'
p139
NsS'warn-level'
p140
I2
sS'mips_dbg_exe'
p141
g9
sS'mkb_in'
p142
S'd:/Marmalade/Stage1/Stage1.mkb'
p143
sS'no-objc-arc'
p144
NsS'app-icf'
p145
NsS'arm_dbg_exe'
p146
S'c:/marmalade/7.10/s3e\\bin\\armdebug.exe'
p147
sS'mdev-first'
p148
NsS'csprojDLLRef'
p149
NsS'tizen_x86_rel_args'
p150
g15
sS'android_x86_dbg_exe'
p151
g9
sS'naclx86_64'
p152
NsS'test-config'
p153
g4
sS'list-targets'
p154
NsS'arm_rel_exe'
p155
g9
sS'arm_rel_args'
p156
g15
sS'makedeps'
p157
NsS'android_x86_rel_exe'
p158
g9
sS'default-buildenv'
p159
S'vc14'
p160
sS'x86_rel_exe'
p161
S'c:/marmalade/7.10/s3e\\win32\\s3e_simulator_release.exe'
p162
sS'preprocess-java'
p163
NsS'mips_rel_args'
p164
g15
sS'test-assets'
p165
g4
sS'lib'
p166
NsS'non-interactive'
p167
NsS'global_argv'
p168
(lp169
S'C:\\Marmalade\\7.10\\s3e\\makefile_builder\\mkb.py'
p170
aS'd:/Marmalade/Stage1/Stage1.mkb'
p171
aS'--buildenv=VC14'
p172
aS'--fake-vc-call'
p173
aS'--default-buildenv=vc14'
p174
aS'--msvc-project'
p175
asS'make'
p176
NsS'optimise-speed'
p177
NsS'internal'
p178
NsS'enable-stdinc'
p179
NsS'defines'
p180
NsS'deploy-only'
p181
NsS'x86'
p182
NsS'deploy'
p183
g4
sS'objc-arc'
p184
NsS'x86_run_exe'
p185
S'c:/marmalade/7.10/s3e\\win32\\s3e_simulator_debug.exe'
p186
sS'cxxflags'
p187
NsS'x86_rel_args'
p188
S'-via:"d:\\Marmalade\\Stage1\\build_stage1_vc14\\Stage1_vc14_release.via"'
p189
sS'gcc_rel_args'
p190
g15
sS'mips'
p191
NsS'xcode-build-settings'
p192
g4
sS'csprojPostBuildActions'
p193
NsS'incredibuild'
p194
NsS'strict-compile'
p195
NsS'use-auto-subdirs'
p196
NsS'mips_rel_exe'
p197
g9
sS'android_x86_rel_args'
p198
g15
sS'no-distcc'
p199
NsS'deployargs'
p200
NsS'iosnativedebug'
p201
NsS'use_prebuilt'
p202
NsS'win-target-platform'
p203
g4
sS'mkf_in'
p204
(lp205
S'c:\\marmalade\\7.10\\s3e\\s3e-default.mkf'
p206
aS'c:\\marmalade\\7.10\\extensions\\s3eamazonads\\s3eamazonads.mkf'
p207
aS'c:\\marmalade\\7.10\\modules\\iwutil\\iwutil.mkf'
p208
aS'c:\\marmalade\\7.10\\modules\\third_party\\libjpeg\\libjpeg.mkf'
p209
aS'c:\\marmalade\\7.10\\modules\\third_party\\libpng\\libpng.mkf'
p210
aS'c:\\marmalade\\7.10\\modules\\third_party\\zlib\\zlib.mkf'
p211
aS'c:\\marmalade\\7.10\\platform_libs\\android\\amazon-ads-android-sdk\\amazon-ads-android-sdk.mkf'
p212
aS'c:\\marmalade\\7.10\\platform_libs\\iphone\\amazon-ads-ios-sdk\\amazon-ads-ios-sdk.mkf'
p213
aS'c:\\marmalade\\7.10\\modules\\iw2d\\iw2d.mkf'
p214
aS'c:\\marmalade\\7.10\\modules\\iwgx\\iwgx.mkf'
p215
aS'c:\\marmalade\\7.10\\modules\\iwgl\\iwgl.mkf'
p216
aS'c:\\marmalade\\7.10\\modules\\iwgeom\\iwgeom.mkf'
p217
aS'c:\\marmalade\\7.10\\modules\\iwresmanager\\iwresmanager.mkf'
p218
aS'c:\\marmalade\\7.10\\extensions\\pvrtextool\\pvrtextool.mkf'
p219
aS'c:\\marmalade\\7.10\\modules\\iwgxfont\\iwgxfont.mkf'
p220
aS'c:\\marmalade\\7.10\\modules\\third_party\\tiniconv\\tiniconv.mkf'
p221
asS'strict-mkb'
p222
NsS'executeargs'
p223
NsS'clean'
p224
NsS'no-asm'
p225
NsS'output-name'
p226
g4
sS'no-modules'
p227
NsS'find_define'
p228
g4
s(dp229
S'c:\\marmalade\\7.10\\s3e\\makefile_builder\\templates\\aarch64_linker_script'
p230
F1443314056.0
sS'c:\\marmalade\\7.10\\s3e\\makefile_builder\\plugins\\xcode4_schememanagement.py'
p231
F1443314056.0
sS'c:\\marmalade\\7.10\\s3e\\makefile_builder\\templates\\wp81_csproj.pyc'
p232
F1443317622.0
sS'c:\\marmalade\\7.10\\s3e\\makefile_builder\\plugins\\s3e_win10.pyc'
p233
F1443317622.0
sS'c:\\marmalade\\7.10\\s3e\\makefile_builder\\mkb_launcher.exe'
p234
F1443315030.0
sS'c:\\marmalade\\7.10\\s3e\\makefile_builder\\templates\\win8_ext_csproj.pyc'
p235
F1443317622.0
sS'c:\\marmalade\\7.10\\s3e\\makefile_builder\\templates\\ws8_ext_sln.pyc'
p236
F1443317588.0
sS'c:\\marmalade\\7.10\\s3e\\makefile_builder\\templates\\ws81_sln.pyc'
p237
F1443317680.0
sS'c:\\marmalade\\7.10\\s3e\\makefile_builder\\templates\\xcode4_DeployTool.xcscheme'
p238
F1443314058.0
sS'c:\\marmalade\\7.10\\s3e\\makefile_builder\\plugins\\linux_vc14.pyc'
p239
F1443317654.0
sS'c:\\marmalade\\7.10\\s3e\\makefile_builder\\templates\\ws81_vcxproj.pyc'
p240
F1443317670.0
sS'c:\\marmalade\\7.10\\s3e\\makefile_builder\\plugins\\MakeEmitter.pyc'
p241
F1443317622.0
sS'c:\\marmalade\\7.10\\s3e\\makefile_builder\\templates\\win8_sln.pyc'
p242
F1443317610.0
sS'c:\\marmalade\\7.10\\s3e\\makefile_builder\\templates\\wp8_ext_csproj.pyc'
p243
F1443317704.0
sS'c:\\marmalade\\7.10\\s3e\\makefile_builder\\templates\\ws8_ext_csproj.pyc'
p244
F1443317594.0
sS'c:\\marmalade\\7.10\\s3e\\makefile_builder\\plugins\\deploy.pyc'
p245
F1443317634.0
sS'c:\\marmalade\\7.10\\s3e\\makefile_builder\\mkb_upstream.pyc'
p246
F1443317644.0
sS'c:\\marmalade\\7.10\\s3e\\makefile_builder\\templates\\wp81_vcxproj.pyc'
p247
F1443317612.0
sS'c:\\marmalade\\7.10\\s3e\\makefile_builder\\templates\\vc14_androidnative_ext_sln.pyc'
p248
F1443317640.0
sS'c:\\marmalade\\7.10\\s3e\\makefile_builder\\tool_launcher.exe'
p249
F1443315032.0
sS'c:\\marmalade\\7.10\\s3e\\makefile_builder\\plugins\\wp81_wp81.pyc'
p250
F1443317580.0
sS'c:\\marmalade\\7.10\\s3e\\makefile_builder\\templates\\qmake_user.py'
p251
F1443314056.0
sS'c:\\marmalade\\7.10\\s3e\\makefile_builder\\templates\\template.opt'
p252
F1443314056.0
sS'c:\\marmalade\\7.10\\s3e\\makefile_builder\\templates\\ws8_csproj_user.pyc'
p253
F1443317586.0
sS'c:\\marmalade\\7.10\\s3e\\makefile_builder\\plugins\\osx_scons.pyc'
p254
F1443317596.0
sS'c:\\marmalade\\7.10\\s3e\\makefile_builder\\plugins\\s3e_make.pyc'
p255
F1443317570.0
sS'c:\\marmalade\\7.10\\s3e\\makefile_builder\\templates\\win32_vcxproj.pyc'
p256
F1443317682.0
sS'c:\\marmalade\\7.10\\s3e\\makefile_builder\\templates\\win32_vcxproj_filters.pyc'
p257
F1443317594.0
sS'c:\\marmalade\\7.10\\s3e\\makefile_builder\\templates\\win32_dsp.pyc'
p258
F1443317690.0
sS'c:\\marmalade\\7.10\\s3e\\makefile_builder\\plugins\\linux_scons.pyc'
p259
F1443317710.0
sS'c:\\marmalade\\7.10\\s3e\\makefile_builder\\templates\\ws8_sln.pyc'
p260
F1443317680.0
sS'c:\\marmalade\\7.10\\s3e\\makefile_builder\\templates\\mips_linker_script'
p261
F1443314056.0
sS'c:\\marmalade\\7.10\\s3e\\makefile_builder\\templates\\wp8_vcxproj.pyc'
p262
F1443317624.0
sS'c:\\marmalade\\7.10\\s3e\\makefile_builder\\docs'
p263
F1446019855.710399
sS'c:\\marmalade\\7.10\\s3e\\makefile_builder\\templates\\xcode4_arm.xcscheme'
p264
F1443314058.0
sS'c:\\marmalade\\7.10\\s3e\\makefile_builder\\mkb_option.pyc'
p265
F1443317578.0
sS'c:\\marmalade\\7.10\\s3e\\makefile_builder\\templates\\xcode.py'
p266
F1443314058.0
sS'c:\\marmalade\\7.10\\s3e\\makefile_builder\\templates\\ws81_ext_sln.pyc'
p267
F1443317604.0
sS'c:\\marmalade\\7.10\\s3e\\makefile_builder\\templates\\win10_csproj.pyc'
p268
F1443317704.0
sS'c:\\marmalade\\7.10\\s3e\\makefile_builder\\templates\\wp8_csproj_user.pyc'
p269
F1443317658.0
sS'c:\\marmalade\\7.10\\s3e\\makefile_builder\\plugins\\s3e_wp8.pyc'
p270
F1443317680.0
sS'c:\\marmalade\\7.10\\s3e\\makefile_builder\\templates\\qmake.py'
p271
F1443314056.0
sS'c:\\marmalade\\7.10\\s3e\\makefile_builder\\templates\\win32_dsw.pyc'
p272
F1443317576.0
sS'c:\\marmalade\\7.10\\s3e\\makefile_builder\\templates\\wp8_sln.pyc'
p273
F1443317596.0
sS'c:\\marmalade\\7.10\\s3e\\makefile_builder\\templates\\vc6_opt.pyc'
p274
F1443317684.0
sS'c:\\marmalade\\7.10\\s3e\\makefile_builder\\plugins\\win10_win10.pyc'
p275
F1443317686.0
sS'c:\\marmalade\\7.10\\s3e\\makefile_builder\\templates\\linker_script'
p276
F1443314056.0
sS'c:\\marmalade\\7.10\\s3e\\makefile_builder\\templates\\win10_ext_sln.pyc'
p277
F1443317588.0
sS'c:\\marmalade\\7.10\\s3e\\makefile_builder\\plugins\\Win8Emitter.pyc'
p278
F1443317652.0
sS'c:\\marmalade\\7.10\\s3e\\makefile_builder\\nacl.mkf'
p279
F1443314056.0
sS'c:\\marmalade\\7.10\\s3e\\makefile_builder\\templates\\win10_ext_csproj.pyc'
p280
F1443317582.0
sS'c:\\marmalade\\7.10\\s3e\\makefile_builder\\templates\\wp81_ext_sln.pyc'
p281
F1443317610.0
sS'c:\\marmalade\\7.10\\s3e\\makefile_builder\\plugins\\s3e_wp81.pyc'
p282
F1443317678.0
sS'c:\\marmalade\\7.10\\s3e\\makefile_builder\\templates\\win8_csproj_user.pyc'
p283
F1443317596.0
sS'c:\\marmalade\\7.10\\s3e\\makefile_builder\\docs\\deployment_options.txt'
p284
F1443314056.0
sS'c:\\marmalade\\7.10\\s3e\\makefile_builder\\plugins\\s3e_vc14_androidnative.pyc'
p285
F1443317612.0
sS'c:\\marmalade\\7.10\\s3e\\makefile_builder\\templates\\wp8_csproj.pyc'
p286
F1443317690.0
sS'c:\\marmalade\\7.10\\s3e\\makefile_builder\\plugins\\VisualStudioEmitter.pyc'
p287
F1443317624.0
sS'c:\\marmalade\\7.10\\s3e\\makefile_builder\\mkb.py'
p288
F1443314056.0
sS'c:\\marmalade\\7.10\\s3e\\makefile_builder\\mkb_globals.pyc'
p289
F1443317674.0
sS'c:\\marmalade\\7.10\\s3e\\makefile_builder\\templates\\win10_sln.pyc'
p290
F1443317688.0
sS'c:\\marmalade\\7.10\\s3e\\makefile_builder\\plugins\\null.pyc'
p291
F1443317640.0
sS'c:\\marmalade\\7.10\\s3e\\makefile_builder\\docs\\mkb.defines.txt'
p292
F1443314056.0
sS'c:\\marmalade\\7.10\\s3e\\makefile_builder\\templates\\vc7_suo.pyc'
p293
F1443317678.0
sS'c:\\marmalade\\7.10\\s3e\\makefile_builder\\plugins\\S3EEmitter.pyc'
p294
F1443317686.0
sS'c:\\marmalade\\7.10\\s3e\\makefile_builder\\templates\\ws81_ext_csproj.pyc'
p295
F1443317660.0
sS'c:\\marmalade\\7.10\\s3e\\makefile_builder\\templates\\win8_vcxproj.pyc'
p296
F1443317706.0
sS'c:\\marmalade\\7.10\\s3e\\makefile_builder\\plugins\\s3e_vc6.pyc'
p297
F1443317594.0
sS'c:\\marmalade\\7.10\\s3e\\makefile_builder\\templates\\vc10_user.pyc'
p298
F1443317674.0
sS'c:\\marmalade\\7.10\\s3e\\makefile_builder\\docs\\deprecated.options.txt'
p299
F1443314056.0
sS'c:\\marmalade\\7.10\\s3e\\makefile_builder\\docs\\deprecated.defines.txt'
p300
F1443314056.0
sS'c:\\marmalade\\7.10\\s3e\\makefile_builder\\templates\\wp81_sln.pyc'
p301
F1443317634.0
sS'c:\\marmalade\\7.10\\s3e\\makefile_builder\\templates\\rvct_linker_script'
p302
F1443314056.0
sS'c:\\marmalade\\7.10\\s3e\\makefile_builder\\templates\\win10_vcxproj.pyc'
p303
F1443317618.0
sS'c:\\marmalade\\7.10\\s3e\\makefile_builder\\templates\\vc14_androidproj.pyc'
p304
F1443317640.0
sS'c:\\marmalade\\7.10\\s3e\\makefile_builder\\plugins\\XcodeEmitter.pyc'
p305
F1446052656.065168
sS'c:\\marmalade\\7.10\\s3e\\makefile_builder\\plugins\\s3e_scons.pyc'
p306
F1443317644.0
sS'c:\\marmalade\\7.10\\s3e\\makefile_builder\\templates\\win32_sln.pyc'
p307
F1443317704.0
sS'c:\\marmalade\\7.10\\s3e\\makefile_builder\\templates\\wp81_ext_csproj.pyc'
p308
F1443317684.0
sS'c:\\marmalade\\7.10\\s3e\\makefile_builder\\templates\\wp81_csproj_user.pyc'
p309
F1443317632.0
sS'c:\\marmalade\\7.10\\s3e\\makefile_builder\\plugins\\win8_utils.pyc'
p310
F1443317686.0
sS'c:\\marmalade\\7.10\\s3e\\makefile_builder\\plugins\\win32_vc6.pyc'
p311
F1443317604.0
sS'c:\\marmalade\\7.10\\s3e\\makefile_builder\\plugins\\ws8_ws8.pyc'
p312
F1443317676.0
sS'c:\\marmalade\\7.10\\s3e\\makefile_builder\\templates\\ws81_csproj.pyc'
p313
F1443317608.0
sS'c:\\marmalade\\7.10\\s3e\\makefile_builder\\plugins\\s3e_qmake.py'
p314
F1443314056.0
sS'c:\\marmalade\\7.10\\s3e\\makefile_builder\\plugins\\Emitter.pyc'
p315
F1443317632.0
sS'c:\\marmalade\\7.10\\s3e\\makefile_builder\\plugins\\wp8_wp8.pyc'
p316
F1443317650.0
sS'c:\\marmalade\\7.10\\s3e\\makefile_builder\\plugins\\s3e_win8.pyc'
p317
F1443317610.0
sS'c:\\marmalade\\7.10\\s3e\\makefile_builder\\templates\\gdb_start.txt'
p318
F1443314056.0
sS'c:\\marmalade\\7.10\\s3e\\makefile_builder\\templates\\Info.plist'
p319
F1443314056.0
sS'c:\\marmalade\\7.10\\s3e\\makefile_builder\\plugins\\vc7_utils.pyc'
p320
F1443317620.0
sS'c:\\marmalade\\7.10\\s3e\\makefile_builder\\templates\\vc8_user.pyc'
p321
F1443317650.0
sS'c:\\marmalade\\7.10\\s3e\\makefile_builder\\plugins\\s3e_ws81.pyc'
p322
F1443317688.0
sS'c:\\marmalade\\7.10\\s3e\\makefile_builder\\templates\\win10_csproj_user.pyc'
p323
F1443317618.0
sS'c:\\marmalade\\7.10\\s3e\\makefile_builder\\templates\\xcode_pbxuser.py'
p324
F1443314058.0
sS'c:\\marmalade\\7.10\\s3e\\makefile_builder\\mkb_parser.pyc'
p325
F1443317612.0
sS'c:\\marmalade\\7.10\\s3e\\makefile_builder\\templates\\ws8_vcxproj.pyc'
p326
F1443317696.0
sS'c:\\marmalade\\7.10\\s3e\\makefile_builder\\plugins\\xcode4_schememanagement.pyc'
p327
F1446052656.0711737
sS'c:\\marmalade\\7.10\\s3e\\makefile_builder\\templates'
p328
F1446019856.4123716
sS'c:\\marmalade\\7.10\\s3e\\makefile_builder\\templates\\xcode4.xcscheme'
p329
F1443314058.0
sS'c:\\marmalade\\7.10\\s3e\\makefile_builder\\plugins\\ws81_ws81.pyc'
p330
F1443317638.0
sS'c:\\marmalade\\7.10\\s3e\\makefile_builder\\docs\\parse_options.pyc'
p331
F1443317690.0
sS'c:\\marmalade\\7.10\\s3e\\makefile_builder\\templates\\template.suo'
p332
F1443314056.0
sS'c:\\marmalade\\7.10\\s3e\\makefile_builder\\docs\\options.txt'
p333
F1443314056.0
sS'c:\\marmalade\\7.10\\s3e\\makefile_builder\\mkb_util.pyc'
p334
F1443317616.0
sS'c:\\marmalade\\7.10\\s3e\\makefile_builder\\templates\\ws81_csproj_user.pyc'
p335
F1443317686.0
sS'c:\\marmalade\\7.10\\s3e\\makefile_builder\\plugins\\s3e_qmake.pyc'
p336
F1446052656.1569195
sS'c:\\marmalade\\7.10\\s3e\\makefile_builder\\templates\\win32_vcproj.pyc'
p337
F1443317676.0
sS'c:\\marmalade\\7.10\\s3e\\makefile_builder\\templates\\vc14_androidnative_vcxproj.pyc'
p338
F1443317580.0
sS'c:\\marmalade\\7.10\\s3e\\makefile_builder\\plugins\\s3e_xcode.pyc'
p339
F1446052656.1934426
sS'c:\\marmalade\\7.10\\s3e\\makefile_builder\\plugins\\s3e_xcode.py'
p340
F1443314056.0
sS'c:\\marmalade\\7.10\\s3e\\makefile_builder\\templates\\MainWindow.xib'
p341
F1443314056.0
sS'c:\\marmalade\\7.10\\s3e\\makefile_builder\\plugins'
p342
F1446052656.1919422
sS'c:\\marmalade\\7.10\\s3e\\makefile_builder\\templates\\win8_csproj.pyc'
p343
F1443317710.0
sS'c:\\marmalade\\7.10\\s3e\\makefile_builder\\plugins\\s3e_web.pyc'
p344
F1443317636.0
sS'c:\\marmalade\\7.10\\s3e\\makefile_builder\\templates\\make.py'
p345
F1443314056.0
sS'c:\\marmalade\\7.10\\s3e\\makefile_builder\\plugins\\s3e_ws8.pyc'
p346
F1443317684.0
sS'c:\\marmalade\\7.10\\s3e\\makefile_builder\\deployment.pyc'
p347
F1443317652.0
sS'c:\\marmalade\\7.10\\s3e\\makefile_builder\\plugins\\XcodeEmitter.py'
p348
F1443314056.0
sS'c:\\marmalade\\7.10\\s3e\\makefile_builder\\plugins\\vc6_utils.pyc'
p349
F1443317682.0
sS'c:\\marmalade\\7.10\\s3e\\makefile_builder\\plugins\\SConsEmitter.pyc'
p350
F1443317608.0
sS'c:\\marmalade\\7.10\\s3e\\makefile_builder\\templates\\ws8_csproj.pyc'
p351
F1443317670.0
sS'c:\\marmalade\\7.10\\s3e\\makefile_builder\\plugins\\java.pyc'
p352
F1443317626.0
sS'c:\\marmalade\\7.10\\s3e\\makefile_builder\\plugins\\osx_xcode.pyc'
p353
F1443317590.0
sS'c:\\marmalade\\7.10\\s3e\\makefile_builder\\templates\\vc14_androidnative_sln.pyc'
p354
F1443317622.0
sS'c:\\marmalade\\7.10\\s3e\\makefile_builder\\templates\\scons.pyc'
p355
F1443317700.0
sS'c:\\marmalade\\7.10\\s3e\\makefile_builder\\mkb_main.pyc'
p356
F1443317632.0
sS'c:\\marmalade\\7.10\\s3e\\makefile_builder\\plugins\\iphone.pyc'
p357
F1443317654.0
sccopy_reg
_reconstructor
p358
(cmkb_main
MkbFile
p359
c__builtin__
object
p360
Ntp361
Rp362
(dp363
g5
(lp364
sS'target_name'
p365
S'Stage1'
p366
sS'current_file'
p367
g143
sS'package_path'
p368
(lp369
sS'post_build'
p370
(lp371
(lp372
S'c:/marmalade/7.10/s3e/tools'
p373
aS'C:\\Marmalade\\7.10\\s3e\\python\\python.exe .\\process_map.py "$(TargetPath)"'
p374
aa(S'c:\\marmalade\\7.10\\s3e\\bin'
p375
S'"s3e_plink" -l "$(TargetPath)" '
p376
g182
tp377
asS'librarys'
p378
(lp379
g358
(cmkb_main
Library
p380
g360
Ntp381
Rp382
(dp383
S'name'
p384
S'vc12_compat.lib'
p385
sS'expand_name'
p386
I00
sS'include_spec_rvct_objs'
p387
(lp388
sS'include_all_objs'
p389
I00
sS'share_arm'
p390
I00
sS'arch'
p391
S'x86'
p392
sS'nodebug'
p393
I00
sg43
Nsbag358
(g380
g360
Ntp394
Rp395
(dp396
g384
S'iwutil'
p397
sg386
I01
sg387
(lp398
sg389
Nsg390
Nsg391
Nsg393
I00
sg43
Nsbag358
(g380
g360
Ntp399
Rp400
(dp401
g384
S'jpeg'
p402
sg386
I01
sg387
g398
sg389
Nsg390
Nsg391
Nsg393
I00
sg43
Nsbag358
(g380
g360
Ntp403
Rp404
(dp405
g384
S'z'
p406
sg386
I01
sg387
g398
sg389
Nsg390
Nsg391
Nsg393
I00
sg43
Nsbag358
(g380
g360
Ntp407
Rp408
(dp409
g384
S'png'
p410
sg386
I01
sg387
g398
sg389
Nsg390
Nsg391
Nsg393
I00
sg43
Nsbag358
(g380
g360
Ntp411
Rp412
(dp413
g384
S'iw2d'
p414
sg386
I01
sg387
g398
sg389
Nsg390
Nsg391
Nsg393
I00
sg43
Nsbag358
(g380
g360
Ntp415
Rp416
(dp417
g384
S'ATI_Compress_MT_VC7.lib'
p418
sg386
I00
sg387
g398
sg389
Nsg390
Nsg391
S'x86'
p419
sg393
I00
sg43
Nsbag358
(g380
g360
Ntp420
Rp421
(dp422
g384
S'iwgx'
p423
sg386
I01
sg387
g398
sg389
Nsg390
Nsg391
Nsg393
I00
sg43
Nsbag358
(g380
g360
Ntp424
Rp425
(dp426
g384
S'iwgl'
p427
sg386
I01
sg387
g398
sg389
Nsg390
Nsg391
Nsg393
I00
sg43
Nsbag358
(g380
g360
Ntp428
Rp429
(dp430
g384
S'iwgeom'
p431
sg386
I01
sg387
g398
sg389
Nsg390
Nsg391
Nsg393
I00
sg43
Nsbag358
(g380
g360
Ntp432
Rp433
(dp434
g384
S'iwresmanager'
p435
sg386
I01
sg387
g398
sg389
Nsg390
Nsg391
Nsg393
I00
sg43
Nsbag358
(g380
g360
Ntp436
Rp437
(dp438
g384
S'iwgxfont'
p439
sg386
I01
sg387
g398
sg389
Nsg390
Nsg391
Nsg393
I00
sg43
Nsbag358
(g380
g360
Ntp440
Rp441
(dp442
g384
S'tiniconv'
p443
sg386
I01
sg387
g398
sg389
Nsg390
Nsg391
Nsg393
I00
sg43
Nsbag358
(g380
g360
Ntp444
Rp445
(dp446
g384
S's3e_cpp'
p447
sg386
I01
sg387
g388
sg389
I00
sg390
I00
sg391
Nsg393
I00
sg43
Nsbag358
(g380
g360
Ntp448
Rp449
(dp450
g384
S's3e_vc14'
p451
sg386
I01
sg387
(lp452
S'iwcrt.o'
p453
asg389
I00
sg390
I00
sg391
S'x86'
p454
sg393
I00
sg43
Nsbag358
(g380
g360
Ntp455
Rp456
(dp457
g384
S's3e'
p458
sg386
I01
sg387
(lp459
g453
asg389
I00
sg390
I00
sg391
S'!x86'
p460
sg393
I00
sg43
Nsbag358
(g380
g360
Ntp461
Rp462
(dp463
g384
g59
sg386
I01
sg387
g388
sg389
I00
sg390
I00
sg391
S'x86'
p464
sg393
I01
sg43
Nsbag358
(g380
g360
Ntp465
Rp466
(dp467
g384
g59
sg386
I01
sg387
g388
sg389
I00
sg390
I00
sg391
S'!x86'
p468
sg393
I01
sg43
Nsbag358
(g380
g360
Ntp469
Rp470
(dp471
g384
S'stdc++'
p472
sg386
I00
sg387
g388
sg389
I00
sg390
I00
sg391
S'mips'
p473
sg393
I00
sg43
Nsbag358
(g380
g360
Ntp474
Rp475
(dp476
g384
S'c'
p477
sg386
I00
sg387
g388
sg389
I00
sg390
I00
sg391
S'mips'
p478
sg393
I00
sg43
Nsbag358
(g380
g360
Ntp479
Rp480
(dp481
g384
S'm'
p482
sg386
I00
sg387
g388
sg389
I00
sg390
I00
sg391
S'mips'
p483
sg393
I00
sg43
Nsbag358
(g380
g360
Ntp484
Rp485
(dp486
g384
S'gcc'
p487
sg386
I00
sg387
g388
sg389
I00
sg390
I00
sg391
S'mips'
p488
sg393
I00
sg43
Nsbag358
(g380
g360
Ntp489
Rp490
(dp491
g384
g487
sg386
I00
sg387
g388
sg389
I00
sg390
I00
sg391
S'naclx86_64'
p492
sg393
I00
sg43
Nsbag358
(g380
g360
Ntp493
Rp494
(dp495
g384
S'gcc_eh'
p496
sg386
I00
sg387
g388
sg389
I00
sg390
I00
sg391
S'naclx86_64'
p497
sg393
I00
sg43
Nsbag358
(g380
g360
Ntp498
Rp499
(dp500
g384
g477
sg386
I00
sg387
g388
sg389
I00
sg390
I00
sg391
S'naclx86_64'
p501
sg393
I00
sg43
Nsbag358
(g380
g360
Ntp502
Rp503
(dp504
g384
g482
sg386
I00
sg387
g388
sg389
I00
sg390
I00
sg391
S'naclx86_64'
p505
sg393
I00
sg43
Nsbag358
(g380
g360
Ntp506
Rp507
(dp508
g384
S'supc++'
p509
sg386
I00
sg387
g388
sg389
I00
sg390
I00
sg391
S'naclx86_64'
p510
sg393
I00
sg43
Nsbag358
(g380
g360
Ntp511
Rp512
(dp513
g384
S'supc++'
p514
sg386
I00
sg387
g388
sg389
I00
sg390
I00
sg391
S'gcc_x86_android'
p515
sg393
I00
sg43
Nsbag358
(g380
g360
Ntp516
Rp517
(dp518
g384
g477
sg386
I00
sg387
g388
sg389
I00
sg390
I00
sg391
S'gcc_x86_android'
p519
sg393
I00
sg43
Nsbag358
(g380
g360
Ntp520
Rp521
(dp522
g384
g482
sg386
I00
sg387
g388
sg389
I00
sg390
I00
sg391
S'gcc_x86_android'
p523
sg393
I00
sg43
Nsbag358
(g380
g360
Ntp524
Rp525
(dp526
g384
g487
sg386
I00
sg387
g388
sg389
I00
sg390
I00
sg391
S'gcc_x86_android'
p527
sg393
I00
sg43
Nsbag358
(g380
g360
Ntp528
Rp529
(dp530
g384
S'dl'
p531
sg386
I00
sg387
g388
sg389
I00
sg390
I00
sg391
S'gcc_x86_android'
p532
sg393
I00
sg43
Nsbag358
(g380
g360
Ntp533
Rp534
(dp535
g384
S'supc++'
p536
sg386
I00
sg387
g388
sg389
I00
sg390
I00
sg391
S'gcc_arm_android'
p537
sg393
I00
sg43
Nsbag358
(g380
g360
Ntp538
Rp539
(dp540
g384
g477
sg386
I00
sg387
g388
sg389
I00
sg390
I00
sg391
S'gcc_arm_android'
p541
sg393
I00
sg43
Nsbag358
(g380
g360
Ntp542
Rp543
(dp544
g384
g482
sg386
I00
sg387
g388
sg389
I00
sg390
I00
sg391
S'gcc_arm_android'
p545
sg393
I00
sg43
Nsbag358
(g380
g360
Ntp546
Rp547
(dp548
g384
g487
sg386
I00
sg387
g388
sg389
I00
sg390
I00
sg391
S'gcc_arm_android'
p549
sg393
I00
sg43
Nsbag358
(g380
g360
Ntp550
Rp551
(dp552
g384
g531
sg386
I00
sg387
g388
sg389
I00
sg390
I00
sg391
S'gcc_arm_android'
p553
sg393
I00
sg43
NsbasS'library_paths'
p554
(lp555
g358
(cmkb_main
LibraryPath
p556
g360
Ntp557
Rp558
(dp559
S'expand_path'
p560
I01
sg384
S'c:/marmalade/7.10/modules/iwutil'
p561
sbag358
(g556
g360
Ntp562
Rp563
(dp564
g560
I01
sg384
S'c:/marmalade/7.10/modules/third_party/libjpeg'
p565
sbag358
(g556
g360
Ntp566
Rp567
(dp568
g560
I01
sg384
S'c:/marmalade/7.10/modules/third_party/zlib'
p569
sbag358
(g556
g360
Ntp570
Rp571
(dp572
g560
I01
sg384
S'c:/marmalade/7.10/modules/third_party/libpng'
p573
sbag358
(g556
g360
Ntp574
Rp575
(dp576
g560
I01
sg384
S'c:/marmalade/7.10/modules/iw2d'
p577
sbag358
(g556
g360
Ntp578
Rp579
(dp580
g560
I00
sg384
S'c:/marmalade/7.10/modules/iwgx/atitools'
p581
sbag358
(g556
g360
Ntp582
Rp583
(dp584
g560
I01
sg384
S'c:/marmalade/7.10/modules/iwgx'
p585
sbag358
(g556
g360
Ntp586
Rp587
(dp588
g560
I01
sg384
S'c:/marmalade/7.10/modules/iwgl'
p589
sbag358
(g556
g360
Ntp590
Rp591
(dp592
g560
I01
sg384
S'c:/marmalade/7.10/modules/iwgeom'
p593
sbag358
(g556
g360
Ntp594
Rp595
(dp596
g560
I01
sg384
S'c:/marmalade/7.10/modules/iwresmanager'
p597
sbag358
(g556
g360
Ntp598
Rp599
(dp600
g560
I01
sg384
S'c:/marmalade/7.10/modules/iwgxfont'
p601
sbag358
(g556
g360
Ntp602
Rp603
(dp604
g560
I01
sg384
S'c:/marmalade/7.10/modules/third_party/tiniconv'
p605
sbag358
(g556
g360
Ntp606
Rp607
(dp608
g560
I01
sg384
S'c:/marmalade/7.10/s3e'
p609
sbasS'macros'
p610
(dp611
S'IW_TRACE_CHANNEL_AMAZONADS'
p612
S'1'
p613
sS'IW_USE_CALLSTACK'
p614
NsS'IW_PLATFORM_S3E'
p615
NsS'I3D_PLATFORM_S3E'
p616
NsS'__S3E__'
p617
NsS'IW_TRACE_CHANNEL_AMAZONADS_VERBOSE'
p618
S'2'
p619
sS'IW_MKF_LIBJPEG'
p620
NsS'I3D_OS_S3E'
p621
NsS'IW_MKF_PVRTEXTOOL'
p622
NsS'IW_MKF_AMAZON_ADS_IOS_SDK'
p623
NsS'IW_MKF_TINICONV'
p624
NsS'IW_APP_VERSION'
p625
S'"1.0"'
p626
sS'IW_MKF_IWRESMANAGER'
p627
NsS'IW_MKF_FREELICENSE'
p628
NsS'IW_MKF_S3EAMAZONADS'
p629
NsS'IW_MKF_IWUTIL'
p630
NsS'IW_MKF_IWGEOM'
p631
NsS'IW_MKF_AMAZON_ADS_ANDROID_SDK'
p632
NsS'IW_ASSERTION_CHANNEL_2D'
p633
g613
sS'IW_APP_NAME'
p634
S'"Stage1"'
p635
sS'IW_MKF_S3E_DEFAULT'
p636
NsS'IW_MKF_IWGXFONT'
p637
NsS'IW_MKF_ZLIB'
p638
NsS'IW_MKF_IWGX'
p639
NsS'IW_ASSERTION_CHANNEL_AMAZONADS'
p640
g613
sS'IW_USE_ASSERTIONS'
p641
NsS'_CRT_SECURE_NO_DEPRECATE'
p642
NsS'IW_MKF_IWGL'
p643
NsS'IW_MKF_LIBPNG'
p644
NsS'IW_DEBUG'
p645
NsS'IW_USE_TRACING'
p646
NsS'IW_TRACE_CHANNEL_PVRTEXTOOL'
p647
g613
sS'IW_SDK'
p648
NsS'S3E_INCLUDE_LEGACY'
p649
NsS'IW_TRACE_CHANNEL_PVRTEXTOOL_VERBOSE'
p650
g619
sS'IW_MKF_IW2D'
p651
NsS'IW_ASSERTION_CHANNEL_PVRTEXTOOL'
p652
g613
ssS'done_warnings'
p653
(dp654
sS'subprojects'
p655
(dp656
g211
S'zlib'
p657
sg221
S'tiniconv'
p658
sg206
S's3e-default.mkf'
p659
sg219
S'PVRTexTool'
p660
sg218
S'iwresmanager'
p661
sg213
S'amazon-ads-ios-sdk'
p662
sg217
S'iwgeom'
p663
sg212
S'amazon-ads-android-sdk'
p664
sg215
S'iwgx'
p665
sg210
S'libpng'
p666
sg208
S'iwutil'
p667
sg207
S's3eAmazonAds'
p668
sg209
S'libjpeg'
p669
sg220
S'iwgxfont'
p670
sg216
S'iwgl'
p671
sg214
S'iw2d'
p672
ssS'deployments'
p673
(dp674
S'Default'
p675
g358
(cdeployment
Deployment
p676
g360
Ntp677
Rp678
(dp679
S'got_version'
p680
I0
sS'assets'
p681
g675
sS'mkb'
p682
g362
sS'target'
p683
Nsg391
(lp684
sS'options'
p685
(dp686
S'iphone-link-lib'
p687
(lp688
S's3eAmazonAds'
p689
asS'game-icf'
p690
NsS'android-tm'
p691
NsS'winmobile-icon32'
p692
NsS'ws8-logo-image150x150'
p693
NsS'wp81-logo-image150x150'
p694
NsS'win10-product-name'
p695
NsS'android-keystore'
p696
NsS'osx-ext-dll'
p697
(lp698
S'c:/marmalade/7.10/extensions/pvrtextool/lib/osx/libPVRTexTool.dylib'
p699
asS'iphone-provisioning-profile'
p700
NsS'win10-identity-name'
p701
NsS'ws8-splash-screen-image620x300'
p702
NsS'wp81-extra-pri'
p703
(lp704
sS'ws8-ext-capabilities'
p705
(lp706
sS'android-icon-hdpi'
p707
NsS'iphone-ipad-only'
p708
NsS'iphone-splash-full-orient'
p709
NsS'wp8-tile-fliptemplate-supports-large'
p710
NsS'iphone-show-status-bar'
p711
NsS'roku-requires-mkv'
p712
NsS'long-caption'
p713
NsS'android-pkgname'
p714
NsS'ws8-ext-native-only-dll'
p715
(lp716
sS'wp81-publisher-display-name'
p717
NsS'win10-logo-image150x150'
p718
NsS'blackberry-permissions-read-device-identifying-information'
p719
NsS'ws81-certificate-end-date'
p720
NsS'psp-dlgcontentid'
p721
NsS'android-version-code'
p722
NsS'win10-ext-uap-capabilities'
p723
(lp724
sS'iphone-minimum-ios-version'
p725
NsS'target-folder'
p726
NsS'tizen-dist1-CA-path'
p727
NsS'symbian-icon2-format'
p728
NsS'tizen-author-key'
p729
NsS'firefoxos-icon-128X128'
p730
NsS'iphone-region'
p731
NsS'uiq3-icon3-mask'
p732
NsS'brew-encoding'
p733
NsS'version'
p734
NsS'nds-initialcode'
p735
NsS'win10-ext-native-dll'
p736
(lp737
sS'iphone-persistent-wifi'
p738
NsS'psp-snd0'
p739
NsS'roku-icon-focus-hd'
p740
NsS'osx-appid'
p741
NsS'ws81-ext-native-only-dll'
p742
(lp743
sS'winmobile-install-folder'
p744
NsS'android-external-res'
p745
(lp746
sS'ws8-product-version'
p747
NsS'brew-priviledges'
p748
NsS'iphone-icon-ipad-search'
p749
NsS'iphone-icon-ipad'
p750
NsS'iphone-skip-icon-generation'
p751
NsS'nacl-icon-128X128'
p752
NsS'roku-hidden'
p753
NsS'psp-titlename'
p754
NsS'wp81-product-version'
p755
NsS'symbian-icon1-mask'
p756
NsS'psp-parentallevel'
p757
NsS'iphone-launch-storyboard'
p758
NsS'splashscreen-use-all'
p759
NsS'symbian-disable-ecompxl'
p760
NsS'splashscreen-auto-onblack'
p761
NsS'iphone-icon-dir'
p762
NsS'iphone-icon-extra'
p763
NsS'win32-ext-dll'
p764
(lp765
S'c:/marmalade/7.10/extensions/pvrtextool/lib/win32/PVRTexTool.dll'
p766
asS'iphone-development-key'
p767
NsS'winmobile-icon48'
p768
NsS'android-unsigned'
p769
NsS'osx-appstore-category'
p770
NsS'version-revision'
p771
NsS'roku-icon-focus-sd'
p772
NsS'ws81-product-version'
p773
NsS'winmobile-png90'
p774
NsS'iphone-icon-ipad-high-res'
p775
NsS'iphone-disable-ipad'
p776
NsS'win10-ext-sdk-ref'
p777
(lp778
sS'ws81-splash-screen-background'
p779
NsS'wp8-ext-capabilities'
p780
(lp781
sS'brew-icon-large'
p782
NsS'symbian-icon1-mask-black'
p783
NsS'ws8-extra-res'
p784
(lp785
sS'iphone-bundle-localisations'
p786
NsS'winmobile-png60'
p787
NsS'blackberry-permissions-access-shared'
p788
NsS'blackberry-author'
p789
NsS'android-icon-xxxhdpi'
p790
NsS'olddeploytoolstyle'
p791
NsS'android_icon_gallery'
p792
NsS'win10-distribution-pfx-password'
p793
NsS'wp81-splash-screen-background'
p794
NsS'wp8-exclude-720p'
p795
NsS'iphone-info-plist'
p796
NsS'ws81-ext-managed-dll'
p797
(lp798
sS'playbook-cskpass'
p799
NsS'win10-description'
p800
NsS'ws8-distribution-pfx-password'
p801
NsS'symbian-key'
p802
NsS'app-icf'
p803
NsS'blackberry-storepass'
p804
NsS'wp8-tile-fliptemplate-back-title'
p805
NsS'brew-compress-loader'
p806
NsS'iphone-testflight'
p807
NsS'win32-pref-windowposy'
p808
NsS'win32-pref-windowposx'
p809
NsS'roku-requires-audiometadata'
p810
NsS'wp8-exclude-low-mem'
p811
NsS'android-min-sdk-version'
p812
NsS'wp8-tile-fliptemplate-title'
p813
NsS'iphone-icon-ipad-search-high-res'
p814
NsS'iphone-link-libdir'
p815
(lp816
S'c:/marmalade/7.10/extensions/s3eamazonads/lib/iphone'
p817
asS'wp81-ext-capabilities'
p818
(lp819
sS'blackberry-permissions-read-geolocation'
p820
NsS'win10-splash-screen-image620x300'
p821
NsS'ws81-ext-device-capabilities'
p822
(lp823
sS'tizen-signed'
p824
NsS'android-extra-application-manifest'
p825
(lp826
S'c:/marmalade/7.10/extensions/s3eamazonads/source/android/ExtraAppManifests.xml'
p827
asS'android-x86'
p828
NsS'win10-extra-res'
p829
(lp830
sS'ws8-ext-native-dll'
p831
(lp832
sS'symbian-icon2-mask'
p833
NsS'iphone-launch-extra'
p834
NsS'webos-memory'
p835
NsS'android-keypass'
p836
NsS'name'
p837
NsS'uiq3-icon2-format'
p838
NsS'roku-splash-screen-sd'
p839
NsS'auto-derbh'
p840
NsS'roku-icon-side-sd'
p841
NsS'android-external-assets'
p842
(lp843
sS'nds-publicsavedatasize'
p844
NsS'splashscreen'
p845
NsS'wp8-product-id'
p846
NsS'iphone-icon-settings-high-res'
p847
NsS'android-manifest'
p848
NsS'ws81-splash-screen-image620x300'
p849
NsS'wp81-product-name'
p850
NsS's3e-compression'
p851
NsS'tizen-author-password'
p852
NsS'wp8-tile-fliptemplate-back-content'
p853
NsS'blackberry-extra-descriptor'
p854
(lp855
sS'android-java-source-version'
p856
NsS'symbian-icon1'
p857
NsS'symbian-icon2'
p858
NsS'nds-makercode'
p859
NsS'android-extra-styles-file'
p860
NsS'android-ext-target-sdk-version'
p861
(lp862
I17
asS'wp81-publisher-id'
p863
NsS'nds-bannertitle-jp'
p864
NsS'wp81-logo-image44x44'
p865
NsS'osx-sign-for-store'
p866
NsS'symbian7-uid'
p867
NsS'wp8-tile-fliptemplate-large-back-content'
p868
NsS'wp81-phone-publisher-id'
p869
NsS'nds-bannertitle-cn'
p870
NsS'iphone-distribution-key'
p871
NsS'win10-phone-publisher-id'
p872
NsS'android-icon-gallery'
p873
NsS'blackberry-keystore'
p874
NsS'iphone-nosign'
p875
NsS'caption'
p876
NsS'nacl-permissions'
p877
NsS'android-extra-manifest'
p878
(lp879
sS'wp81-ext-sdk-ref'
p880
(lp881
sS'android-icon-xxhdpi'
p882
NsS'version-minor'
p883
NsS'iphone-skip-launch-generation'
p884
NsS'iphone-link-libdirs'
p885
(lp886
sS'iphone-icon-large'
p887
NsS'symbian-keypwd'
p888
NsS'symbian8-uid'
p889
NsS'symbian-cert-key'
p890
NsS'winmobile-ampd-part-number'
p891
NsS'arch'
p892
NsS'nds-romheadertemplate'
p893
NsS'webos-icon'
p894
NsS'wp81-ext-device-capabilities'
p895
(lp896
sS'psp-dlgprotectdocument'
p897
NsS'ws8-splash-screen-background'
p898
NsS'android-icon-mdpi'
p899
NsS'android-sdk-build-tools-version'
p900
NsS'nds-icon'
p901
NsS'ws8-custom-manifest-fill'
p902
NsS'iphone-development-cert'
p903
NsS'symbian-icon2-mask-black'
p904
NsS'blackberry-phone-icon'
p905
NsS'iphone-enable-4inch-retina'
p906
NsS'ws8-custom-manifest'
p907
NsS'version-major'
p908
NsS'wp8-genre-isgame'
p909
NsS'uiq3-uid'
p910
NsS'iphone-splash-retina-generate'
p911
NsS'tizen-hw-acceleration'
p912
NsS'iphone_bundle_localisations'
p913
NsS'tizen-dist1-key'
p914
NsS'wp81-custom-manifest-fill'
p915
NsS'wp8-custom-manifest'
p916
NsS'nds-bannertitle-ge'
p917
NsS'iphone-sign-for-distribution'
p918
NsS'wp8-tile-fliptemplate-medium-back-image'
p919
NsS'wp8-publisher-id'
p920
NsS'icon'
p921
NsS'android-target-sdk-version'
p922
NsS'win10-ext-capabilities'
p923
(lp924
sS'wp8-exclude-wxga'
p925
NsS'wp81-identity-name'
p926
NsS'uiq3-icon2-mask'
p927
NsS'iphone-splashscreen-portrait'
p928
NsS'iphone-icon-high-res'
p929
NsS'ws81-distribution-pfx-password'
p930
NsS'playbook-author'
p931
NsS'wp8-custom-manifest-fill'
p932
NsS'linux-ext-lib'
p933
(lp934
sS'blackberry-permissions-access-internet'
p935
NsS'lgtv-use-drm'
p936
NsS'win10-splash-screen-image480x800'
p937
NsS'symbian-platsecflags'
p938
NsS'ws8-description'
p939
NsS'blackberry-playbook-icon'
p940
NsS'win10-distribution-cer'
p941
NsS'copyright'
p942
NsS'winmobile-cab-compress'
p943
NsS'win32-gles-directory'
p944
NsS'wp8-author'
p945
NsS'android-ext-min-sdk-version'
p946
(lp947
I4
asS'iphone-uiviewcontroller-based-status-bar'
p948
NsS'ws81-logo-image150x150'
p949
NsS'osx-signing-identity-app'
p950
NsS'tizen-project-url'
p951
NsS'symbian-icon-svg'
p952
NsS'android-aliasname'
p953
NsS'psp-dlgmanual'
p954
NsS'brew-uid'
p955
NsS'wp81-ext-native-only-dll'
p956
(lp957
sS'symbian-locationsupport'
p958
NsS'wp81-logo-image50x50'
p959
NsS'ws8-ext-managed-dll'
p960
(lp961
sS'nds-bannertitle-it'
p962
NsS'ws81-custom-manifest-fill'
p963
NsS'ws8-ext-sdk-manifest-part'
p964
(lp965
sS'uiq3-icon1-mask'
p966
NsS'winmobile-icon16'
p967
NsS'ws8-product-name'
p968
NsS'blackberry-cskpass'
p969
NsS'winmobile-start-menu-folder'
p970
NsS'brew-clsid'
p971
NsS'roku-requires-bluetooth'
p972
NsS'iphone-default-development-profile'
p973
NsS'ws8-ext-device-capabilities'
p974
(lp975
sS'blackberry-permissions-use-camera'
p976
NsS'ws81-extra-pri'
p977
(lp978
sS'iphone-prerendered-icon'
p979
NsS'iphone-appid'
p980
NsS'ws8-identity-name'
p981
NsS'tizen-dist2-CA-path'
p982
NsS'android-external-jars'
p983
(lp984
S'c:/marmalade/7.10/platform_libs/android/amazon-ads-android-sdk/third_party/lib/amazon-ads-5.5.149.jar'
p985
aS'c:/marmalade/7.10/extensions/s3eamazonads/lib/android/s3eAmazonAds.jar'
p986
asS'winmobile-icon64'
p987
NsS'blackberry-permissions-post-notification'
p988
NsS'winmobile-setup-dll'
p989
NsS'firefoxos-manifest'
p990
NsS'win8-winrt-extra-res'
p991
(lp992
sS'wp81-ext-sdk-manifest-part'
p993
(lp994
sS'symbian9-uid'
p995
NsS'iphone-icon-ipad-ios7'
p996
NsS'winmobile-trace-file'
p997
NsS'roku-splash-color'
p998
NsS'psp-appversion'
p999
NsS'android-java-target-version'
p1000
NsS'ws8-publisher-id'
p1001
NsS'win10-splash-screen-background'
p1002
NsS'win10-product-id'
p1003
NsS'win10-logo-image30x30'
p1004
NsS'winmobile-png45'
p1005
NsS'wp81-extra-res'
p1006
(lp1007
sS'android-storepass'
p1008
NsS'nacl-icon-16X16'
p1009
NsS'osx-signing-identity-inst'
p1010
NsS'android-custom-activity'
p1011
NsS'psp-discversion'
p1012
NsS'wp81-ext-managed-dll'
p1013
(lp1014
sS'nacl-clear-user-data'
p1015
NsS'psp-copyright'
p1016
NsS'win10-ext-managed-dll'
p1017
(lp1018
sS'win10-logo-image50x50'
p1019
NsS'embed-icf'
p1020
NsS'tizen-manifest'
p1021
NsS'osx-icon'
p1022
NsS'webos-appinfo'
p1023
NsS'psp-dlghealthwarning'
p1024
NsS'webos-appid'
p1025
NsS'roku-icon-side-hd'
p1026
NsS'iphone-icon-ipad-search-high-res-ios7'
p1027
NsS'iphone-extra-plist'
p1028
(lp1029
sS'ws81-ext-sdk-manifest-part'
p1030
(lp1031
sS'loader_name_prefix'
p1032
NsS'iphone-launch-dir'
p1033
NsS'nds-titlename'
p1034
NsS'ws81-logo-image50x50'
p1035
NsS'wp81-custom-manifest'
p1036
NsS'osx-entitlements-plist'
p1037
NsS'win10-product-version'
p1038
NsS'psp-dlgicon0'
p1039
NsS'winmobile-nouninstall'
p1040
NsS'psp-discid'
p1041
NsS'tizen-dist2-password'
p1042
NsS'android-supports-gl-texture'
p1043
(lp1044
sS'ws8-ext-sdk-ref'
p1045
(lp1046
sS'iphone-extra-string'
p1047
(lp1048
sS'version-string'
p1049
NsS'iphone-icon-high-res-ios7'
p1050
NsS'ws8-certificate-end-date'
p1051
NsS'nacl-skip-zip'
p1052
NsS'win10-custom-manifest'
p1053
NsS'tizen-so'
p1054
(lp1055
sS'win10-logo-image44x44'
p1056
NsS'win10-custom-manifest-fill'
p1057
NsS'wp8-tile-fliptemplate-small-image'
p1058
NsS'win10-certificate-end-date'
p1059
NsS'playbook-authorid'
p1060
NsS'win10-publisher-id'
p1061
NsS'iphone-signing-identity'
p1062
NsS'roku-persist-quota'
p1063
NsS'nds-bannertitle-fr'
p1064
NsS'ws8-distribution-pfx'
p1065
NsS'ws8-publisher-display-name'
p1066
NsS'brew-icon-small'
p1067
NsS'psp-dlgpic2'
p1068
NsS'psp-dlgpic0'
p1069
NsS'win10-phone-product-id'
p1070
NsS'psp-pic0'
p1071
NsS'psp-pic1'
p1072
NsS'win32-pref-windowtitle'
p1073
NsS'psp-icon0'
p1074
NsS'psp-icon1'
p1075
NsS'ws81-identity-name'
p1076
NsS'win10-distribution-pfx'
p1077
NsS'winmobile-icon'
p1078
NsS'iphone-no-splash'
p1079
NsS'iphone-splash'
p1080
NsS'iphone-app-fonts'
p1081
NsS'wp8-ext-native-dll'
p1082
(lp1083
sS'wp81-splash-screen-image480x800'
p1084
NsS'ws81-distribution-cer'
p1085
NsS'win10-ext-sdk-manifest-part'
p1086
(lp1087
sS'uiq3-icon2'
p1088
NsS'uiq3-icon3'
p1089
NsS'uiq3-icon1'
p1090
NsS'uiq3-icon1-format'
p1091
NsS'ws8-logo-image50x50'
p1092
NsS'iphone-info-plist-override'
p1093
NsS'symbian-run-on-install'
p1094
NsS'wp81-description'
p1095
NsS'ws81-publisher-display-name'
p1096
NsS'android-version-name'
p1097
NsS'firefoxos-xulrunner'
p1098
NsS'symbian-soundrecordsupport'
p1099
NsS'iphone-backgroundmode-audio'
p1100
NsS'nds-bannertitle-sp'
p1101
NsS'win10-extra-pri'
p1102
(lp1103
sS'psp-producer'
p1104
NsS'iphone-apple-wwdr-cert'
p1105
NsS'android-icon-nonstandard'
p1106
NsS'win32-pref-processtitle'
p1107
NsS'android-icon-xhdpi'
p1108
NsS'nds-bannertitle-hn'
p1109
NsS'tizen-dist2-key'
p1110
NsS'brew-depends'
p1111
NsS'ws81-custom-manifest'
p1112
NsS'iphone-allow-launch-rotation'
p1113
NsS'brew-mif'
p1114
NsS'iphone-icon-ipad-search-ios7'
p1115
NsS'brew-icon-medium'
p1116
NsS'iphone-bundle-url-name'
p1117
NsS'wp8-tile-fliptemplate-large-front-image'
p1118
NsS'tizen-dist2-CA-root-path'
p1119
NsS'ws81-description'
p1120
NsS'uiq3-icon3-format'
p1121
NsS'win10-publisher-display-name'
p1122
NsS'ws81-logo-image30x30'
p1123
NsS'win10-ext-device-capabilities'
p1124
(lp1125
sS'win8-phone-extra-res'
p1126
(lp1127
sS'iphone-signing-host'
p1128
NsS'tizen-icon'
p1129
NsS'osx-info-plist'
p1130
NsS'symbian-icon1-format'
p1131
NsS'ws81-distribution-pfx'
p1132
NsS'win32-aux-dll'
p1133
(lp1134
sS'blackberry-authorid'
p1135
NsS'ws81-publisher-id'
p1136
NsS'win8-store-extra-res'
p1137
(lp1138
sS'wp8-description'
p1139
NsS'iphone-link-opts'
p1140
(lp1141
S'-Fc:/marmalade/7.10/platform_libs/iphone/amazon-ads-ios-sdk/third_party/Ads -framework AmazonAd'
p1142
aS'-weak_framework AdSupport -weak_framework CoreLocation -weak_framework SystemConfiguration'
p1143
aS'-weak_framework CoreTelephony -weak_framework MediaPlayer'
p1144
aS'-weak_framework EventKit -weak_framework EventKitUI'
p1145
asS'ws81-ext-sdk-ref'
p1146
(lp1147
sS'roku-splash-min-time'
p1148
NsS'wp8-tile-fliptemplate-medium-front-image'
p1149
NsS'iphone-disable-launch-images'
p1150
NsS'android-sdk-platform-version'
p1151
NsS'provider'
p1152
NsS'playbook-keystore'
p1153
NsS'tizen-appid'
p1154
NsS'wp8-extra-res'
p1155
(lp1156
sS'symbian-osexecsupport'
p1157
NsS'android-install-location'
p1158
NsS'nds-privatesavedatasize'
p1159
NsS'iphone-disable-testflight'
p1160
NsS'playbook-storepass'
p1161
NsS'android-icon-ldpi'
p1162
NsS'manufacturer'
p1163
NsS'itunes-artwork'
p1164
NsS'iphone-extra-sections'
p1165
NsS'ws81-product-name'
p1166
NsS'ws81-ext-native-dll'
p1167
(lp1168
sS'ws8-extra-pri'
p1169
(lp1170
sS'win32-icon'
p1171
NsS'ws8-logo-image30x30'
p1172
NsS'wp8-ext-managed-dll'
p1173
(lp1174
sS'iphone-splashscreen-landscape'
p1175
NsS'symbian-maxheapsize'
p1176
NsS'android-extra-packages'
p1177
(lp1178
sS'priv-sign-key'
p1179
NsS'networking'
p1180
NsS'android-icon'
p1181
NsS'iphone-icon-settings'
p1182
NsS'nacl-manifest'
p1183
NsS'wp81-phone-product-id'
p1184
NsS'firefoxos-icon-60X60'
p1185
NsS'iphone-distribution-cert'
p1186
NsS'android_extra_strings'
p1187
NsS'nds-bannertitle-en'
p1188
NsS'blackberry-permissions-record-audio'
p1189
NsS'android-so'
p1190
(lp1191
S'c:/marmalade/7.10/extensions/s3eamazonads/lib/android/libs3eAmazonAds.so'
p1192
asS'wp8-higher-mem'
p1193
NsS'wp8-ext-sdk-ref'
p1194
(lp1195
sS'wp8-fast-resume-mode'
p1196
NsS'roku-splash-screen-hd'
p1197
NsS'iphone-bundle-url-schemes'
p1198
NsS'roku-screensaver-private'
p1199
NsS'osx-extra-res'
p1200
(lp1201
sS'ws81-extra-res'
p1202
(lp1203
sS'playbook-icon'
p1204
NsS'uid'
p1205
NsS'pkguid-as-uid'
p1206
NsS'wp81-ext-native-dll'
p1207
(lp1208
sS'tizen-dist1-password'
p1209
NsS'roku-screensaver-title'
p1210
NsS'osx-minimum-osx-version'
p1211
NsS'symbian-cert'
p1212
NsS'iphone-icon'
p1213
NsS'ws81-ext-capabilities'
p1214
(lp1215
sS'ws8-distribution-cer'
p1216
NsS'playbook-access-shared'
p1217
NsS'iphone-icon-ipad-high-res-ios7'
p1218
NsS'iphone-link-libs'
p1219
(lp1220
sS'wp8-exclude-wvga'
p1221
NsS'assets'
p1222
NsS'wp8-tile-fliptemplate-large-back-image'
p1223
NsS'pub-sign-key'
p1224
NsS'nacl-legacy-ext'
p1225
NsS'android-extra-strings'
p1226
(lp1227
sS'tizen-author-CA-path'
p1228
Nssg384
g675
sbssS'platform'
p1229
S'S3E'
p1230
sg75
S'1.0'
p1231
sS'arcade_platform'
p1232
g4
sS'extensions'
p1233
(dp1234
sS'source_groups_tree'
p1235
(dp1236
S'(libpng)'
p1237
(dp1238
S'h'
p1239
(dp1240
S'c:/marmalade/7.10/modules/third_party/libpng/h/png.h'
p1241
(lp1242
I1
a(dp1243
asS'c:/marmalade/7.10/modules/third_party/libpng/h/pngconf.h'
p1244
(lp1245
I1
ag1243
assS'c:/marmalade/7.10/modules/third_party/libpng/libpng.mkf'
p1246
(lp1247
I1
a(dp1248
assS'(amazon-ads-android-sdk)'
p1249
(dp1250
S'c:/marmalade/7.10/platform_libs/android/amazon-ads-android-sdk/amazon-ads-android-sdk.mkf'
p1251
(lp1252
I1
a(dp1253
assS'(tiniconv)'
p1254
(dp1255
S'c:/marmalade/7.10/modules/third_party/tiniconv/source/tiniconv.h'
p1256
(lp1257
I1
a(dp1258
asS'c:/marmalade/7.10/modules/third_party/tiniconv/source/tiniconv_int.h'
p1259
(lp1260
I1
ag1258
asS'c:/marmalade/7.10/modules/third_party/tiniconv/tiniconv.mkf'
p1261
(lp1262
I1
a(dp1263
assS'(amazon-ads-ios-sdk)'
p1264
(dp1265
S'c:/marmalade/7.10/platform_libs/iphone/amazon-ads-ios-sdk/amazon-ads-ios-sdk.mkf'
p1266
(lp1267
I1
a(dp1268
assS'source'
p1269
(dp1270
S'd:/Marmalade/Stage1/source/input.h'
p1271
(lp1272
I1
a(dp1273
asS'd:/Marmalade/Stage1/source/Stage1.cpp'
p1274
(lp1275
I1
ag1273
asS'd:/Marmalade/Stage1/source/input.cpp'
p1276
(lp1277
I1
ag1273
assS'Extensions'
p1278
(dp1279
S's3eAmazonAds'
p1280
(dp1281
S'interface'
p1282
(dp1283
S'c:/marmalade/7.10/extensions/s3eamazonads/interface/s3eAmazonAds.defines.txt'
p1284
(lp1285
I1
a(dp1286
asS'c:/marmalade/7.10/extensions/s3eamazonads/interface/s3eAmazonAds_interface.cpp'
p1287
(lp1288
I1
ag1286
assS'c:/marmalade/7.10/extensions/s3eamazonads/s3eamazonads.mkf'
p1289
(lp1290
I1
a(dp1291
asS'c:/marmalade/7.10/extensions/s3eamazonads/h/s3eAmazonAds.h'
p1292
(lp1293
I1
ag1286
assS'PVRTexTool'
p1294
(dp1295
S'interface'
p1296
(dp1297
S'c:/marmalade/7.10/extensions/pvrtextool/interface/PVRTexTool_interface.cpp'
p1298
(lp1299
I1
a(dp1300
asS'c:/marmalade/7.10/extensions/pvrtextool/interface/PVRTexTool.defines.txt'
p1301
(lp1302
I1
ag1300
assS'c:/marmalade/7.10/extensions/pvrtextool/h/PVRTexTool.h'
p1303
(lp1304
I1
ag1300
asS'c:/marmalade/7.10/extensions/pvrtextool/pvrtextool.mkf'
p1305
(lp1306
I1
a(dp1307
asssS'(s3e-default)'
p1308
(dp1309
S'c:/marmalade/7.10/s3e/s3e-default.mkf'
p1310
(lp1311
I1
a(dp1312
assS"'Marmalade Studio'"
p1313
(dp1314
S'iwgl'
p1315
(dp1316
S'c:/marmalade/7.10/modules/iwgl/iwgl.mkf'
p1317
(lp1318
I1
a(dp1319
asS'c:/marmalade/7.10/modules/iwgl/h/IwGL.h'
p1320
(lp1321
I1
a(dp1322
asS'c:/marmalade/7.10/modules/iwgl/docs/iwgl.config.txt'
p1323
(lp1324
I1
ag1322
asS'c:/marmalade/7.10/modules/iwgl/h/IwGLExt.h'
p1325
(lp1326
I1
ag1322
assS'iw2d'
p1327
(dp1328
S'c:/marmalade/7.10/modules/iw2d/iw2d.mkf'
p1329
(lp1330
I1
a(dp1331
asS'c:/marmalade/7.10/modules/iw2d/docs/iw2d_public.defines.txt'
p1332
(lp1333
I1
a(dp1334
asS'c:/marmalade/7.10/modules/iw2d/h/Iw2D.h'
p1335
(lp1336
I1
ag1334
asS'c:/marmalade/7.10/modules/iw2d/docs/iw2d.config.txt'
p1337
(lp1338
I1
ag1334
assS'iwgxfont'
p1339
(dp1340
S'c:/marmalade/7.10/modules/iwgxfont/h/IwGxFont.h'
p1341
(lp1342
I1
a(dp1343
asS'c:/marmalade/7.10/modules/iwgxfont/h/IwGxFontPreparedData.h'
p1344
(lp1345
I1
ag1343
asS'c:/marmalade/7.10/modules/iwgxfont/iwgxfont.mkf'
p1346
(lp1347
I1
a(dp1348
asS'c:/marmalade/7.10/modules/iwgxfont/docs/iwgxfont.config.txt'
p1349
(lp1350
I1
ag1343
asS'c:/marmalade/7.10/modules/iwgxfont/h/IwGxFontState.h'
p1351
(lp1352
I1
ag1343
asS'c:/marmalade/7.10/modules/iwgxfont/docs/iwgxfont_public.defines.txt'
p1353
(lp1354
I1
ag1343
asS'c:/marmalade/7.10/modules/iwgxfont/h/IwGxFontContainer.h'
p1355
(lp1356
I1
ag1343
asS'c:/marmalade/7.10/modules/iwgxfont/h/IwGxFontGlyph.h'
p1357
(lp1358
I1
ag1343
asS'c:/marmalade/7.10/modules/iwgxfont/h/IwGxFontTypes.h'
p1359
(lp1360
I1
ag1343
assS'iwgeom'
p1361
(dp1362
S'c:/marmalade/7.10/modules/iwgeom/h/IwGeomQuat.h'
p1363
(lp1364
I1
a(dp1365
asS'c:/marmalade/7.10/modules/iwgeom/h/IwGeomMat2D.h.tpl'
p1366
(lp1367
I1
ag1365
asS'c:/marmalade/7.10/modules/iwgeom/h/IwGeomIntersect.h'
p1368
(lp1369
I1
ag1365
asS'c:/marmalade/7.10/modules/iwgeom/h/IwGeomQuat.h.tpl'
p1370
(lp1371
I1
ag1365
asS'c:/marmalade/7.10/modules/iwgeom/h/IwGeomVec.h.tpl'
p1372
(lp1373
I1
ag1365
asS'c:/marmalade/7.10/modules/iwgeom/docs/iwgeom.config.txt'
p1374
(lp1375
I1
ag1365
asS'c:/marmalade/7.10/modules/iwgeom/h/IwGeomFBBox.h'
p1376
(lp1377
I1
ag1365
asS'c:/marmalade/7.10/modules/iwgeom/iwgeom.mkf'
p1378
(lp1379
I1
a(dp1380
asS'c:/marmalade/7.10/modules/iwgeom/h/IwGeomFSphere.h'
p1381
(lp1382
I1
ag1365
asS'c:/marmalade/7.10/modules/iwgeom/h/IwGeomSVec4.h'
p1383
(lp1384
I1
ag1365
asS'c:/marmalade/7.10/modules/iwgeom/h/IwGeomPlane.h'
p1385
(lp1386
I1
ag1365
asS'c:/marmalade/7.10/modules/iwgeom/h/IwGeomSVec3.h'
p1387
(lp1388
I1
ag1365
asS'c:/marmalade/7.10/modules/iwgeom/h/IwGeomVec4.h'
p1389
(lp1390
I1
ag1365
asS'c:/marmalade/7.10/modules/iwgeom/h/IwGeom.h'
p1391
(lp1392
I1
ag1365
asS'c:/marmalade/7.10/modules/iwgeom/h/IwGeomVec3.h'
p1393
(lp1394
I1
ag1365
asS'c:/marmalade/7.10/modules/iwgeom/h/IwGeomMat.h.tpl'
p1395
(lp1396
I1
ag1365
asS'c:/marmalade/7.10/modules/iwgeom/h/IwGeomFQuat.h'
p1397
(lp1398
I1
ag1365
asS'c:/marmalade/7.10/modules/iwgeom/h/IwGeomSphere.h'
p1399
(lp1400
I1
ag1365
asS'c:/marmalade/7.10/modules/iwgeom/h/IwGeomLegacy.h'
p1401
(lp1402
I1
ag1365
asS'c:/marmalade/7.10/modules/iwgeom/h/IwGeomVec2.h'
p1403
(lp1404
I1
ag1365
asS'c:/marmalade/7.10/modules/iwgeom/h/IwGeomFIntersect.h'
p1405
(lp1406
I1
ag1365
asS'c:/marmalade/7.10/modules/iwgeom/h/IwGeomFPlane.h'
p1407
(lp1408
I1
ag1365
asS'c:/marmalade/7.10/modules/iwgeom/h/IwGeomSQuat.h'
p1409
(lp1410
I1
ag1365
asS'c:/marmalade/7.10/modules/iwgeom/h/IwGeomSVec2.h'
p1411
(lp1412
I1
ag1365
asS'c:/marmalade/7.10/modules/iwgeom/h/IwGeomBBox.h'
p1413
(lp1414
I1
ag1365
asS'c:/marmalade/7.10/modules/iwgeom/h/IwGeomFMat2D.h'
p1415
(lp1416
I1
ag1365
asS'c:/marmalade/7.10/modules/iwgeom/h/IwGeomVec.h'
p1417
(lp1418
I1
ag1365
asS'c:/marmalade/7.10/modules/iwgeom/h/IwGeomMenu.h'
p1419
(lp1420
I1
ag1365
asS'c:/marmalade/7.10/modules/iwgeom/h/IwGeomFVec2.h'
p1421
(lp1422
I1
ag1365
asS'c:/marmalade/7.10/modules/iwgeom/h/IwGeomFMat.h'
p1423
(lp1424
I1
ag1365
asS'c:/marmalade/7.10/modules/iwgeom/h/IwGeomCore.h'
p1425
(lp1426
I1
ag1365
asS'c:/marmalade/7.10/modules/iwgeom/h/IwGeomFVec3.h'
p1427
(lp1428
I1
ag1365
asS'c:/marmalade/7.10/modules/iwgeom/h/IwGeomMat2D.h'
p1429
(lp1430
I1
ag1365
asS'c:/marmalade/7.10/modules/iwgeom/h/IwGeomMat.h'
p1431
(lp1432
I1
ag1365
asS'c:/marmalade/7.10/modules/iwgeom/h/IwGeomFVec4.h'
p1433
(lp1434
I1
ag1365
asS'c:/marmalade/7.10/modules/iwgeom/h/IwGeomSqrt.h'
p1435
(lp1436
I1
ag1365
assS'iwresmanager'
p1437
(dp1438
S'c:/marmalade/7.10/modules/iwresmanager/h/IwResHandler.h'
p1439
(lp1440
I1
a(dp1441
asS'c:/marmalade/7.10/modules/iwresmanager/docs/iwresmanager.config.txt'
p1442
(lp1443
I1
ag1441
asS'c:/marmalade/7.10/modules/iwresmanager/h/IwResHandlerImage.h'
p1444
(lp1445
I1
ag1441
asS'c:/marmalade/7.10/modules/iwresmanager/h/IwResHandlerITX.h'
p1446
(lp1447
I1
ag1441
asS'c:/marmalade/7.10/modules/iwresmanager/h/IwResManager.h'
p1448
(lp1449
I1
ag1441
asS'c:/marmalade/7.10/modules/iwresmanager/h/IwResSerialise.h'
p1450
(lp1451
I1
ag1441
asS'c:/marmalade/7.10/modules/iwresmanager/iwresmanager.mkf'
p1452
(lp1453
I1
a(dp1454
asS'c:/marmalade/7.10/modules/iwresmanager/h/IwResManagerClass.h'
p1455
(lp1456
I1
ag1441
asS'c:/marmalade/7.10/modules/iwresmanager/h/IwResGroup.h'
p1457
(lp1458
I1
ag1441
asS'c:/marmalade/7.10/modules/iwresmanager/h/IwResHandlerGROUP.h'
p1459
(lp1460
I1
ag1441
assS'iwgx'
p1461
(dp1462
S'c:/marmalade/7.10/modules/iwgx/h/IwGxPrint.h'
p1463
(lp1464
I1
a(dp1465
asS'c:/marmalade/7.10/modules/iwgx/h/IwGxError.h'
p1466
(lp1467
I1
ag1465
asS'c:/marmalade/7.10/modules/iwgx/h/IwGxSurface.h'
p1468
(lp1469
I1
ag1465
asS'c:/marmalade/7.10/modules/iwgx/h/IwGxTransformSW.h'
p1470
(lp1471
I1
ag1465
asS'c:/marmalade/7.10/modules/iwgx/h/IwGxDebug.h'
p1472
(lp1473
I1
ag1465
asS'c:/marmalade/7.10/modules/iwgx/h/IwClip.h'
p1474
(lp1475
I1
ag1465
asS'c:/marmalade/7.10/modules/iwgx/docs/iwgx.config.txt'
p1476
(lp1477
I1
ag1465
asS'c:/marmalade/7.10/modules/iwgx/h/IwColour.h'
p1478
(lp1479
I1
ag1465
asS'c:/marmalade/7.10/modules/iwgx/h/IwGxTypes.h'
p1480
(lp1481
I1
ag1465
asS'c:/marmalade/7.10/modules/iwgx/h/IwGx.h'
p1482
(lp1483
I1
ag1465
asS'c:/marmalade/7.10/modules/iwgx/h/IwDebugPrim.h'
p1484
(lp1485
I1
ag1465
asS'c:/marmalade/7.10/modules/iwgx/h/IwGxMetrics.h'
p1486
(lp1487
I1
ag1465
asS'c:/marmalade/7.10/modules/iwgx/iwgx.mkf'
p1488
(lp1489
I1
a(dp1490
asS'c:/marmalade/7.10/modules/iwgx/h/IwClip.inl'
p1491
(lp1492
I1
ag1465
asS'c:/marmalade/7.10/modules/iwgx/h/IwMatAnim.h'
p1493
(lp1494
I1
ag1465
asS'c:/marmalade/7.10/modules/iwgx/h/IwGxState.h'
p1495
(lp1496
I1
ag1465
asS'c:/marmalade/7.10/modules/iwgx/h/IwTexture.h'
p1497
(lp1498
I1
ag1465
asS'c:/marmalade/7.10/modules/iwgx/h/IwGxStream.h'
p1499
(lp1500
I1
ag1465
asS'c:/marmalade/7.10/modules/iwgx/h/IwTPage.h'
p1501
(lp1502
I1
ag1465
asS'c:/marmalade/7.10/modules/iwgx/h/IwResHandlerMTL.h'
p1503
(lp1504
I1
ag1465
asS'c:/marmalade/7.10/modules/iwgx/h/IwMaterial.h'
p1505
(lp1506
I1
ag1465
asS'c:/marmalade/7.10/modules/iwgx/h/IwGxFuncTable.h'
p1507
(lp1508
I1
ag1465
asS'c:/marmalade/7.10/modules/iwgx/h/IwFColour.h'
p1509
(lp1510
I1
ag1465
asS'c:/marmalade/7.10/modules/iwgx/docs/iwgx_public.defines.txt'
p1511
(lp1512
I1
ag1465
asS'c:/marmalade/7.10/modules/iwgx/h/IwGxShaderTechnique.h'
p1513
(lp1514
I1
ag1465
assS'iwutil'
p1515
(dp1516
S'c:/marmalade/7.10/modules/iwutil/h/IwDivTable.h'
p1517
(lp1518
I1
a(dp1519
asS'c:/marmalade/7.10/modules/iwutil/h/IwPath.h'
p1520
(lp1521
I1
ag1519
asS'c:/marmalade/7.10/modules/iwutil/h/IwFile.h'
p1522
(lp1523
I1
ag1519
asS'c:/marmalade/7.10/modules/iwutil/h/IwImage.h'
p1524
(lp1525
I1
ag1519
asS'c:/marmalade/7.10/modules/iwutil/h/IwMenu.h'
p1526
(lp1527
I1
ag1519
asS'c:/marmalade/7.10/modules/iwutil/h/IwArray.h'
p1528
(lp1529
I1
ag1519
asS'c:/marmalade/7.10/modules/iwutil/h/IwMemBucketHelpers.h'
p1530
(lp1531
I1
ag1519
asS'c:/marmalade/7.10/modules/iwutil/h/IwClassFactory.h'
p1532
(lp1533
I1
ag1519
asS'c:/marmalade/7.10/modules/iwutil/iwutil.mkf'
p1534
(lp1535
I1
a(dp1536
asS'c:/marmalade/7.10/modules/iwutil/h/IwDivide.h'
p1537
(lp1538
I1
ag1519
asS'c:/marmalade/7.10/modules/iwutil/h/IwMemory.h'
p1539
(lp1540
I1
ag1519
asS'c:/marmalade/7.10/modules/iwutil/h/IwManagedList.h'
p1541
(lp1542
I1
ag1519
asS'c:/marmalade/7.10/modules/iwutil/h/IwUtil.h'
p1543
(lp1544
I1
ag1519
asS'c:/marmalade/7.10/modules/iwutil/h/IwFibre.h'
p1545
(lp1546
I1
ag1519
asS'c:/marmalade/7.10/modules/iwutil/h/IwBuffer.h'
p1547
(lp1548
I1
ag1519
asS'c:/marmalade/7.10/modules/iwutil/h/IwHashString.h'
p1549
(lp1550
I1
ag1519
asS'c:/marmalade/7.10/modules/iwutil/h/IwSingleton.h'
p1551
(lp1552
I1
ag1519
asS'c:/marmalade/7.10/modules/iwutil/h/IwSerialise.h'
p1553
(lp1554
I1
ag1519
asS'c:/marmalade/7.10/modules/iwutil/h/IwMath.h'
p1555
(lp1556
I1
ag1519
asS'c:/marmalade/7.10/modules/iwutil/h/IwTypes.h'
p1557
(lp1558
I1
ag1519
asS'c:/marmalade/7.10/modules/iwutil/h/IwTextParser.h'
p1559
(lp1560
I1
ag1519
asS'c:/marmalade/7.10/modules/iwutil/h/IwOptimiseSpeed.h'
p1561
(lp1562
I1
ag1519
asS'c:/marmalade/7.10/modules/iwutil/h/IwKeymap.h'
p1563
(lp1564
I1
ag1519
asS'c:/marmalade/7.10/modules/iwutil/h/IwCore.h'
p1565
(lp1566
I1
ag1519
asS'c:/marmalade/7.10/modules/iwutil/h/IwAllocator.h'
p1567
(lp1568
I1
ag1519
asS'c:/marmalade/7.10/modules/iwutil/h/IwChar.h'
p1569
(lp1570
I1
ag1519
asS'c:/marmalade/7.10/modules/iwutil/h/IwOptimiseThumb.h'
p1571
(lp1572
I1
ag1519
asS'c:/marmalade/7.10/modules/iwutil/h/IwAutoFile.h'
p1573
(lp1574
I1
ag1519
asS'c:/marmalade/7.10/modules/iwutil/h/IwManaged.h'
p1575
(lp1576
I1
ag1519
asS'c:/marmalade/7.10/modules/iwutil/h/IwOptimiseARM.h'
p1577
(lp1578
I1
ag1519
asS'c:/marmalade/7.10/modules/iwutil/h/IwTextParserITX.h'
p1579
(lp1580
I1
ag1519
asS'c:/marmalade/7.10/modules/iwutil/h/IwList.h'
p1581
(lp1582
I1
ag1519
asS'c:/marmalade/7.10/modules/iwutil/h/IwUncopyable.h'
p1583
(lp1584
I1
ag1519
asS'c:/marmalade/7.10/modules/iwutil/h/IwRandom.h'
p1585
(lp1586
I1
ag1519
asS'c:/marmalade/7.10/modules/iwutil/h/IwProfileMenu.h'
p1587
(lp1588
I1
ag1519
asS'c:/marmalade/7.10/modules/iwutil/h/IwDebug.h'
p1589
(lp1590
I1
ag1519
asS'c:/marmalade/7.10/modules/iwutil/h/IwTextParseable.h'
p1591
(lp1592
I1
ag1519
asS'c:/marmalade/7.10/modules/iwutil/h/IwResource.h'
p1593
(lp1594
I1
ag1519
asS'c:/marmalade/7.10/modules/iwutil/h/IwOptimiseSize.h'
p1595
(lp1596
I1
ag1519
asS'c:/marmalade/7.10/modules/iwutil/h/IwVariableBitField.h'
p1597
(lp1598
I1
ag1519
asS'c:/marmalade/7.10/modules/iwutil/h/IwCopyingPtr.h'
p1599
(lp1600
I1
ag1519
asS'c:/marmalade/7.10/modules/iwutil/docs/iwutil.config.txt'
p1601
(lp1602
I1
ag1519
asS'c:/marmalade/7.10/modules/iwutil/h/IwUtilInitTerm.h'
p1603
(lp1604
I1
ag1519
asS'c:/marmalade/7.10/modules/iwutil/h/IwEvent.h'
p1605
(lp1606
I1
ag1519
asS'c:/marmalade/7.10/modules/iwutil/h/IwRuntime.h'
p1607
(lp1608
I1
ag1519
asS'c:/marmalade/7.10/modules/iwutil/h/IwUTF8.h'
p1609
(lp1610
I1
ag1519
asS'c:/marmalade/7.10/modules/iwutil/h/IwImageHelper.h'
p1611
(lp1612
I1
ag1519
asS'c:/marmalade/7.10/modules/iwutil/h/IwMemManagerDL.h'
p1613
(lp1614
I1
ag1519
asS'c:/marmalade/7.10/modules/iwutil/h/IwMemBucket.h'
p1615
(lp1616
I1
ag1519
asS'c:/marmalade/7.10/modules/iwutil/h/IwString.h'
p1617
(lp1618
I1
ag1519
asssS'(zlib)'
p1619
(dp1620
g1239
(dp1621
S'c:/marmalade/7.10/modules/third_party/zlib/h/zconf.h'
p1622
(lp1623
I1
a(dp1624
asS'c:/marmalade/7.10/modules/third_party/zlib/h/zlib.h'
p1625
(lp1626
I1
ag1624
assS'c:/marmalade/7.10/modules/third_party/zlib/zlib.mkf'
p1627
(lp1628
I1
a(dp1629
assS'(libjpeg)'
p1630
(dp1631
g1239
(dp1632
S'c:/marmalade/7.10/modules/third_party/libjpeg/h/jpeglib.h'
p1633
(lp1634
I1
a(dp1635
asS'c:/marmalade/7.10/modules/third_party/libjpeg/h/jdhuff.h'
p1636
(lp1637
I1
ag1635
asS'c:/marmalade/7.10/modules/third_party/libjpeg/h/transupp.h'
p1638
(lp1639
I1
ag1635
asS'c:/marmalade/7.10/modules/third_party/libjpeg/h/cdjpeg.h'
p1640
(lp1641
I1
ag1635
asS'c:/marmalade/7.10/modules/third_party/libjpeg/h/jerror.h'
p1642
(lp1643
I1
ag1635
asS'c:/marmalade/7.10/modules/third_party/libjpeg/h/jconfig.h'
p1644
(lp1645
I1
ag1635
asS'c:/marmalade/7.10/modules/third_party/libjpeg/h/jmorecfg.h'
p1646
(lp1647
I1
ag1635
asS'c:/marmalade/7.10/modules/third_party/libjpeg/h/jdct.h'
p1648
(lp1649
I1
ag1635
asS'c:/marmalade/7.10/modules/third_party/libjpeg/h/cderror.h'
p1650
(lp1651
I1
ag1635
asS'c:/marmalade/7.10/modules/third_party/libjpeg/h/jmemsys.h'
p1652
(lp1653
I1
ag1635
asS'c:/marmalade/7.10/modules/third_party/libjpeg/h/jchuff.h'
p1654
(lp1655
I1
ag1635
asS'c:/marmalade/7.10/modules/third_party/libjpeg/h/jpegint.h'
p1656
(lp1657
I1
ag1635
asS'c:/marmalade/7.10/modules/third_party/libjpeg/h/jinclude.h'
p1658
(lp1659
I1
ag1635
asS'c:/marmalade/7.10/modules/third_party/libjpeg/h/jversion.h'
p1660
(lp1661
I1
ag1635
assS'c:/marmalade/7.10/modules/third_party/libjpeg/libjpeg.mkf'
p1662
(lp1663
I1
a(dp1664
asssS'files'
p1665
(dp1666
S'IwGxFontPreparedData.h'
p1667
g358
(cmkb_main
File
p1668
g360
Ntp1669
Rp1670
(dp1671
S'flags'
p1672
g1343
sS'group'
p1673
(lp1674
S"'Marmalade Studio'"
p1675
ag1339
asg384
g1344
sbsS'iterator'
p1676
g358
(g1668
g360
Ntp1677
Rp1678
(dp1679
g1672
(dp1680
sg1673
(lp1681
S"'Marmalade System (S3E)'"
p1682
aS'stdc headers'
p1683
aS'c++'
p1684
asg384
S'c:/marmalade/7.10/s3e/h/std/c++/iterator'
p1685
sbsS'IwGL.h'
p1686
g358
(g1668
g360
Ntp1687
Rp1688
(dp1689
g1672
g1322
sg1673
(lp1690
S"'Marmalade Studio'"
p1691
ag1315
asg384
g1320
sbsS's3e.h'
p1692
g358
(g1668
g360
Ntp1693
Rp1694
(dp1695
g1672
g1680
sg1673
(lp1696
g1682
asg384
S'c:/marmalade/7.10/s3e/h/s3e.h'
p1697
sbsS'errno.h'
p1698
g358
(g1668
g360
Ntp1699
Rp1700
(dp1701
g1672
g1680
sg1673
(lp1702
g1682
aS'stdc headers'
p1703
asg384
S'c:/marmalade/7.10/s3e/h/std/errno.h'
p1704
sbsS'IwSingleton.h'
p1705
g358
(g1668
g360
Ntp1706
Rp1707
(dp1708
g1672
g1519
sg1673
(lp1709
S"'Marmalade Studio'"
p1710
ag1515
asg384
g1551
sbsS'dlfcn.h'
p1711
g358
(g1668
g360
Ntp1712
Rp1713
(dp1714
g1672
g1680
sg1673
g1702
sg384
S'c:/marmalade/7.10/s3e/h/std/dlfcn.h'
p1715
sbsS'stdio_streambuf'
p1716
g358
(g1668
g360
Ntp1717
Rp1718
(dp1719
g1672
g1680
sg1673
g1681
sg384
S'c:/marmalade/7.10/s3e/h/std/c++/stdio_streambuf'
p1720
sbsS'sched.h'
p1721
g358
(g1668
g360
Ntp1722
Rp1723
(dp1724
g1672
g1680
sg1673
g1702
sg384
S'c:/marmalade/7.10/s3e/h/std/sched.h'
p1725
sbsS'IwGeomFMat2D.h'
p1726
g358
(g1668
g360
Ntp1727
Rp1728
(dp1729
g1672
g1365
sg1673
(lp1730
S"'Marmalade Studio'"
p1731
ag1361
asg384
g1415
sbsS's3eExt.h'
p1732
g358
(g1668
g360
Ntp1733
Rp1734
(dp1735
g1672
g1680
sg1673
g1696
sg384
S'c:/marmalade/7.10/s3e/h/s3eExt.h'
p1736
sbsS'grp.h'
p1737
g358
(g1668
g360
Ntp1738
Rp1739
(dp1740
g1672
g1680
sg1673
g1702
sg384
S'c:/marmalade/7.10/s3e/h/std/grp.h'
p1741
sbsS'list'
p1742
g358
(g1668
g360
Ntp1743
Rp1744
(dp1745
g1672
g1680
sg1673
g1681
sg384
S'c:/marmalade/7.10/s3e/h/std/c++/list'
p1746
sbsS'IwGeomMat.h.tpl'
p1747
g358
(g1668
g360
Ntp1748
Rp1749
(dp1750
g1672
g1365
sg1673
g1730
sg384
g1395
sbsS'istream'
p1751
g358
(g1668
g360
Ntp1752
Rp1753
(dp1754
g1672
g1680
sg1673
g1681
sg384
S'c:/marmalade/7.10/s3e/h/std/c++/istream'
p1755
sbsS'jpeglib.h'
p1756
g358
(g1668
g360
Ntp1757
Rp1758
(dp1759
g1672
g1635
sg1673
(lp1760
g1630
ag1239
asg384
g1633
sbsS'iw2d_public.defines.txt'
p1761
g358
(g1668
g360
Ntp1762
Rp1763
(dp1764
g1672
g1334
sg1673
(lp1765
S"'Marmalade Studio'"
p1766
ag1327
asg384
g1332
sbsS'iostream.h'
p1767
g358
(g1668
g360
Ntp1768
Rp1769
(dp1770
g1672
g1680
sg1673
g1681
sg384
S'c:/marmalade/7.10/s3e/h/std/c++/iostream.h'
p1771
sbsS'string'
p1772
g358
(g1668
g360
Ntp1773
Rp1774
(dp1775
g1672
g1680
sg1673
g1681
sg384
S'c:/marmalade/7.10/s3e/h/std/c++/string'
p1776
sbsS'IwMemory.h'
p1777
g358
(g1668
g360
Ntp1778
Rp1779
(dp1780
g1672
g1519
sg1673
g1709
sg384
g1539
sbsS'IwGeomPlane.h'
p1781
g358
(g1668
g360
Ntp1782
Rp1783
(dp1784
g1672
g1365
sg1673
g1730
sg384
g1385
sbsS'iw2d.config.txt'
p1785
g358
(g1668
g360
Ntp1786
Rp1787
(dp1788
g1672
g1334
sg1673
g1765
sg384
g1337
sbsS'iomanip'
p1789
g358
(g1668
g360
Ntp1790
Rp1791
(dp1792
g1672
g1680
sg1673
g1681
sg384
S'c:/marmalade/7.10/s3e/h/std/c++/iomanip'
p1793
sbsS'iwgeom.mkf'
p1794
g358
(g1668
g360
Ntp1795
Rp1796
(dp1797
g1672
g1380
sg1673
g1730
sg384
g1378
sbsS'IwGxError.h'
p1798
g358
(g1668
g360
Ntp1799
Rp1800
(dp1801
g1672
g1465
sg1673
(lp1802
S"'Marmalade Studio'"
p1803
ag1461
asg384
g1466
sbsS'IwGeom.h'
p1804
g358
(g1668
g360
Ntp1805
Rp1806
(dp1807
g1672
g1365
sg1673
g1730
sg384
g1391
sbsS'IwGeomVec4.h'
p1808
g358
(g1668
g360
Ntp1809
Rp1810
(dp1811
g1672
g1365
sg1673
g1730
sg384
g1389
sbsS'dir.h'
p1812
g358
(g1668
g360
Ntp1813
Rp1814
(dp1815
g1672
g1680
sg1673
(lp1816
g1682
aS'stdc headers'
p1817
aS'sys'
p1818
asg384
S'c:/marmalade/7.10/s3e/h/std/sys/dir.h'
p1819
sbsS'locale.h'
p1820
g358
(g1668
g360
Ntp1821
Rp1822
(dp1823
g1672
g1680
sg1673
g1702
sg384
S'c:/marmalade/7.10/s3e/h/std/locale.h'
p1824
sbsS'vector'
p1825
g358
(g1668
g360
Ntp1826
Rp1827
(dp1828
g1672
g1680
sg1673
g1681
sg384
S'c:/marmalade/7.10/s3e/h/std/c++/vector'
p1829
sbsS'IwManaged.h'
p1830
g358
(g1668
g360
Ntp1831
Rp1832
(dp1833
g1672
g1519
sg1673
g1709
sg384
g1575
sbsS's3eCompass.h'
p1834
g358
(g1668
g360
Ntp1835
Rp1836
(dp1837
g1672
g1680
sg1673
g1696
sg384
S'c:/marmalade/7.10/s3e/h/s3eCompass.h'
p1838
sbsS'cderror.h'
p1839
g358
(g1668
g360
Ntp1840
Rp1841
(dp1842
g1672
g1635
sg1673
g1760
sg384
g1650
sbsS'climits'
p1843
g358
(g1668
g360
Ntp1844
Rp1845
(dp1846
g1672
g1680
sg1673
g1681
sg384
S'c:/marmalade/7.10/s3e/h/std/c++/climits'
p1847
sbsS's3eVibra.h'
p1848
g358
(g1668
g360
Ntp1849
Rp1850
(dp1851
g1672
g1680
sg1673
g1696
sg384
S'c:/marmalade/7.10/s3e/h/s3eVibra.h'
p1852
sbsS'jversion.h'
p1853
g358
(g1668
g360
Ntp1854
Rp1855
(dp1856
g1672
g1635
sg1673
g1760
sg384
g1660
sbsS'fnmatch.h'
p1857
g358
(g1668
g360
Ntp1858
Rp1859
(dp1860
g1672
g1680
sg1673
g1702
sg384
S'c:/marmalade/7.10/s3e/h/std/fnmatch.h'
p1861
sbsS'IwGxState.h'
p1862
g358
(g1668
g360
Ntp1863
Rp1864
(dp1865
g1672
g1465
sg1673
g1802
sg384
g1495
sbsS's3eAudio.h'
p1866
g358
(g1668
g360
Ntp1867
Rp1868
(dp1869
g1672
g1680
sg1673
g1696
sg384
S'c:/marmalade/7.10/s3e/h/s3eAudio.h'
p1870
sbsS's3eSurface.h'
p1871
g358
(g1668
g360
Ntp1872
Rp1873
(dp1874
g1672
g1680
sg1673
g1696
sg384
S'c:/marmalade/7.10/s3e/h/s3eSurface.h'
p1875
sbsS'new'
p1876
g358
(g1668
g360
Ntp1877
Rp1878
(dp1879
g1672
g1680
sg1673
g1681
sg384
S'c:/marmalade/7.10/s3e/h/std/c++/new'
p1880
sbsS's3eWindow.h'
p1881
g358
(g1668
g360
Ntp1882
Rp1883
(dp1884
g1672
g1680
sg1673
(lp1885
g1682
aS'Extensions'
p1886
asg384
S'c:/marmalade/7.10/s3e/h/ext/s3eWindow.h'
p1887
sbsS'IwBuffer.h'
p1888
g358
(g1668
g360
Ntp1889
Rp1890
(dp1891
g1672
g1519
sg1673
g1709
sg384
g1547
sbsS'IwGeomQuat.h.tpl'
p1892
g358
(g1668
g360
Ntp1893
Rp1894
(dp1895
g1672
g1365
sg1673
g1730
sg384
g1370
sbsS's3eOSExec.h'
p1896
g358
(g1668
g360
Ntp1897
Rp1898
(dp1899
g1672
g1680
sg1673
g1885
sg384
S'c:/marmalade/7.10/s3e/h/ext/s3eOSExec.h'
p1900
sbsS'IwGxTransformSW.h'
p1901
g358
(g1668
g360
Ntp1902
Rp1903
(dp1904
g1672
g1465
sg1673
g1802
sg384
g1470
sbsS'IwGxMetrics.h'
p1905
g358
(g1668
g360
Ntp1906
Rp1907
(dp1908
g1672
g1465
sg1673
g1802
sg384
g1486
sbsS'iwgxfont.config.txt'
p1909
g358
(g1668
g360
Ntp1910
Rp1911
(dp1912
g1672
g1343
sg1673
g1674
sg384
g1349
sbsS'gl2platform.h'
p1913
g358
(g1668
g360
Ntp1914
Rp1915
(dp1916
g1672
g1680
sg1673
(lp1917
g1682
aS'GL'
p1918
aS'GLES 2.0'
p1919
asg384
S'c:/marmalade/7.10/s3e/h/GLES2/gl2platform.h'
p1920
sbsS'IwResManagerClass.h'
p1921
g358
(g1668
g360
Ntp1922
Rp1923
(dp1924
g1672
g1441
sg1673
(lp1925
g1313
ag1437
asg384
g1455
sbsS'queue'
p1926
g358
(g1668
g360
Ntp1927
Rp1928
(dp1929
g1672
g1680
sg1673
g1681
sg384
S'c:/marmalade/7.10/s3e/h/std/c++/queue'
p1930
sbsS'time_1.h'
p1931
g358
(g1668
g360
Ntp1932
Rp1933
(dp1934
g1672
g1680
sg1673
g1816
sg384
S'c:/marmalade/7.10/s3e/h/std/sys/time.h'
p1935
sbsS'Iw2D.h'
p1936
g358
(g1668
g360
Ntp1937
Rp1938
(dp1939
g1672
g1334
sg1673
g1765
sg384
g1335
sbsS'IwGeomVec2.h'
p1940
g358
(g1668
g360
Ntp1941
Rp1942
(dp1943
g1672
g1365
sg1673
g1730
sg384
g1403
sbsS's3eDevice.h'
p1944
g358
(g1668
g360
Ntp1945
Rp1946
(dp1947
g1672
g1680
sg1673
g1696
sg384
S'c:/marmalade/7.10/s3e/h/s3eDevice.h'
p1948
sbsS'malloc.h'
p1949
g358
(g1668
g360
Ntp1950
Rp1951
(dp1952
g1672
g1680
sg1673
g1702
sg384
S'c:/marmalade/7.10/s3e/h/std/malloc.h'
p1953
sbsS'stdarg.h'
p1954
g358
(g1668
g360
Ntp1955
Rp1956
(dp1957
g1672
g1680
sg1673
g1702
sg384
S'c:/marmalade/7.10/s3e/h/std/stdarg.h'
p1958
sbsS'IwGeomCore.h'
p1959
g358
(g1668
g360
Ntp1960
Rp1961
(dp1962
g1672
g1365
sg1673
g1730
sg384
g1425
sbsS'endian.h'
p1963
g358
(g1668
g360
Ntp1964
Rp1965
(dp1966
g1672
g1680
sg1673
g1702
sg384
S'c:/marmalade/7.10/s3e/h/std/endian.h'
p1967
sbsS'gl3ext.h'
p1968
g358
(g1668
g360
Ntp1969
Rp1970
(dp1971
g1672
g1680
sg1673
(lp1972
g1682
aS'GL'
p1973
aS'GLES 3.0'
p1974
asg384
S'c:/marmalade/7.10/s3e/h/GLES3/gl3ext.h'
p1975
sbsS'glob.h'
p1976
g358
(g1668
g360
Ntp1977
Rp1978
(dp1979
g1672
g1680
sg1673
g1702
sg384
S'c:/marmalade/7.10/s3e/h/std/glob.h'
p1980
sbsS'fstream'
p1981
g358
(g1668
g360
Ntp1982
Rp1983
(dp1984
g1672
g1680
sg1673
g1681
sg384
S'c:/marmalade/7.10/s3e/h/std/c++/fstream'
p1985
sbsS's3eCamera.h'
p1986
g358
(g1668
g360
Ntp1987
Rp1988
(dp1989
g1672
g1680
sg1673
g1696
sg384
S'c:/marmalade/7.10/s3e/h/s3eCamera.h'
p1990
sbsS'jconfig.h'
p1991
g358
(g1668
g360
Ntp1992
Rp1993
(dp1994
g1672
g1635
sg1673
g1760
sg384
g1644
sbsS'memory'
p1995
g358
(g1668
g360
Ntp1996
Rp1997
(dp1998
g1672
g1680
sg1673
g1681
sg384
S'c:/marmalade/7.10/s3e/h/std/c++/memory'
p1999
sbsS'egl.h'
p2000
g358
(g1668
g360
Ntp2001
Rp2002
(dp2003
g1672
g1680
sg1673
(lp2004
g1682
aS'GL'
p2005
aS'EGL'
p2006
asg384
S'c:/marmalade/7.10/s3e/h/EGL/egl.h'
p2007
sbsS'IwClip.inl'
p2008
g358
(g1668
g360
Ntp2009
Rp2010
(dp2011
g1672
g1465
sg1673
g1802
sg384
g1491
sbsS'IwMemManagerDL.h'
p2012
g358
(g1668
g360
Ntp2013
Rp2014
(dp2015
g1672
g1519
sg1673
g1709
sg384
g1613
sbsS'deque'
p2016
g358
(g1668
g360
Ntp2017
Rp2018
(dp2019
g1672
g1680
sg1673
g1681
sg384
S'c:/marmalade/7.10/s3e/h/std/c++/deque'
p2020
sbsS'IwString.h'
p2021
g358
(g1668
g360
Ntp2022
Rp2023
(dp2024
g1672
g1519
sg1673
g1709
sg384
g1617
sbsS'cwchar'
p2025
g358
(g1668
g360
Ntp2026
Rp2027
(dp2028
g1672
g1680
sg1673
g1681
sg384
S'c:/marmalade/7.10/s3e/h/std/c++/cwchar'
p2029
sbsS'iwutil.mkf'
p2030
g358
(g1668
g360
Ntp2031
Rp2032
(dp2033
g1672
g1536
sg1673
g1709
sg384
g1534
sbsS'csignal'
p2034
g358
(g1668
g360
Ntp2035
Rp2036
(dp2037
g1672
g1680
sg1673
g1681
sg384
S'c:/marmalade/7.10/s3e/h/std/c++/csignal'
p2038
sbsS'float.h'
p2039
g358
(g1668
g360
Ntp2040
Rp2041
(dp2042
g1672
g1680
sg1673
g1702
sg384
S'c:/marmalade/7.10/s3e/h/std/float.h'
p2043
sbsS'pthread_alloc'
p2044
g358
(g1668
g360
Ntp2045
Rp2046
(dp2047
g1672
g1680
sg1673
g1681
sg384
S'c:/marmalade/7.10/s3e/h/std/c++/pthread_alloc'
p2048
sbsS'getopt.h'
p2049
g358
(g1668
g360
Ntp2050
Rp2051
(dp2052
g1672
g1680
sg1673
g1702
sg384
S'c:/marmalade/7.10/s3e/h/std/getopt.h'
p2053
sbsS'IwOptimiseARM.h'
p2054
g358
(g1668
g360
Ntp2055
Rp2056
(dp2057
g1672
g1519
sg1673
g1709
sg384
g1577
sbsS'times.h'
p2058
g358
(g1668
g360
Ntp2059
Rp2060
(dp2061
g1672
g1680
sg1673
g1816
sg384
S'c:/marmalade/7.10/s3e/h/std/sys/times.h'
p2062
sbsS'IwGeomFSphere.h'
p2063
g358
(g1668
g360
Ntp2064
Rp2065
(dp2066
g1672
g1365
sg1673
g1730
sg384
g1381
sbsS'amazon-ads-android-sdk.mkf'
p2067
g358
(g1668
g360
Ntp2068
Rp2069
(dp2070
g1672
g1253
sg1673
(lp2071
g1249
asg384
g1251
sbsS'IwTypes.h'
p2072
g358
(g1668
g360
Ntp2073
Rp2074
(dp2075
g1672
g1519
sg1673
g1709
sg384
g1557
sbsS'unistd.h'
p2076
g358
(g1668
g360
Ntp2077
Rp2078
(dp2079
g1672
g1680
sg1673
g1702
sg384
S'c:/marmalade/7.10/s3e/h/std/unistd.h'
p2080
sbsS's3eCompression.h'
p2081
g358
(g1668
g360
Ntp2082
Rp2083
(dp2084
g1672
g1680
sg1673
g1696
sg384
S'c:/marmalade/7.10/s3e/h/s3eCompression.h'
p2085
sbsS'langinfo.h'
p2086
g358
(g1668
g360
Ntp2087
Rp2088
(dp2089
g1672
g1680
sg1673
g1702
sg384
S'c:/marmalade/7.10/s3e/h/std/langinfo.h'
p2090
sbsS's3edebugHeap.h'
p2091
g358
(g1668
g360
Ntp2092
Rp2093
(dp2094
g1672
g1680
sg1673
g1885
sg384
S'c:/marmalade/7.10/s3e/h/ext/s3edebugHeap.h'
p2095
sbsS'AirplayVersion.h'
p2096
g358
(g1668
g360
Ntp2097
Rp2098
(dp2099
g1672
g1680
sg1673
g1696
sg384
S'c:/marmalade/7.10/s3e/h/AirplayVersion.h'
p2100
sbsS'gl2extimg.h'
p2101
g358
(g1668
g360
Ntp2102
Rp2103
(dp2104
g1672
g1680
sg1673
g1917
sg384
S'c:/marmalade/7.10/s3e/h/GLES2/gl2extimg.h'
p2105
sbsS'app.config.txt'
p2106
g358
(g1668
g360
Ntp2107
Rp2108
(dp2109
g1672
(dp2110
sg1673
g4
sg384
S'd:/Marmalade/Stage1/data/app.config.txt'
p2111
sbsS'IwGeomSqrt.h'
p2112
g358
(g1668
g360
Ntp2113
Rp2114
(dp2115
g1672
g1365
sg1673
g1730
sg384
g1435
sbsS'tiniconv_int.h'
p2116
g358
(g1668
g360
Ntp2117
Rp2118
(dp2119
g1672
g1258
sg1673
(lp2120
g1254
asg384
g1259
sbsS'syslog.h'
p2121
g358
(g1668
g360
Ntp2122
Rp2123
(dp2124
g1672
g1680
sg1673
g1702
sg384
S'c:/marmalade/7.10/s3e/h/std/syslog.h'
p2125
sbsS'IwGxFontTypes.h'
p2126
g358
(g1668
g360
Ntp2127
Rp2128
(dp2129
g1672
g1343
sg1673
g1674
sg384
g1359
sbsS'IwGeomFIntersect.h'
p2130
g358
(g1668
g360
Ntp2131
Rp2132
(dp2133
g1672
g1365
sg1673
g1730
sg384
g1405
sbsS'hash_map'
p2134
g358
(g1668
g360
Ntp2135
Rp2136
(dp2137
g1672
g1680
sg1673
g1681
sg384
S'c:/marmalade/7.10/s3e/h/std/c++/hash_map'
p2138
sbsS's3e.mkf'
p2139
g358
(g1668
g360
Ntp2140
Rp2141
(dp2142
g1672
(dp2143
sg1673
g1696
sg384
S'c:/marmalade/7.10/s3e/s3e.mkf'
p2144
sbsS'IwGeomMat2D.h.tpl'
p2145
g358
(g1668
g360
Ntp2146
Rp2147
(dp2148
g1672
g1365
sg1673
g1730
sg384
g1366
sbsS's3eOSReadString.h'
p2149
g358
(g1668
g360
Ntp2150
Rp2151
(dp2152
g1672
g1680
sg1673
g1885
sg384
S'c:/marmalade/7.10/s3e/h/ext/s3eOSReadString.h'
p2153
sbsS'map'
p2154
g358
(g1668
g360
Ntp2155
Rp2156
(dp2157
g1672
g1680
sg1673
g1681
sg384
S'c:/marmalade/7.10/s3e/h/std/c++/map'
p2158
sbsS'IwOptimiseSpeed.h'
p2159
g358
(g1668
g360
Ntp2160
Rp2161
(dp2162
g1672
g1519
sg1673
g1709
sg384
g1561
sbsS'msl_string.h'
p2163
g358
(g1668
g360
Ntp2164
Rp2165
(dp2166
g1672
g1680
sg1673
g1681
sg384
S'c:/marmalade/7.10/s3e/h/std/c++/msl_string.h'
p2167
sbsS'select.h'
p2168
g358
(g1668
g360
Ntp2169
Rp2170
(dp2171
g1672
g1680
sg1673
g1816
sg384
S'c:/marmalade/7.10/s3e/h/std/sys/select.h'
p2172
sbsS'zlib.mkf'
p2173
g358
(g1668
g360
Ntp2174
Rp2175
(dp2176
g1672
g1629
sg1673
(lp2177
g1619
asg384
g1627
sbsS'signal.h'
p2178
g358
(g1668
g360
Ntp2179
Rp2180
(dp2181
g1672
g1680
sg1673
g1702
sg384
S'c:/marmalade/7.10/s3e/h/std/signal.h'
p2182
sbsS'sigcontext.h'
p2183
g358
(g1668
g360
Ntp2184
Rp2185
(dp2186
g1672
g1680
sg1673
g1702
sg384
S'c:/marmalade/7.10/s3e/h/std/sigcontext.h'
p2187
sbsS'libpng.mkf'
p2188
g358
(g1668
g360
Ntp2189
Rp2190
(dp2191
g1672
g1248
sg1673
(lp2192
g1237
asg384
g1246
sbsS's3eClipboard.h'
p2193
g358
(g1668
g360
Ntp2194
Rp2195
(dp2196
g1672
g1680
sg1673
g1696
sg384
S'c:/marmalade/7.10/s3e/h/s3eClipboard.h'
p2197
sbsS'IwGxFuncTable.h'
p2198
g358
(g1668
g360
Ntp2199
Rp2200
(dp2201
g1672
g1465
sg1673
g1802
sg384
g1507
sbsS'IwResHandlerGROUP.h'
p2202
g358
(g1668
g360
Ntp2203
Rp2204
(dp2205
g1672
g1441
sg1673
g1925
sg384
g1459
sbsS's3eDebug.h'
p2206
g358
(g1668
g360
Ntp2207
Rp2208
(dp2209
g1672
g1680
sg1673
g1696
sg384
S'c:/marmalade/7.10/s3e/h/s3eDebug.h'
p2210
sbsS'socket.h'
p2211
g358
(g1668
g360
Ntp2212
Rp2213
(dp2214
g1672
g1680
sg1673
g1816
sg384
S'c:/marmalade/7.10/s3e/h/std/sys/socket.h'
p2215
sbsS'glext.h'
p2216
g358
(g1668
g360
Ntp2217
Rp2218
(dp2219
g1672
g1680
sg1673
(lp2220
g1682
aS'GL'
p2221
aS'GLES 1.x'
p2222
asg384
S'c:/marmalade/7.10/s3e/h/GLES/glext.h'
p2223
sbsS'typeinfo.h'
p2224
g358
(g1668
g360
Ntp2225
Rp2226
(dp2227
g1672
g1680
sg1673
g1681
sg384
S'c:/marmalade/7.10/s3e/h/std/c++/typeinfo.h'
p2228
sbsS'typeinfo'
p2229
g358
(g1668
g360
Ntp2230
Rp2231
(dp2232
g1672
g1680
sg1673
g1681
sg384
S'c:/marmalade/7.10/s3e/h/std/c++/typeinfo'
p2233
sbsS'fstream.h'
p2234
g358
(g1668
g360
Ntp2235
Rp2236
(dp2237
g1672
g1680
sg1673
g1681
sg384
S'c:/marmalade/7.10/s3e/h/std/c++/fstream.h'
p2238
sbsS's3ePointer.h'
p2239
g358
(g1668
g360
Ntp2240
Rp2241
(dp2242
g1672
g1680
sg1673
g1696
sg384
S'c:/marmalade/7.10/s3e/h/s3ePointer.h'
p2243
sbsS'IwMemBucket.h'
p2244
g358
(g1668
g360
Ntp2245
Rp2246
(dp2247
g1672
g1519
sg1673
g1709
sg384
g1615
sbsS'PVRTexTool.h'
p2248
g358
(g1668
g360
Ntp2249
Rp2250
(dp2251
g1672
g1300
sg1673
(lp2252
S'Extensions'
p2253
ag1294
asg384
g1303
sbsS's3eGL.h'
p2254
g358
(g1668
g360
Ntp2255
Rp2256
(dp2257
g1672
g1680
sg1673
g1696
sg384
S'c:/marmalade/7.10/s3e/h/s3eGL.h'
p2258
sbsS'IwGeomFVec2.h'
p2259
g358
(g1668
g360
Ntp2260
Rp2261
(dp2262
g1672
g1365
sg1673
g1730
sg384
g1421
sbsS'IwGeomSVec4.h'
p2263
g358
(g1668
g360
Ntp2264
Rp2265
(dp2266
g1672
g1365
sg1673
g1730
sg384
g1383
sbsS'poll.h'
p2267
g358
(g1668
g360
Ntp2268
Rp2269
(dp2270
g1672
g1680
sg1673
g1702
sg384
S'c:/marmalade/7.10/s3e/h/std/poll.h'
p2271
sbsS'IwMatAnim.h'
p2272
g358
(g1668
g360
Ntp2273
Rp2274
(dp2275
g1672
g1465
sg1673
g1802
sg384
g1493
sbsS'PVRTexTool.defines.txt'
p2276
g358
(g1668
g360
Ntp2277
Rp2278
(dp2279
g1672
g1300
sg1673
(lp2280
g2253
ag1294
ag1296
asg384
g1301
sbsS'IwGx.h'
p2281
g358
(g1668
g360
Ntp2282
Rp2283
(dp2284
g1672
g1465
sg1673
g1802
sg384
g1482
sbsS'valarray'
p2285
g358
(g1668
g360
Ntp2286
Rp2287
(dp2288
g1672
g1680
sg1673
g1681
sg384
S'c:/marmalade/7.10/s3e/h/std/c++/valarray'
p2289
sbsS'iosfwd'
p2290
g358
(g1668
g360
Ntp2291
Rp2292
(dp2293
g1672
g1680
sg1673
g1681
sg384
S'c:/marmalade/7.10/s3e/h/std/c++/iosfwd'
p2294
sbsS'gl2.h'
p2295
g358
(g1668
g360
Ntp2296
Rp2297
(dp2298
g1672
g1680
sg1673
g1917
sg384
S'c:/marmalade/7.10/s3e/h/GLES2/gl2.h'
p2299
sbsS'jpegint.h'
p2300
g358
(g1668
g360
Ntp2301
Rp2302
(dp2303
g1672
g1635
sg1673
g1760
sg384
g1656
sbsS'stdiostream.h'
p2304
g358
(g1668
g360
Ntp2305
Rp2306
(dp2307
g1672
g1680
sg1673
g1681
sg384
S'c:/marmalade/7.10/s3e/h/std/c++/stdiostream.h'
p2308
sbsS'mem.h'
p2309
g358
(g1668
g360
Ntp2310
Rp2311
(dp2312
g1672
g1680
sg1673
g1681
sg384
S'c:/marmalade/7.10/s3e/h/std/c++/mem.h'
p2313
sbsS'jerror.h'
p2314
g358
(g1668
g360
Ntp2315
Rp2316
(dp2317
g1672
g1635
sg1673
g1760
sg384
g1642
sbsS'zconf.h'
p2318
g358
(g1668
g360
Ntp2319
Rp2320
(dp2321
g1672
g1624
sg1673
(lp2322
g1619
ag1239
asg384
g1622
sbsS's3e.config.txt'
p2323
g358
(g1668
g360
Ntp2324
Rp2325
(dp2326
g1672
g1680
sg1673
g1696
sg384
S'c:/marmalade/7.10/s3e/s3e.config.txt'
p2327
sbsS'numeric'
p2328
g358
(g1668
g360
Ntp2329
Rp2330
(dp2331
g1672
g1680
sg1673
g1681
sg384
S'c:/marmalade/7.10/s3e/h/std/c++/numeric'
p2332
sbsS'utime.h'
p2333
g358
(g1668
g360
Ntp2334
Rp2335
(dp2336
g1672
g1680
sg1673
g1702
sg384
S'c:/marmalade/7.10/s3e/h/std/utime.h'
p2337
sbsS'jdhuff.h'
p2338
g358
(g1668
g360
Ntp2339
Rp2340
(dp2341
g1672
g1635
sg1673
g1760
sg384
g1636
sbsS'IwGxStream.h'
p2342
g358
(g1668
g360
Ntp2343
Rp2344
(dp2345
g1672
g1465
sg1673
g1802
sg384
g1499
sbsS'IwImage.h'
p2346
g358
(g1668
g360
Ntp2347
Rp2348
(dp2349
g1672
g1519
sg1673
g1709
sg384
g1524
sbsS's3eImagePicker.h'
p2350
g358
(g1668
g360
Ntp2351
Rp2352
(dp2353
g1672
g1680
sg1673
g1885
sg384
S'c:/marmalade/7.10/s3e/h/ext/s3eImagePicker.h'
p2354
sbsS'IwTextParserITX.h'
p2355
g358
(g1668
g360
Ntp2356
Rp2357
(dp2358
g1672
g1519
sg1673
g1709
sg384
g1579
sbsS'stdlib.h'
p2359
g358
(g1668
g360
Ntp2360
Rp2361
(dp2362
g1672
g1680
sg1673
g1702
sg384
S'c:/marmalade/7.10/s3e/h/std/stdlib.h'
p2363
sbsS'IwCopyingPtr.h'
p2364
g358
(g1668
g360
Ntp2365
Rp2366
(dp2367
g1672
g1519
sg1673
g1709
sg384
g1599
sbsS'iostream'
p2368
g358
(g1668
g360
Ntp2369
Rp2370
(dp2371
g1672
g1680
sg1673
g1681
sg384
S'c:/marmalade/7.10/s3e/h/std/c++/iostream'
p2372
sbsS'png.h'
p2373
g358
(g1668
g360
Ntp2374
Rp2375
(dp2376
g1672
g1243
sg1673
(lp2377
g1237
ag1239
asg384
g1241
sbsS'stddef.h'
p2378
g358
(g1668
g360
Ntp2379
Rp2380
(dp2381
g1672
g1680
sg1673
g1702
sg384
S'c:/marmalade/7.10/s3e/h/std/stddef.h'
p2382
sbsS'setjmp_win32.h'
p2383
g358
(g1668
g360
Ntp2384
Rp2385
(dp2386
g1672
g1680
sg1673
g1702
sg384
S'c:/marmalade/7.10/s3e/h/std/setjmp_win32.h'
p2387
sbsS'IwGxPrint.h'
p2388
g358
(g1668
g360
Ntp2389
Rp2390
(dp2391
g1672
g1465
sg1673
g1802
sg384
g1463
sbsS'iwgx_public.defines.txt'
p2392
g358
(g1668
g360
Ntp2393
Rp2394
(dp2395
g1672
g1465
sg1673
g1802
sg384
g1511
sbsS'streambuf.h'
p2396
g358
(g1668
g360
Ntp2397
Rp2398
(dp2399
g1672
g1680
sg1673
g1681
sg384
S'c:/marmalade/7.10/s3e/h/std/c++/streambuf.h'
p2400
sbsS'IwGeomFPlane.h'
p2401
g358
(g1668
g360
Ntp2402
Rp2403
(dp2404
g1672
g1365
sg1673
g1730
sg384
g1407
sbsS'wchar.h'
p2405
g358
(g1668
g360
Ntp2406
Rp2407
(dp2408
g1672
g1680
sg1673
g1702
sg384
S'c:/marmalade/7.10/s3e/h/std/wchar.h'
p2409
sbsS's3eCameraCapture.h'
p2410
g358
(g1668
g360
Ntp2411
Rp2412
(dp2413
g1672
g1680
sg1673
g1885
sg384
S'c:/marmalade/7.10/s3e/h/ext/s3eCameraCapture.h'
p2414
sbsS'eglext.h'
p2415
g358
(g1668
g360
Ntp2416
Rp2417
(dp2418
g1672
g1680
sg1673
g2004
sg384
S'c:/marmalade/7.10/s3e/h/EGL/eglext.h'
p2419
sbsS'IwResHandlerImage.h'
p2420
g358
(g1668
g360
Ntp2421
Rp2422
(dp2423
g1672
g1441
sg1673
g1925
sg384
g1444
sbsS'strstream.h'
p2424
g358
(g1668
g360
Ntp2425
Rp2426
(dp2427
g1672
g1680
sg1673
g1681
sg384
S'c:/marmalade/7.10/s3e/h/std/c++/strstream.h'
p2428
sbsS'tiniconv.h'
p2429
g358
(g1668
g360
Ntp2430
Rp2431
(dp2432
g1672
g1258
sg1673
g2120
sg384
g1256
sbsS'IwGLExt.h'
p2433
g358
(g1668
g360
Ntp2434
Rp2435
(dp2436
g1672
g1322
sg1673
g1690
sg384
g1325
sbsS'app.icf'
p2437
g358
(g1668
g360
Ntp2438
Rp2439
(dp2440
g1672
(dp2441
sg1673
g4
sg384
S'd:/Marmalade/Stage1/data/app.icf'
p2442
sbsS'IwClassFactory.h'
p2443
g358
(g1668
g360
Ntp2444
Rp2445
(dp2446
g1672
g1519
sg1673
g1709
sg384
g1532
sbsS'file.h'
p2447
g358
(g1668
g360
Ntp2448
Rp2449
(dp2450
g1672
g1680
sg1673
g1816
sg384
S'c:/marmalade/7.10/s3e/h/std/sys/file.h'
p2451
sbsS'cstring'
p2452
g358
(g1668
g360
Ntp2453
Rp2454
(dp2455
g1672
g1680
sg1673
g1681
sg384
S'c:/marmalade/7.10/s3e/h/std/c++/cstring'
p2456
sbsS'iwutil.config.txt'
p2457
g358
(g1668
g360
Ntp2458
Rp2459
(dp2460
g1672
g1519
sg1673
g1709
sg384
g1601
sbsS's3eSMS.h'
p2461
g358
(g1668
g360
Ntp2462
Rp2463
(dp2464
g1672
g1680
sg1673
g1885
sg384
S'c:/marmalade/7.10/s3e/h/ext/s3eSMS.h'
p2465
sbsS'limits.h'
p2466
g358
(g1668
g360
Ntp2467
Rp2468
(dp2469
g1672
g1680
sg1673
g1702
sg384
S'c:/marmalade/7.10/s3e/h/std/limits.h'
p2470
sbsS'iwgl.config.txt'
p2471
g358
(g1668
g360
Ntp2472
Rp2473
(dp2474
g1672
g1322
sg1673
g1690
sg384
g1323
sbsS'IwMaterial.h'
p2475
g358
(g1668
g360
Ntp2476
Rp2477
(dp2478
g1672
g1465
sg1673
g1802
sg384
g1505
sbsS'amazon-ads-ios-sdk.mkf'
p2479
g358
(g1668
g360
Ntp2480
Rp2481
(dp2482
g1672
g1268
sg1673
(lp2483
g1264
asg384
g1266
sbsS'PVRTexTool_interface.cpp'
p2484
g358
(g1668
g360
Ntp2485
Rp2486
(dp2487
g1672
g1300
sg1673
g2280
sg384
g1298
sbsS'IwGxSurface.h'
p2488
g358
(g1668
g360
Ntp2489
Rp2490
(dp2491
g1672
g1465
sg1673
g1802
sg384
g1468
sbsS's3eSocket.h'
p2492
g358
(g1668
g360
Ntp2493
Rp2494
(dp2495
g1672
g1680
sg1673
g1696
sg384
S'c:/marmalade/7.10/s3e/h/s3eSocket.h'
p2496
sbsS'IwAutoFile.h'
p2497
g358
(g1668
g360
Ntp2498
Rp2499
(dp2500
g1672
g1519
sg1673
g1709
sg384
g1573
sbsS'ipc.h'
p2501
g358
(g1668
g360
Ntp2502
Rp2503
(dp2504
g1672
g1680
sg1673
g1816
sg384
S'c:/marmalade/7.10/s3e/h/std/sys/ipc.h'
p2505
sbsS'poll_1.h'
p2506
g358
(g1668
g360
Ntp2507
Rp2508
(dp2509
g1672
g1680
sg1673
g1816
sg384
S'c:/marmalade/7.10/s3e/h/std/sys/poll.h'
p2510
sbsS's3eThread.h'
p2511
g358
(g1668
g360
Ntp2512
Rp2513
(dp2514
g1672
g1680
sg1673
g1696
sg384
S'c:/marmalade/7.10/s3e/h/s3eThread.h'
p2515
sbsS'ucontext.h'
p2516
g358
(g1668
g360
Ntp2517
Rp2518
(dp2519
g1672
g1680
sg1673
g1702
sg384
S'c:/marmalade/7.10/s3e/h/std/ucontext.h'
p2520
sbsS'time.h'
p2521
g358
(g1668
g360
Ntp2522
Rp2523
(dp2524
g1672
g1680
sg1673
g1702
sg384
S'c:/marmalade/7.10/s3e/h/std/time.h'
p2525
sbsS'jchuff.h'
p2526
g358
(g1668
g360
Ntp2527
Rp2528
(dp2529
g1672
g1635
sg1673
g1760
sg384
g1654
sbsS's3eSoundRecord.h'
p2530
g358
(g1668
g360
Ntp2531
Rp2532
(dp2533
g1672
g1680
sg1673
g1696
sg384
S'c:/marmalade/7.10/s3e/h/s3eSoundRecord.h'
p2534
sbsS'IwFibre.h'
p2535
g358
(g1668
g360
Ntp2536
Rp2537
(dp2538
g1672
g1519
sg1673
g1709
sg384
g1545
sbsS's3eVersion.h'
p2539
g358
(g1668
g360
Ntp2540
Rp2541
(dp2542
g1672
g1680
sg1673
g1696
sg384
S'c:/marmalade/7.10/s3e/h/s3eVersion.h'
p2543
sbsS'input.cpp'
p2544
g358
(g1668
g360
Ntp2545
Rp2546
(dp2547
g1672
g1273
sg1673
(lp2548
g1269
asg384
g1276
sbsS'IwGxFontGlyph.h'
p2549
g358
(g1668
g360
Ntp2550
Rp2551
(dp2552
g1672
g1343
sg1673
g1674
sg384
g1357
sbsS's3eTypes.h'
p2553
g358
(g1668
g360
Ntp2554
Rp2555
(dp2556
g1672
g1680
sg1673
g1696
sg384
S'c:/marmalade/7.10/s3e/h/s3eTypes.h'
p2557
sbsS'signal_2.h'
p2558
g358
(g1668
g360
Ntp2559
Rp2560
(dp2561
g1672
g1680
sg1673
g1681
sg384
S'c:/marmalade/7.10/s3e/h/std/c++/signal.h'
p2562
sbsS'termios.h'
p2563
g358
(g1668
g360
Ntp2564
Rp2565
(dp2566
g1672
g1680
sg1673
g1702
sg384
S'c:/marmalade/7.10/s3e/h/std/termios.h'
p2567
sbsS's3eAmazonAds_interface.cpp'
p2568
g358
(g1668
g360
Ntp2569
Rp2570
(dp2571
g1672
g1286
sg1673
(lp2572
g1278
ag1280
ag1282
asg384
g1287
sbsS'slist'
p2573
g358
(g1668
g360
Ntp2574
Rp2575
(dp2576
g1672
g1680
sg1673
g1681
sg384
S'c:/marmalade/7.10/s3e/h/std/c++/slist'
p2577
sbsS'cstdlib'
p2578
g358
(g1668
g360
Ntp2579
Rp2580
(dp2581
g1672
g1680
sg1673
g1681
sg384
S'c:/marmalade/7.10/s3e/h/std/c++/cstdlib'
p2582
sbsS's3eLocation.h'
p2583
g358
(g1668
g360
Ntp2584
Rp2585
(dp2586
g1672
g1680
sg1673
g1696
sg384
S'c:/marmalade/7.10/s3e/h/s3eLocation.h'
p2587
sbsS'IwMemBucketHelpers.h'
p2588
g358
(g1668
g360
Ntp2589
Rp2590
(dp2591
g1672
g1519
sg1673
g1709
sg384
g1530
sbsS's3eHash.h'
p2592
g358
(g1668
g360
Ntp2593
Rp2594
(dp2595
g1672
g1680
sg1673
g1696
sg384
S'c:/marmalade/7.10/s3e/h/s3eHash.h'
p2596
sbsS'IwGeomFMat.h'
p2597
g358
(g1668
g360
Ntp2598
Rp2599
(dp2600
g1672
g1365
sg1673
g1730
sg384
g1423
sbsS'type_traits.h'
p2601
g358
(g1668
g360
Ntp2602
Rp2603
(dp2604
g1672
g1680
sg1673
g1681
sg384
S'c:/marmalade/7.10/s3e/h/std/c++/type_traits.h'
p2605
sbsS's3eAtomic.h'
p2606
g358
(g1668
g360
Ntp2607
Rp2608
(dp2609
g1672
g1680
sg1673
g1696
sg384
S'c:/marmalade/7.10/s3e/h/s3eAtomic.h'
p2610
sbsS'IwMenu.h'
p2611
g358
(g1668
g360
Ntp2612
Rp2613
(dp2614
g1672
g1519
sg1673
g1709
sg384
g1526
sbsS'IwResHandlerITX.h'
p2615
g358
(g1668
g360
Ntp2616
Rp2617
(dp2618
g1672
g1441
sg1673
g1925
sg384
g1446
sbsS'IwArray.h'
p2619
g358
(g1668
g360
Ntp2620
Rp2621
(dp2622
g1672
g1519
sg1673
g1709
sg384
g1528
sbsS'IwUTF8.h'
p2623
g358
(g1668
g360
Ntp2624
Rp2625
(dp2626
g1672
g1519
sg1673
g1709
sg384
g1609
sbsS'math_rvct.h'
p2627
g358
(g1668
g360
Ntp2628
Rp2629
(dp2630
g1672
g1680
sg1673
g1702
sg384
S'c:/marmalade/7.10/s3e/h/std/math_rvct.h'
p2631
sbsS'IwUtil.h'
p2632
g358
(g1668
g360
Ntp2633
Rp2634
(dp2635
g1672
g1519
sg1673
g1709
sg384
g1543
sbsS'IwFColour.h'
p2636
g358
(g1668
g360
Ntp2637
Rp2638
(dp2639
g1672
g1465
sg1673
g1802
sg384
g1509
sbsS's3eamazonads.mkf'
p2640
g358
(g1668
g360
Ntp2641
Rp2642
(dp2643
g1672
g1291
sg1673
(lp2644
g1278
ag1280
asg384
g1289
sbsS'wctype.h'
p2645
g358
(g1668
g360
Ntp2646
Rp2647
(dp2648
g1672
g1680
sg1673
g1702
sg384
S'c:/marmalade/7.10/s3e/h/std/wctype.h'
p2649
sbsS'cstddef'
p2650
g358
(g1668
g360
Ntp2651
Rp2652
(dp2653
g1672
g1680
sg1673
g1681
sg384
S'c:/marmalade/7.10/s3e/h/std/c++/cstddef'
p2654
sbsS'assert.h'
p2655
g358
(g1668
g360
Ntp2656
Rp2657
(dp2658
g1672
g1680
sg1673
g1702
sg384
S'c:/marmalade/7.10/s3e/h/std/assert.h'
p2659
sbsS'mman.h'
p2660
g358
(g1668
g360
Ntp2661
Rp2662
(dp2663
g1672
g1680
sg1673
g1816
sg384
S'c:/marmalade/7.10/s3e/h/std/sys/mman.h'
p2664
sbsS'IwRandom.h'
p2665
g358
(g1668
g360
Ntp2666
Rp2667
(dp2668
g1672
g1519
sg1673
g1709
sg384
g1585
sbsS'libgen.h'
p2669
g358
(g1668
g360
Ntp2670
Rp2671
(dp2672
g1672
g1680
sg1673
g1702
sg384
S'c:/marmalade/7.10/s3e/h/std/libgen.h'
p2673
sbsS'utsname.h'
p2674
g358
(g1668
g360
Ntp2675
Rp2676
(dp2677
g1672
g1680
sg1673
g1816
sg384
S'c:/marmalade/7.10/s3e/h/std/sys/utsname.h'
p2678
sbsS'wait.h'
p2679
g358
(g1668
g360
Ntp2680
Rp2681
(dp2682
g1672
g1680
sg1673
g1816
sg384
S'c:/marmalade/7.10/s3e/h/std/sys/wait.h'
p2683
sbsS'param.h'
p2684
g358
(g1668
g360
Ntp2685
Rp2686
(dp2687
g1672
g1680
sg1673
g1816
sg384
S'c:/marmalade/7.10/s3e/h/std/sys/param.h'
p2688
sbsS'IwDivide.h'
p2689
g358
(g1668
g360
Ntp2690
Rp2691
(dp2692
g1672
g1519
sg1673
g1709
sg384
g1537
sbsS'IwResManager.h'
p2693
g358
(g1668
g360
Ntp2694
Rp2695
(dp2696
g1672
g1441
sg1673
g1925
sg384
g1448
sbsS'ostream'
p2697
g358
(g1668
g360
Ntp2698
Rp2699
(dp2700
g1672
g1680
sg1673
g1681
sg384
S'c:/marmalade/7.10/s3e/h/std/c++/ostream'
p2701
sbsS'cwctype'
p2702
g358
(g1668
g360
Ntp2703
Rp2704
(dp2705
g1672
g1680
sg1673
g1681
sg384
S'c:/marmalade/7.10/s3e/h/std/c++/cwctype'
p2706
sbsS'set'
p2707
g358
(g1668
g360
Ntp2708
Rp2709
(dp2710
g1672
g1680
sg1673
g1681
sg384
S'c:/marmalade/7.10/s3e/h/std/c++/set'
p2711
sbsS'IwGeomSQuat.h'
p2712
g358
(g1668
g360
Ntp2713
Rp2714
(dp2715
g1672
g1365
sg1673
g1730
sg384
g1409
sbsS'locale'
p2716
g358
(g1668
g360
Ntp2717
Rp2718
(dp2719
g1672
g1680
sg1673
g1681
sg384
S'c:/marmalade/7.10/s3e/h/std/c++/locale'
p2720
sbsS'cstdio'
p2721
g358
(g1668
g360
Ntp2722
Rp2723
(dp2724
g1672
g1680
sg1673
g1681
sg384
S'c:/marmalade/7.10/s3e/h/std/c++/cstdio'
p2725
sbsS'cdjpeg.h'
p2726
g358
(g1668
g360
Ntp2727
Rp2728
(dp2729
g1672
g1635
sg1673
g1760
sg384
g1640
sbsS'IwList.h'
p2730
g358
(g1668
g360
Ntp2731
Rp2732
(dp2733
g1672
g1519
sg1673
g1709
sg384
g1581
sbsS'inttypes.h'
p2734
g358
(g1668
g360
Ntp2735
Rp2736
(dp2737
g1672
g1680
sg1673
g1702
sg384
S'c:/marmalade/7.10/s3e/h/std/inttypes.h'
p2738
sbsS'dirent.h'
p2739
g358
(g1668
g360
Ntp2740
Rp2741
(dp2742
g1672
g1680
sg1673
g1702
sg384
S'c:/marmalade/7.10/s3e/h/std/dirent.h'
p2743
sbsS'IwGeomVec3.h'
p2744
g358
(g1668
g360
Ntp2745
Rp2746
(dp2747
g1672
g1365
sg1673
g1730
sg384
g1393
sbsS'transupp.h'
p2748
g358
(g1668
g360
Ntp2749
Rp2750
(dp2751
g1672
g1635
sg1673
g1760
sg384
g1638
sbsS'IwMath.h'
p2752
g358
(g1668
g360
Ntp2753
Rp2754
(dp2755
g1672
g1519
sg1673
g1709
sg384
g1555
sbsS'IwGeomQuat.h'
p2756
g358
(g1668
g360
Ntp2757
Rp2758
(dp2759
g1672
g1365
sg1673
g1730
sg384
g1363
sbsS'glplatform.h'
p2760
g358
(g1668
g360
Ntp2761
Rp2762
(dp2763
g1672
g1680
sg1673
g2220
sg384
S'c:/marmalade/7.10/s3e/h/GLES/glplatform.h'
p2764
sbsS's3e-default.mkf'
p2765
g358
(g1668
g360
Ntp2766
Rp2767
(dp2768
g1672
g1312
sg1673
(lp2769
g1308
asg384
g1310
sbsS'bitset'
p2770
g358
(g1668
g360
Ntp2771
Rp2772
(dp2773
g1672
g1680
sg1673
g1681
sg384
S'c:/marmalade/7.10/s3e/h/std/c++/bitset'
p2774
sbsS'alloca.h'
p2775
g358
(g1668
g360
Ntp2776
Rp2777
(dp2778
g1672
g1680
sg1673
g1702
sg384
S'c:/marmalade/7.10/s3e/h/std/alloca.h'
p2779
sbsS'IwResHandler.h'
p2780
g358
(g1668
g360
Ntp2781
Rp2782
(dp2783
g1672
g1441
sg1673
g1925
sg384
g1439
sbsS'IwResHandlerMTL.h'
p2784
g358
(g1668
g360
Ntp2785
Rp2786
(dp2787
g1672
g1465
sg1673
g1802
sg384
g1503
sbsS'IwRuntime.h'
p2788
g358
(g1668
g360
Ntp2789
Rp2790
(dp2791
g1672
g1519
sg1673
g1709
sg384
g1607
sbsS'limits'
p2792
g358
(g1668
g360
Ntp2793
Rp2794
(dp2795
g1672
g1680
sg1673
g1681
sg384
S'c:/marmalade/7.10/s3e/h/std/c++/limits'
p2796
sbsS'IwGeomBBox.h'
p2797
g358
(g1668
g360
Ntp2798
Rp2799
(dp2800
g1672
g1365
sg1673
g1730
sg384
g1413
sbsS's3eContacts.h'
p2801
g358
(g1668
g360
Ntp2802
Rp2803
(dp2804
g1672
g1680
sg1673
g1696
sg384
S'c:/marmalade/7.10/s3e/h/s3eContacts.h'
p2805
sbsS's3eLicense.h'
p2806
g358
(g1668
g360
Ntp2807
Rp2808
(dp2809
g1672
g1680
sg1673
g1696
sg384
S'c:/marmalade/7.10/s3e/h/s3eLicense.h'
p2810
sbsS'iwgx.config.txt'
p2811
g358
(g1668
g360
Ntp2812
Rp2813
(dp2814
g1672
g1465
sg1673
g1802
sg384
g1476
sbsS'IwTextParser.h'
p2815
g358
(g1668
g360
Ntp2816
Rp2817
(dp2818
g1672
g1519
sg1673
g1709
sg384
g1559
sbsS's3eTimer.h'
p2819
g358
(g1668
g360
Ntp2820
Rp2821
(dp2822
g1672
g1680
sg1673
g1696
sg384
S'c:/marmalade/7.10/s3e/h/s3eTimer.h'
p2823
sbsS'IwGeomVec.h'
p2824
g358
(g1668
g360
Ntp2825
Rp2826
(dp2827
g1672
g1365
sg1673
g1730
sg384
g1417
sbsS'IwSerialise.h'
p2828
g358
(g1668
g360
Ntp2829
Rp2830
(dp2831
g1672
g1519
sg1673
g1709
sg384
g1553
sbsS'cstdarg'
p2832
g358
(g1668
g360
Ntp2833
Rp2834
(dp2835
g1672
g1680
sg1673
g1681
sg384
S'c:/marmalade/7.10/s3e/h/std/c++/cstdarg'
p2836
sbsS'gl2ext.h'
p2837
g358
(g1668
g360
Ntp2838
Rp2839
(dp2840
g1672
g1680
sg1673
g1917
sg384
S'c:/marmalade/7.10/s3e/h/GLES2/gl2ext.h'
p2841
sbsS'IwChar.h'
p2842
g358
(g1668
g360
Ntp2843
Rp2844
(dp2845
g1672
g1519
sg1673
g1709
sg384
g1569
sbsS's3eSound.h'
p2846
g358
(g1668
g360
Ntp2847
Rp2848
(dp2849
g1672
g1680
sg1673
g1696
sg384
S'c:/marmalade/7.10/s3e/h/s3eSound.h'
p2850
sbsS'IwOptimiseThumb.h'
p2851
g358
(g1668
g360
Ntp2852
Rp2853
(dp2854
g1672
g1519
sg1673
g1709
sg384
g1571
sbsS'exception.h'
p2855
g358
(g1668
g360
Ntp2856
Rp2857
(dp2858
g1672
g1680
sg1673
g1681
sg384
S'c:/marmalade/7.10/s3e/h/std/c++/exception.h'
p2859
sbsS'iwgeom.config.txt'
p2860
g358
(g1668
g360
Ntp2861
Rp2862
(dp2863
g1672
g1365
sg1673
g1730
sg384
g1374
sbsS'gl31.h'
p2864
g358
(g1668
g360
Ntp2865
Rp2866
(dp2867
g1672
g1680
sg1673
g1972
sg384
S'c:/marmalade/7.10/s3e/h/GLES3/gl31.h'
p2868
sbsS'gl.h'
p2869
g358
(g1668
g360
Ntp2870
Rp2871
(dp2872
g1672
g1680
sg1673
g2220
sg384
S'c:/marmalade/7.10/s3e/h/GLES/gl.h'
p2873
sbsS'zlib.h'
p2874
g358
(g1668
g360
Ntp2875
Rp2876
(dp2877
g1672
g1624
sg1673
g2322
sg384
g1625
sbsS'temp_defines_release.h'
p2878
g358
(g1668
g360
Ntp2879
Rp2880
(dp2881
g1672
(lp2882
sg1673
(lp2883
S"'generated files'"
p2884
asg384
S'd:/Marmalade/Stage1/build_stage1_vc14/temp_defines_release.h'
p2885
sbsS'iwgl.mkf'
p2886
g358
(g1668
g360
Ntp2887
Rp2888
(dp2889
g1672
g1319
sg1673
g1690
sg384
g1317
sbsS'IwColour.h'
p2890
g358
(g1668
g360
Ntp2891
Rp2892
(dp2893
g1672
g1465
sg1673
g1802
sg384
g1478
sbsS's3eLibrary.h'
p2894
g358
(g1668
g360
Ntp2895
Rp2896
(dp2897
g1672
g1680
sg1673
g1885
sg384
S'c:/marmalade/7.10/s3e/h/ext/s3eLibrary.h'
p2898
sbsS'types.h'
p2899
g358
(g1668
g360
Ntp2900
Rp2901
(dp2902
g1672
g1680
sg1673
g1816
sg384
S'c:/marmalade/7.10/s3e/h/std/sys/types.h'
p2903
sbsS'ifaddrs.h'
p2904
g358
(g1668
g360
Ntp2905
Rp2906
(dp2907
g1672
g1680
sg1673
g1702
sg384
S'c:/marmalade/7.10/s3e/h/std/ifaddrs.h'
p2908
sbsS'strstream'
p2909
g358
(g1668
g360
Ntp2910
Rp2911
(dp2912
g1672
g1680
sg1673
g1681
sg384
S'c:/marmalade/7.10/s3e/h/std/c++/strstream'
p2913
sbsS'Stage1.cpp'
p2914
g358
(g1668
g360
Ntp2915
Rp2916
(dp2917
g1672
g1273
sg1673
g2548
sg384
g1274
sbsS'exception'
p2918
g358
(g1668
g360
Ntp2919
Rp2920
(dp2921
g1672
g1680
sg1673
g1681
sg384
S'c:/marmalade/7.10/s3e/h/std/c++/exception'
p2922
sbsS's3eAmazonAds.defines.txt'
p2923
g358
(g1668
g360
Ntp2924
Rp2925
(dp2926
g1672
g1286
sg1673
g2572
sg384
g1284
sbsS'rlocks.h'
p2927
g358
(g1668
g360
Ntp2928
Rp2929
(dp2930
g1672
g1680
sg1673
g1681
sg384
S'c:/marmalade/7.10/s3e/h/std/c++/rlocks.h'
p2931
sbsS'ioctl.h'
p2932
g358
(g1668
g360
Ntp2933
Rp2934
(dp2935
g1672
g1680
sg1673
g1816
sg384
S'c:/marmalade/7.10/s3e/h/std/sys/ioctl.h'
p2936
sbsS'rope'
p2937
g358
(g1668
g360
Ntp2938
Rp2939
(dp2940
g1672
g1680
sg1673
g1681
sg384
S'c:/marmalade/7.10/s3e/h/std/c++/rope'
p2941
sbsS'jinclude.h'
p2942
g358
(g1668
g360
Ntp2943
Rp2944
(dp2945
g1672
g1635
sg1673
g1760
sg384
g1658
sbsS'IwEvent.h'
p2946
g358
(g1668
g360
Ntp2947
Rp2948
(dp2949
g1672
g1519
sg1673
g1709
sg384
g1605
sbsS'IwOptimiseSize.h'
p2950
g358
(g1668
g360
Ntp2951
Rp2952
(dp2953
g1672
g1519
sg1673
g1709
sg384
g1595
sbsS'iwgxfont_public.defines.txt'
p2954
g358
(g1668
g360
Ntp2955
Rp2956
(dp2957
g1672
g1343
sg1673
g1674
sg384
g1353
sbsS'iconv.h'
p2958
g358
(g1668
g360
Ntp2959
Rp2960
(dp2961
g1672
g1680
sg1673
g1702
sg384
S'c:/marmalade/7.10/s3e/h/std/iconv.h'
p2962
sbsS'sendfile.h'
p2963
g358
(g1668
g360
Ntp2964
Rp2965
(dp2966
g1672
g1680
sg1673
g1816
sg384
S'c:/marmalade/7.10/s3e/h/std/sys/sendfile.h'
p2967
sbsS'IwGeomSphere.h'
p2968
g358
(g1668
g360
Ntp2969
Rp2970
(dp2971
g1672
g1365
sg1673
g1730
sg384
g1399
sbsS'tiniconv.mkf'
p2972
g358
(g1668
g360
Ntp2973
Rp2974
(dp2975
g1672
g1263
sg1673
g2120
sg384
g1261
sbsS'jdct.h'
p2976
g358
(g1668
g360
Ntp2977
Rp2978
(dp2979
g1672
g1635
sg1673
g1760
sg384
g1648
sbsS'cctype'
p2980
g358
(g1668
g360
Ntp2981
Rp2982
(dp2983
g1672
g1680
sg1673
g1681
sg384
S'c:/marmalade/7.10/s3e/h/std/c++/cctype'
p2984
sbsS's3eConfig.h'
p2985
g358
(g1668
g360
Ntp2986
Rp2987
(dp2988
g1672
g1680
sg1673
g1696
sg384
S'c:/marmalade/7.10/s3e/h/s3eConfig.h'
p2989
sbsS'IwHashString.h'
p2990
g358
(g1668
g360
Ntp2991
Rp2992
(dp2993
g1672
g1519
sg1673
g1709
sg384
g1549
sbsS'stat.h'
p2994
g358
(g1668
g360
Ntp2995
Rp2996
(dp2997
g1672
g1680
sg1673
g1816
sg384
S'c:/marmalade/7.10/s3e/h/std/sys/stat.h'
p2998
sbsS'byteswap.h'
p2999
g358
(g1668
g360
Ntp3000
Rp3001
(dp3002
g1672
g1680
sg1673
g1702
sg384
S'c:/marmalade/7.10/s3e/h/std/byteswap.h'
p3003
sbsS'iwresmanager.mkf'
p3004
g358
(g1668
g360
Ntp3005
Rp3006
(dp3007
g1672
g1454
sg1673
g1925
sg384
g1452
sbsS'IwUtilInitTerm.h'
p3008
g358
(g1668
g360
Ntp3009
Rp3010
(dp3011
g1672
g1519
sg1673
g1709
sg384
g1603
sbsS'pthread_1.h'
p3012
g358
(g1668
g360
Ntp3013
Rp3014
(dp3015
g1672
g1680
sg1673
g1681
sg384
S'c:/marmalade/7.10/s3e/h/std/c++/pthread.h'
p3016
sbsS'iw2d.mkf'
p3017
g358
(g1668
g360
Ntp3018
Rp3019
(dp3020
g1672
g1331
sg1673
g1765
sg384
g1329
sbsS'complex'
p3021
g358
(g1668
g360
Ntp3022
Rp3023
(dp3024
g1672
g1680
sg1673
g1681
sg384
S'c:/marmalade/7.10/s3e/h/std/c++/complex'
p3025
sbsS's3e.icf'
p3026
g358
(g1668
g360
Ntp3027
Rp3028
(dp3029
g1672
g1680
sg1673
g1696
sg384
S'c:/marmalade/7.10/s3e/s3e.icf'
p3030
sbsS'IwVariableBitField.h'
p3031
g358
(g1668
g360
Ntp3032
Rp3033
(dp3034
g1672
g1519
sg1673
g1709
sg384
g1597
sbsS'sem.h'
p3035
g358
(g1668
g360
Ntp3036
Rp3037
(dp3038
g1672
g1680
sg1673
g1816
sg384
S'c:/marmalade/7.10/s3e/h/std/sys/sem.h'
p3039
sbsS'IwGxFontState.h'
p3040
g358
(g1668
g360
Ntp3041
Rp3042
(dp3043
g1672
g1343
sg1673
g1674
sg384
g1351
sbsS'stdio.h'
p3044
g358
(g1668
g360
Ntp3045
Rp3046
(dp3047
g1672
g1680
sg1673
g1702
sg384
S'c:/marmalade/7.10/s3e/h/std/stdio.h'
p3048
sbsS'jmemsys.h'
p3049
g358
(g1668
g360
Ntp3050
Rp3051
(dp3052
g1672
g1635
sg1673
g1760
sg384
g1652
sbsS'ios'
p3053
g358
(g1668
g360
Ntp3054
Rp3055
(dp3056
g1672
g1680
sg1673
g1681
sg384
S'c:/marmalade/7.10/s3e/h/std/c++/ios'
p3057
sbsS'IwGeomFVec4.h'
p3058
g358
(g1668
g360
Ntp3059
Rp3060
(dp3061
g1672
g1365
sg1673
g1730
sg384
g1433
sbsS'stack'
p3062
g358
(g1668
g360
Ntp3063
Rp3064
(dp3065
g1672
g1680
sg1673
g1681
sg384
S'c:/marmalade/7.10/s3e/h/std/c++/stack'
p3066
sbsS'new.h'
p3067
g358
(g1668
g360
Ntp3068
Rp3069
(dp3070
g1672
g1680
sg1673
g1681
sg384
S'c:/marmalade/7.10/s3e/h/std/c++/new.h'
p3071
sbsS's3eAmazonAds.h'
p3072
g358
(g1668
g360
Ntp3073
Rp3074
(dp3075
g1672
g1286
sg1673
g2644
sg384
g1292
sbsS's3eEMail.h'
p3076
g358
(g1668
g360
Ntp3077
Rp3078
(dp3079
g1672
g1680
sg1673
g1885
sg384
S'c:/marmalade/7.10/s3e/h/ext/s3eEMail.h'
p3080
sbsS's3eVideo.h'
p3081
g358
(g1668
g360
Ntp3082
Rp3083
(dp3084
g1672
g1680
sg1673
g1696
sg384
S'c:/marmalade/7.10/s3e/h/s3eVideo.h'
p3085
sbsS'pngconf.h'
p3086
g358
(g1668
g360
Ntp3087
Rp3088
(dp3089
g1672
g1243
sg1673
g2377
sg384
g1244
sbsS'pwd.h'
p3090
g358
(g1668
g360
Ntp3091
Rp3092
(dp3093
g1672
g1680
sg1673
g1702
sg384
S'c:/marmalade/7.10/s3e/h/std/pwd.h'
p3094
sbsS'gl3.h'
p3095
g358
(g1668
g360
Ntp3096
Rp3097
(dp3098
g1672
g1680
sg1673
g1972
sg384
S'c:/marmalade/7.10/s3e/h/GLES3/gl3.h'
p3099
sbsS'IwClip.h'
p3100
g358
(g1668
g360
Ntp3101
Rp3102
(dp3103
g1672
g1465
sg1673
g1802
sg384
g1474
sbsS'iwresmanager.config.txt'
p3104
g358
(g1668
g360
Ntp3105
Rp3106
(dp3107
g1672
g1441
sg1673
g1925
sg384
g1442
sbsS'IwGxShaderTechnique.h'
p3108
g358
(g1668
g360
Ntp3109
Rp3110
(dp3111
g1672
g1465
sg1673
g1802
sg384
g1513
sbsS'IwCore.h'
p3112
g358
(g1668
g360
Ntp3113
Rp3114
(dp3115
g1672
g1519
sg1673
g1709
sg384
g1565
sbsS'cfloat'
p3116
g358
(g1668
g360
Ntp3117
Rp3118
(dp3119
g1672
g1680
sg1673
g1681
sg384
S'c:/marmalade/7.10/s3e/h/std/c++/cfloat'
p3120
sbsS'IwGeomMat2D.h'
p3121
g358
(g1668
g360
Ntp3122
Rp3123
(dp3124
g1672
g1365
sg1673
g1730
sg384
g1429
sbsS'IwAllocator.h'
p3125
g358
(g1668
g360
Ntp3126
Rp3127
(dp3128
g1672
g1519
sg1673
g1709
sg384
g1567
sbsS'IwPath.h'
p3129
g358
(g1668
g360
Ntp3130
Rp3131
(dp3132
g1672
g1519
sg1673
g1709
sg384
g1520
sbsS'iwgxfont.mkf'
p3133
g358
(g1668
g360
Ntp3134
Rp3135
(dp3136
g1672
g1348
sg1673
g1674
sg384
g1346
sbsS'IwTexture.h'
p3137
g358
(g1668
g360
Ntp3138
Rp3139
(dp3140
g1672
g1465
sg1673
g1802
sg384
g1497
sbsS'IwGeomVec.h.tpl'
p3141
g358
(g1668
g360
Ntp3142
Rp3143
(dp3144
g1672
g1365
sg1673
g1730
sg384
g1372
sbsS's3eAccelerometer.h'
p3145
g358
(g1668
g360
Ntp3146
Rp3147
(dp3148
g1672
g1680
sg1673
g1696
sg384
S'c:/marmalade/7.10/s3e/h/s3eAccelerometer.h'
p3149
sbsS'setjmp.h'
p3150
g358
(g1668
g360
Ntp3151
Rp3152
(dp3153
g1672
g1680
sg1673
g1702
sg384
S'c:/marmalade/7.10/s3e/h/std/setjmp.h'
p3154
sbsS'IwFile.h'
p3155
g358
(g1668
g360
Ntp3156
Rp3157
(dp3158
g1672
g1519
sg1673
g1709
sg384
g1522
sbsS'IwTextParseable.h'
p3159
g358
(g1668
g360
Ntp3160
Rp3161
(dp3162
g1672
g1519
sg1673
g1709
sg384
g1591
sbsS'istream.h'
p3163
g358
(g1668
g360
Ntp3164
Rp3165
(dp3166
g1672
g1680
sg1673
g1681
sg384
S'c:/marmalade/7.10/s3e/h/std/c++/istream.h'
p3167
sbsS'stdint.h'
p3168
g358
(g1668
g360
Ntp3169
Rp3170
(dp3171
g1672
g1680
sg1673
g1702
sg384
S'c:/marmalade/7.10/s3e/h/std/stdint.h'
p3172
sbsS'semaphore.h'
p3173
g358
(g1668
g360
Ntp3174
Rp3175
(dp3176
g1672
g1680
sg1673
g1702
sg384
S'c:/marmalade/7.10/s3e/h/std/semaphore.h'
p3177
sbsS'ctime'
p3178
g358
(g1668
g360
Ntp3179
Rp3180
(dp3181
g1672
g1680
sg1673
g1681
sg384
S'c:/marmalade/7.10/s3e/h/std/c++/ctime'
p3182
sbsS'sstream'
p3183
g358
(g1668
g360
Ntp3184
Rp3185
(dp3186
g1672
g1680
sg1673
g1681
sg384
S'c:/marmalade/7.10/s3e/h/std/c++/sstream'
p3187
sbsS'IwGeomFBBox.h'
p3188
g358
(g1668
g360
Ntp3189
Rp3190
(dp3191
g1672
g1365
sg1673
g1730
sg384
g1376
sbsS'IwDebugPrim.h'
p3192
g358
(g1668
g360
Ntp3193
Rp3194
(dp3195
g1672
g1465
sg1673
g1802
sg384
g1484
sbsS'IwGxFontContainer.h'
p3196
g358
(g1668
g360
Ntp3197
Rp3198
(dp3199
g1672
g1343
sg1673
g1674
sg384
g1355
sbsS'IwGeomSVec3.h'
p3200
g358
(g1668
g360
Ntp3201
Rp3202
(dp3203
g1672
g1365
sg1673
g1730
sg384
g1387
sbsS'cassert'
p3204
g358
(g1668
g360
Ntp3205
Rp3206
(dp3207
g1672
g1680
sg1673
g1681
sg384
S'c:/marmalade/7.10/s3e/h/std/c++/cassert'
p3208
sbsS'IwGeomFVec3.h'
p3209
g358
(g1668
g360
Ntp3210
Rp3211
(dp3212
g1672
g1365
sg1673
g1730
sg384
g1427
sbsS'streambuf'
p3213
g358
(g1668
g360
Ntp3214
Rp3215
(dp3216
g1672
g1680
sg1673
g1681
sg384
S'c:/marmalade/7.10/s3e/h/std/c++/streambuf'
p3217
sbsS's3eMetrics.h'
p3218
g358
(g1668
g360
Ntp3219
Rp3220
(dp3221
g1672
g1680
sg1673
g1885
sg384
S'c:/marmalade/7.10/s3e/h/ext/s3eMetrics.h'
p3222
sbsS'IwGxFont.h'
p3223
g358
(g1668
g360
Ntp3224
Rp3225
(dp3226
g1672
g1343
sg1673
g1674
sg384
g1341
sbsS's3eSecureStorage.h'
p3227
g358
(g1668
g360
Ntp3228
Rp3229
(dp3230
g1672
g1680
sg1673
g1696
sg384
S'c:/marmalade/7.10/s3e/h/s3eSecureStorage.h'
p3231
sbsS'string.h'
p3232
g358
(g1668
g360
Ntp3233
Rp3234
(dp3235
g1672
g1680
sg1673
g1702
sg384
S'c:/marmalade/7.10/s3e/h/std/string.h'
p3236
sbsS'IwResource.h'
p3237
g358
(g1668
g360
Ntp3238
Rp3239
(dp3240
g1672
g1519
sg1673
g1709
sg384
g1593
sbsS'IwGeomSVec2.h'
p3241
g358
(g1668
g360
Ntp3242
Rp3243
(dp3244
g1672
g1365
sg1673
g1730
sg384
g1411
sbsS'libjpeg.mkf'
p3245
g358
(g1668
g360
Ntp3246
Rp3247
(dp3248
g1672
g1664
sg1673
(lp3249
g1630
asg384
g1662
sbsS'IwGxDebug.h'
p3250
g358
(g1668
g360
Ntp3251
Rp3252
(dp3253
g1672
g1465
sg1673
g1802
sg384
g1472
sbsS'pthread_types.h'
p3254
g358
(g1668
g360
Ntp3255
Rp3256
(dp3257
g1672
g1680
sg1673
g1702
sg384
S'c:/marmalade/7.10/s3e/h/std/pthread_types.h'
p3258
sbsS'iomanip.h'
p3259
g358
(g1668
g360
Ntp3260
Rp3261
(dp3262
g1672
g1680
sg1673
g1681
sg384
S'c:/marmalade/7.10/s3e/h/std/c++/iomanip.h'
p3263
sbsS'IwKeymap.h'
p3264
g358
(g1668
g360
Ntp3265
Rp3266
(dp3267
g1672
g1519
sg1673
g1709
sg384
g1563
sbsS'IwDebug.h'
p3268
g358
(g1668
g360
Ntp3269
Rp3270
(dp3271
g1672
g1519
sg1673
g1709
sg384
g1589
sbsS's3eIOSBackgroundAudio.h'
p3272
g358
(g1668
g360
Ntp3273
Rp3274
(dp3275
g1672
g1680
sg1673
g1885
sg384
S'c:/marmalade/7.10/s3e/h/ext/s3eIOSBackgroundAudio.h'
p3276
sbsS'IwGeomMenu.h'
p3277
g358
(g1668
g360
Ntp3278
Rp3279
(dp3280
g1672
g1365
sg1673
g1730
sg384
g1419
sbsS'IwDivTable.h'
p3281
g358
(g1668
g360
Ntp3282
Rp3283
(dp3284
g1672
g1519
sg1673
g1709
sg384
g1517
sbsS'ctype.h'
p3285
g358
(g1668
g360
Ntp3286
Rp3287
(dp3288
g1672
g1680
sg1673
g1702
sg384
S'c:/marmalade/7.10/s3e/h/std/ctype.h'
p3289
sbsS'IwGeomMat.h'
p3290
g358
(g1668
g360
Ntp3291
Rp3292
(dp3293
g1672
g1365
sg1673
g1730
sg384
g1431
sbsS'IwResGroup.h'
p3294
g358
(g1668
g360
Ntp3295
Rp3296
(dp3297
g1672
g1441
sg1673
g1925
sg384
g1457
sbsS'signal_1.h'
p3298
g358
(g1668
g360
Ntp3299
Rp3300
(dp3301
g1672
g1680
sg1673
g1816
sg384
S'c:/marmalade/7.10/s3e/h/std/sys/signal.h'
p3302
sbsS'functional'
p3303
g358
(g1668
g360
Ntp3304
Rp3305
(dp3306
g1672
g1680
sg1673
g1681
sg384
S'c:/marmalade/7.10/s3e/h/std/c++/functional'
p3307
sbsS'shm.h'
p3308
g358
(g1668
g360
Ntp3309
Rp3310
(dp3311
g1672
g1680
sg1673
g1816
sg384
S'c:/marmalade/7.10/s3e/h/std/sys/shm.h'
p3312
sbsS'IwManagedList.h'
p3313
g358
(g1668
g360
Ntp3314
Rp3315
(dp3316
g1672
g1519
sg1673
g1709
sg384
g1541
sbsS'prctl.h'
p3317
g358
(g1668
g360
Ntp3318
Rp3319
(dp3320
g1672
g1680
sg1673
g1816
sg384
S'c:/marmalade/7.10/s3e/h/std/sys/prctl.h'
p3321
sbsS'un.h'
p3322
g358
(g1668
g360
Ntp3323
Rp3324
(dp3325
g1672
g1680
sg1673
g1816
sg384
S'c:/marmalade/7.10/s3e/h/std/sys/un.h'
p3326
sbsS'temp_defines_debug.h'
p3327
g358
(g1668
g360
Ntp3328
Rp3329
(dp3330
g1672
(lp3331
sg1673
(lp3332
g2884
asg384
S'd:/Marmalade/Stage1/build_stage1_vc14/temp_defines_debug.h'
p3333
sbsS'utility'
p3334
g358
(g1668
g360
Ntp3335
Rp3336
(dp3337
g1672
g1680
sg1673
g1681
sg384
S'c:/marmalade/7.10/s3e/h/std/c++/utility'
p3338
sbsS'input.h'
p3339
g358
(g1668
g360
Ntp3340
Rp3341
(dp3342
g1672
g1273
sg1673
g2548
sg384
g1271
sbsS'IwGeomLegacy.h'
p3343
g358
(g1668
g360
Ntp3344
Rp3345
(dp3346
g1672
g1365
sg1673
g1730
sg384
g1401
sbsS'IwTPage.h'
p3347
g358
(g1668
g360
Ntp3348
Rp3349
(dp3350
g1672
g1465
sg1673
g1802
sg384
g1501
sbsS'IwResSerialise.h'
p3351
g358
(g1668
g360
Ntp3352
Rp3353
(dp3354
g1672
g1441
sg1673
g1925
sg384
g1450
sbsS's3eCrypto.h'
p3355
g358
(g1668
g360
Ntp3356
Rp3357
(dp3358
g1672
g1680
sg1673
g1696
sg384
S'c:/marmalade/7.10/s3e/h/s3eCrypto.h'
p3359
sbsS's3eKeyboard.h'
p3360
g358
(g1668
g360
Ntp3361
Rp3362
(dp3363
g1672
g1680
sg1673
g1696
sg384
S'c:/marmalade/7.10/s3e/h/s3eKeyboard.h'
p3364
sbsS'fcntl.h'
p3365
g358
(g1668
g360
Ntp3366
Rp3367
(dp3368
g1672
g1680
sg1673
g1702
sg384
S'c:/marmalade/7.10/s3e/h/std/fcntl.h'
p3369
sbsS'memory.h'
p3370
g358
(g1668
g360
Ntp3371
Rp3372
(dp3373
g1672
g1680
sg1673
g1702
sg384
S'c:/marmalade/7.10/s3e/h/std/memory.h'
p3374
sbsS'pthread.h'
p3375
g358
(g1668
g360
Ntp3376
Rp3377
(dp3378
g1672
g1680
sg1673
g1702
sg384
S'c:/marmalade/7.10/s3e/h/std/pthread.h'
p3379
sbsS'IwGeomIntersect.h'
p3380
g358
(g1668
g360
Ntp3381
Rp3382
(dp3383
g1672
g1365
sg1673
g1730
sg384
g1368
sbsS'algorithm'
p3384
g358
(g1668
g360
Ntp3385
Rp3386
(dp3387
g1672
g1680
sg1673
g1681
sg384
S'c:/marmalade/7.10/s3e/h/std/c++/algorithm'
p3388
sbsS'egl_1.h'
p3389
g358
(g1668
g360
Ntp3390
Rp3391
(dp3392
g1672
g1680
sg1673
g2220
sg384
S'c:/marmalade/7.10/s3e/h/GLES/egl.h'
p3393
sbsS'ostream.h'
p3394
g358
(g1668
g360
Ntp3395
Rp3396
(dp3397
g1672
g1680
sg1673
g1681
sg384
S'c:/marmalade/7.10/s3e/h/std/c++/ostream.h'
p3398
sbsS'stl_user_config.h'
p3399
g358
(g1668
g360
Ntp3400
Rp3401
(dp3402
g1672
g1680
sg1673
g1681
sg384
S'c:/marmalade/7.10/s3e/h/std/c++/stl_user_config.h'
p3403
sbsS'iwgx.mkf'
p3404
g358
(g1668
g360
Ntp3405
Rp3406
(dp3407
g1672
g1490
sg1673
g1802
sg384
g1488
sbsS'IwProfileMenu.h'
p3408
g358
(g1668
g360
Ntp3409
Rp3410
(dp3411
g1672
g1519
sg1673
g1709
sg384
g1587
sbsS'MarmaladeVersion.h'
p3412
g358
(g1668
g360
Ntp3413
Rp3414
(dp3415
g1672
g1680
sg1673
g1696
sg384
S'c:/marmalade/7.10/s3e/h/MarmaladeVersion.h'
p3416
sbsS'gl3platform.h'
p3417
g358
(g1668
g360
Ntp3418
Rp3419
(dp3420
g1672
g1680
sg1673
g1972
sg384
S'c:/marmalade/7.10/s3e/h/GLES3/gl3platform.h'
p3421
sbsS'ios.h'
p3422
g358
(g1668
g360
Ntp3423
Rp3424
(dp3425
g1672
g1680
sg1673
g1681
sg384
S'c:/marmalade/7.10/s3e/h/std/c++/ios.h'
p3426
sbsS'IwImageHelper.h'
p3427
g358
(g1668
g360
Ntp3428
Rp3429
(dp3430
g1672
g1519
sg1673
g1709
sg384
g1611
sbsS'hash_set'
p3431
g358
(g1668
g360
Ntp3432
Rp3433
(dp3434
g1672
g1680
sg1673
g1681
sg384
S'c:/marmalade/7.10/s3e/h/std/c++/hash_set'
p3435
sbsS'IwGeomFQuat.h'
p3436
g358
(g1668
g360
Ntp3437
Rp3438
(dp3439
g1672
g1365
sg1673
g1730
sg384
g1397
sbsS'jmorecfg.h'
p3440
g358
(g1668
g360
Ntp3441
Rp3442
(dp3443
g1672
g1635
sg1673
g1760
sg384
g1646
sbsS'eglplatform.h'
p3444
g358
(g1668
g360
Ntp3445
Rp3446
(dp3447
g1672
g1680
sg1673
g2004
sg384
S'c:/marmalade/7.10/s3e/h/EGL/eglplatform.h'
p3448
sbsS'cmath'
p3449
g358
(g1668
g360
Ntp3450
Rp3451
(dp3452
g1672
g1680
sg1673
g1681
sg384
S'c:/marmalade/7.10/s3e/h/std/c++/cmath'
p3453
sbsS'math_gcc.h'
p3454
g358
(g1668
g360
Ntp3455
Rp3456
(dp3457
g1672
g1680
sg1673
g1702
sg384
S'c:/marmalade/7.10/s3e/h/std/math_gcc.h'
p3458
sbsS's3eMemory.h'
p3459
g358
(g1668
g360
Ntp3460
Rp3461
(dp3462
g1672
g1680
sg1673
g1696
sg384
S'c:/marmalade/7.10/s3e/h/s3eMemory.h'
p3463
sbsS'strings.h'
p3464
g358
(g1668
g360
Ntp3465
Rp3466
(dp3467
g1672
g1680
sg1673
g1702
sg384
S'c:/marmalade/7.10/s3e/h/std/strings.h'
p3468
sbsS's3eFile.h'
p3469
g358
(g1668
g360
Ntp3470
Rp3471
(dp3472
g1672
g1680
sg1673
g1696
sg384
S'c:/marmalade/7.10/s3e/h/s3eFile.h'
p3473
sbsS'IwGxTypes.h'
p3474
g358
(g1668
g360
Ntp3475
Rp3476
(dp3477
g1672
g1465
sg1673
g1802
sg384
g1480
sbsS'cerrno'
p3478
g358
(g1668
g360
Ntp3479
Rp3480
(dp3481
g1672
g1680
sg1673
g1681
sg384
S'c:/marmalade/7.10/s3e/h/std/c++/cerrno'
p3482
sbsS'resource.h'
p3483
g358
(g1668
g360
Ntp3484
Rp3485
(dp3486
g1672
g1680
sg1673
g1816
sg384
S'c:/marmalade/7.10/s3e/h/std/sys/resource.h'
p3487
sbsS'clocale'
p3488
g358
(g1668
g360
Ntp3489
Rp3490
(dp3491
g1672
g1680
sg1673
g1681
sg384
S'c:/marmalade/7.10/s3e/h/std/c++/clocale'
p3492
sbsS'pvrtextool.mkf'
p3493
g358
(g1668
g360
Ntp3494
Rp3495
(dp3496
g1672
g1307
sg1673
g2252
sg384
g1305
sbsS'csetjmp'
p3497
g358
(g1668
g360
Ntp3498
Rp3499
(dp3500
g1672
g1680
sg1673
g1681
sg384
S'c:/marmalade/7.10/s3e/h/std/c++/csetjmp'
p3501
sbsS'netdb.h'
p3502
g358
(g1668
g360
Ntp3503
Rp3504
(dp3505
g1672
g1680
sg1673
g1702
sg384
S'c:/marmalade/7.10/s3e/h/std/netdb.h'
p3506
sbsS's3eAndroidJNI.h'
p3507
g358
(g1668
g360
Ntp3508
Rp3509
(dp3510
g1672
g1680
sg1673
g1885
sg384
S'c:/marmalade/7.10/s3e/h/ext/s3eAndroidJNI.h'
p3511
sbsS'stdexcept'
p3512
g358
(g1668
g360
Ntp3513
Rp3514
(dp3515
g1672
g1680
sg1673
g1681
sg384
S'c:/marmalade/7.10/s3e/h/std/c++/stdexcept'
p3516
sbsS'math.h'
p3517
g358
(g1668
g360
Ntp3518
Rp3519
(dp3520
g1672
g1680
sg1673
g1702
sg384
S'c:/marmalade/7.10/s3e/h/std/math.h'
p3521
sbsS'stdbool.h'
p3522
g358
(g1668
g360
Ntp3523
Rp3524
(dp3525
g1672
g1680
sg1673
g1702
sg384
S'c:/marmalade/7.10/s3e/h/std/stdbool.h'
p3526
sbsS'uio.h'
p3527
g358
(g1668
g360
Ntp3528
Rp3529
(dp3530
g1672
g1680
sg1673
g1816
sg384
S'c:/marmalade/7.10/s3e/h/std/sys/uio.h'
p3531
sbsS'IwUncopyable.h'
p3532
g358
(g1668
g360
Ntp3533
Rp3534
(dp3535
g1672
g1519
sg1673
g1709
sg384
g1583
sbssS'juice_build_type'
p3536
g4
sS'tests'
p3537
(lp3538
sS'project_name'
p3539
g366
sS'root_file'
p3540
g143
sS'current_root'
p3541
S'd:/Marmalade/Stage1'
p3542
sS'dependencies'
p3543
(lp3544
sS'include_paths'
p3545
(lp3546
S'c:/marmalade/7.10/extensions/s3eamazonads/h'
p3547
aS'c:/marmalade/7.10/modules/iwutil/h'
p3548
aS'c:/marmalade/7.10/modules/third_party/libjpeg/h'
p3549
aS'c:/marmalade/7.10/modules/third_party/zlib/h'
p3550
aS'c:/marmalade/7.10/modules/third_party/libpng/h'
p3551
aS'c:/marmalade/7.10/modules/iw2d/h'
p3552
aS'c:/marmalade/7.10/modules/iwgx/h'
p3553
aS'c:/marmalade/7.10/modules/iwgl/h'
p3554
aS'c:/marmalade/7.10/modules/iwgeom/h'
p3555
aS'c:/marmalade/7.10/modules/iwresmanager/h'
p3556
aS'c:/marmalade/7.10/extensions/pvrtextool/h'
p3557
aS'c:/marmalade/7.10/modules/iwgxfont/h'
p3558
aS'c:/marmalade/7.10/modules/third_party/tiniconv/source'
p3559
aS'c:/marmalade/7.10/s3e/h'
p3560
aS'c:/marmalade/7.10/s3e/h/ext'
p3561
aS'c:/marmalade/7.10/s3e/h/std'
p3562
aS'c:/marmalade/7.10/s3e/h/std/c++'
p3563
aS'c:/marmalade/7.10/s3e/h/ext_legacy'
p3564
aS'c:/marmalade/7.10/s3e/h/legacy'
p3565
asS'weak_frameworks'
p3566
(lp3567
sS'extprojects'
p3568
(dp3569
sg681
(dp3570
g675
(lp3571
(S'd:/Marmalade/Stage1/data/textures'
p3572
S'textures'
p3573
I0
tp3574
assS'macro_types'
p3575
(dp3576
g612
I0
sg614
I1
sg615
I0
sg616
I0
sg617
I0
sg618
I0
sg620
I0
sg621
I0
sg622
I0
sg623
I0
sg624
I0
sg625
I0
sg627
I0
sg628
I0
sg629
I0
sg630
I0
sg631
I0
sg632
I0
sg633
I0
sg634
I0
sg636
I0
sg637
I0
sg638
I0
sg639
I0
sg640
I0
sg641
I1
sg642
I0
sg643
I0
sg644
I0
sg645
I01
sg646
I1
sg647
I0
sg648
I0
sg649
I0
sg650
I0
sg651
I0
sg652
I0
ssS'commands'
p3577
(lp3578
sg683
(g1230
S'VC14'
p3579
S'X86ARMAARCH64'
p3580
tp3581
sS'build_libs'
p3582
(dp3583
sg685
g0
sS'frameworks'
p3584
(lp3585
sS'environ'
p3586
(dp3587
S'NACL_ROOT'
p3588
S'c:\\marmalade\\7.10/tools/gcc/x86_64/nacl_windows'
p3589
ssS'target_name_debug'
p3590
g366
sS'builders'
p3591
(dp3592
g675
(dp3593
S'.S'
p3594
(dp3595
S'gcc_aarch64'
p3596
(lp3597
S'.obj'
p3598
aS'echo AARCH64 Assembling(GCC) ${SOURCE}...'
p3599
aS'c:/marmalade/7.10/s3e\\gcc\\win32\\aarch64\\bin\\aarch64-none-elf-gcc -c -o ${TARGET} ${SOURCE}'
p3600
asS'rvct'
p3601
(lp3602
g3598
aS'echo ARM Assembling(RVCT) ${SOURCE}...'
p3603
aS'c:/marmalade/7.10/s3e\\rvct\\bin\\armasm -o ${TARGET} ${SOURCE}'
p3604
asg487
(lp3605
g3598
aS'echo ARM Assembling(GCC) ${SOURCE}...'
p3606
aS'c:/marmalade/7.10/s3e\\gcc\\win32\\arm\\bin\\arm-none-eabi-gcc -c -o ${TARGET} ${SOURCE}'
p3607
asS'ppu'
p3608
(lp3609
S'.a'
p3610
aS'echo PPU Assembling(SNC) ${SOURCE}...'
p3611
aS'c:/marmalade/7.10/s3e\\rvct\\bin\\armasm -o ${TARGET} ${SOURCE}'
p3612
assS'.s'
p3613
g3595
sS'.vp'
p3614
(lp3615
NaS'"C:/Marmalade/7.10/s3e/python/python.exe" "c:/marmalade/7.10/modules/iwgx/tools/compile_shaders.py" ${SOURCE}'
p3616
asssS'extproject_names'
p3617
(lp3618
sbtp3619
.