((dp0
S'arm_dbg_args'
p1
S'-via:"d:\\Marmalade\\Stage1\\build_stage1_vc14\\Stage1_vc14_arm_debug.via" -qemu'
p2
sS'game-icf'
p3
S''
p4
sS'dist'
p5
NsS'csproj'
p6
g4
sS'module_path_append'
p7
NsS'tizen_x86_dbg_exe'
p8
S'c:\\marmalade\\7.10\\s3e\\makefile_builder\\tool_launcher.exe'
p9
sS'global_path'
p10
S'd:\\marmalade'
p11
sS'system_path'
p12
S'c:\\marmalade\\7.10\\s3e\\makefile_builder'
p13
sS'android_x86_dbg_args'
p14
S'../../tools/DeployTool/DeployTool.exe --dir "d:\\Marmalade\\Stage1\\build_stage1_vc14"'
p15
sS'aarch64-arch-mod'
p16
g4
sS'no-emit'
p17
NsS'androidnativedebug'
p18
NsS'arm-float-abi'
p19
g4
sS'arm_rel_rtsm_args'
p20
S'-via:"d:\\Marmalade\\Stage1\\build_stage1_vc14\\Stage1_vc14_arm_release.via" -qemu'
p21
sS'amd64'
p22
NsS'line-width'
p23
I80
sS'gcc_dbg_args'
p24
S'-via:"d:\\Marmalade\\Stage1\\build_stage1_vc14\\Stage1_vc14_gcc_debug.via" -qemu'
p25
sS'sim-release-loader'
p26
NsS'android-x86'
p27
NsS'x86_dbg_exe'
p28
S'c:/marmalade/7.10/s3e\\win32\\s3e_simulator_debug.exe'
p29
sS'jflags'
p30
NsS'nacl_x86_64_rel_args'
p31
g15
sS'release'
p32
NsS'no-make'
p33
NsS'xcode-x86-build-settings'
p34
g4
sS'optimise-size'
p35
NsS'fat'
p36
NsS'output-name-debug'
p37
g4
sS'arm-fpu'
p38
g4
sS'proj_name'
p39
S'Stage1_vc14'
p40
sS'rvct-version'
p41
S'none'
p42
sS'compiler'
p43
g4
sS'execute'
p44
NsS'compile-static'
p45
NsS'nacl_x86_64_rel_exe'
p46
g9
sS'msvc-project'
p47
NsS'buildenv'
p48
S'VC14'
p49
sS'quick'
p50
NsS'module_path'
p51
(lp52
S'd:/Marmalade/modules'
p53
asS'mkf_default'
p54
S's3e-default.mkf'
p55
sS'use-release-std-libs'
p56
NsS'using_perforce'
p57
I00
sS'tizen-x86'
p58
NsS'mips-s3e'
p59
NsS's3e-api-lib-name'
p60
S's3e_api_iwgl'
p61
sS'ios-no-pic'
p62
NsS'shared-arm-lib'
p63
NsS'arm-cpu'
p64
g4
sS'compile-thumb'
p65
NsS'no-ide'
p66
NsS'msvc-version'
p67
S'6.0'
p68
sS'arm'
p69
NsS'nacl_x86_64_dbg_exe'
p70
g9
sS'builddir'
p71
g4
sS'compile-debug-as-release'
p72
I0
sS'arm-arch'
p73
g4
sS'brief'
p74
NsS'dll'
p75
NsS'buildenv-toolset'
p76
g4
sS'version'
p77
NsS'aarch64-arch'
p78
g4
sS'ccache'
p79
I0
sS'offline'
p80
NsS'ios-version'
p81
g4
sS'hub_data'
p82
g4
sS'fake_vc_call'
p83
I01
sS'jobs'
p84
I0
sS'linkflags'
p85
NsS'gcc_aarch64_dbg_args'
p86
g15
sS'nacl_x86_64_dbg_args'
p87
g15
sS'debug'
p88
NsS'xcode-build-order'
p89
g4
sS'gcc_aarch64_rel_rtsm_args'
p90
S'-via:"d:\\Marmalade\\Stage1\\build_stage1_vc14\\Stage1_vc14_gcc_aarch64_release.via" -qemu'
p91
sS'gcc_rel_rtsm_args'
p92
S'-via:"d:\\Marmalade\\Stage1\\build_stage1_vc14\\Stage1_vc14_gcc_release.via" -qemu'
p93
sS'done_defaults'
p94
I1
sS'path'
p95
(lp96
S'c:/marmalade/7.10/tools/gcc/x86_64/nacl_windows/toolchain/win_x86_glibc/bin'
p97
asS's3e-data-dir'
p98
S'd:/Marmalade/Stage1\\data'
p99
sS'enable-exceptions'
p100
NsS'osx-dll'
p101
NsS'extension'
p102
g4
sS'no-vc6'
p103
NsS'aarch64'
p104
NsS'win32-console'
p105
NsS'dist-format'
p106
g4
sS's3e-force-arch'
p107
NsS'dump_defines'
p108
NsS'use-shared-std-libs'
p109
NsS'gcc-version'
p110
g4
sS'x86_dbg_args'
p111
S'-via:"d:\\Marmalade\\Stage1\\build_stage1_vc14\\Stage1_vc14_debug.via"'
p112
sS'nacl'
p113
NsS'tizen_x86_dbg_args'
p114
g15
sS'arm-debugger'
p115
g4
sS'use_temp_extension'
p116
NsS'verbose'
p117
I0
sS'log'
p118
NsS'no-strip'
p119
NsS'rebuild'
p120
NsS'mips_dbg_args'
p121
g15
sS'win32-simulator-dll'
p122
NsS'strict'
p123
NsS'xcode-aarch64-build-settings'
p124
g4
sS'enable-global-path'
p125
NsS'gcc_aarch64_rel_args'
p126
g15
sS'cflags'
p127
NsS'dist-dir'
p128
g4
sS'xcode-arm-build-settings'
p129
g4
sS'disable-runtime-checks'
p130
NsS'csprojSDKRefs'
p131
g4
sS'tizen_x86_rel_exe'
p132
g9
sS'builddirroot'
p133
g4
sS'distcc'
p134
NsS'external-compiler'
p135
NsS'stripflags'
p136
NsS'retry-build'
p137
S'0'
p138
sS'preinclude'
p139
NsS'using_sdk'
p140
I01
sS'nologo'
p141
NsS'warn-level'
p142
I2
sS'mips_dbg_exe'
p143
g9
sS'mkb_in'
p144
S'd:/Marmalade/Stage1/Stage1.mkb'
p145
sS'no-objc-arc'
p146
NsS'app-icf'
p147
NsS'arm_dbg_exe'
p148
S'c:/marmalade/7.10/s3e\\bin\\armdebug.exe'
p149
sS'mdev-first'
p150
NsS'csprojDLLRef'
p151
NsS'tizen_x86_rel_args'
p152
g15
sS'android_x86_dbg_exe'
p153
g9
sS'naclx86_64'
p154
NsS'test-config'
p155
g4
sS'list-targets'
p156
NsS'arm_rel_exe'
p157
g9
sS'arm_rel_args'
p158
g15
sS'makedeps'
p159
NsS'android_x86_rel_exe'
p160
g9
sS'default-buildenv'
p161
S'VC14'
p162
sS'x86_rel_exe'
p163
S'c:/marmalade/7.10/s3e\\win32\\s3e_simulator_release.exe'
p164
sS'preprocess-java'
p165
NsS'mips_rel_args'
p166
g15
sS'test-assets'
p167
g4
sS'lib'
p168
NsS'non-interactive'
p169
NsS'global_argv'
p170
(lp171
S'C:\\Marmalade\\7.10\\s3e\\makefile_builder\\mkb.py'
p172
aS'D:/Marmalade/Stage1/Stage1.mkb'
p173
aS'--buildenv=VC14'
p174
aS'--fake-vc-call'
p175
asS'make'
p176
NsS'optimise-speed'
p177
NsS'internal'
p178
NsS'enable-stdinc'
p179
NsS'defines'
p180
NsS'deploy-only'
p181
NsS'x86'
p182
NsS'deploy'
p183
g4
sS'objc-arc'
p184
NsS'x86_run_exe'
p185
S'c:/marmalade/7.10/s3e\\win32\\s3e_simulator_debug.exe'
p186
sS'cxxflags'
p187
NsS'x86_rel_args'
p188
S'-via:"d:\\Marmalade\\Stage1\\build_stage1_vc14\\Stage1_vc14_release.via"'
p189
sS'gcc_rel_args'
p190
g15
sS'mips'
p191
NsS'xcode-build-settings'
p192
g4
sS'csprojPostBuildActions'
p193
NsS'incredibuild'
p194
NsS'strict-compile'
p195
NsS'use-auto-subdirs'
p196
NsS'mips_rel_exe'
p197
g9
sS'android_x86_rel_args'
p198
g15
sS'no-distcc'
p199
NsS'deployargs'
p200
NsS'iosnativedebug'
p201
NsS'use_prebuilt'
p202
NsS'win-target-platform'
p203
g4
sS'mkf_in'
p204
(lp205
S'c:\\marmalade\\7.10\\s3e\\s3e-default.mkf'
p206
aS'c:\\marmalade\\7.10\\extensions\\s3eamazonads\\s3eamazonads.mkf'
p207
aS'c:\\marmalade\\7.10\\modules\\iwutil\\iwutil.mkf'
p208
aS'c:\\marmalade\\7.10\\modules\\third_party\\libjpeg\\libjpeg.mkf'
p209
aS'c:\\marmalade\\7.10\\modules\\third_party\\libpng\\libpng.mkf'
p210
aS'c:\\marmalade\\7.10\\modules\\third_party\\zlib\\zlib.mkf'
p211
aS'c:\\marmalade\\7.10\\platform_libs\\android\\amazon-ads-android-sdk\\amazon-ads-android-sdk.mkf'
p212
aS'c:\\marmalade\\7.10\\platform_libs\\iphone\\amazon-ads-ios-sdk\\amazon-ads-ios-sdk.mkf'
p213
aS'c:\\marmalade\\7.10\\modules\\iw2d\\iw2d.mkf'
p214
aS'c:\\marmalade\\7.10\\modules\\iwgx\\iwgx.mkf'
p215
aS'c:\\marmalade\\7.10\\modules\\iwgl\\iwgl.mkf'
p216
aS'c:\\marmalade\\7.10\\modules\\iwgeom\\iwgeom.mkf'
p217
aS'c:\\marmalade\\7.10\\modules\\iwresmanager\\iwresmanager.mkf'
p218
aS'c:\\marmalade\\7.10\\extensions\\pvrtextool\\pvrtextool.mkf'
p219
aS'c:\\marmalade\\7.10\\modules\\iwgxfont\\iwgxfont.mkf'
p220
aS'c:\\marmalade\\7.10\\modules\\third_party\\tiniconv\\tiniconv.mkf'
p221
aS'c:\\marmalade\\7.10\\examples\\marmaladeexampleresources\\marmaladeexampleresources.mkf'
p222
aS'd:\\marmalade\\modules\\soundengine\\soundengine.mkf'
p223
asS'strict-mkb'
p224
NsS'executeargs'
p225
NsS'clean'
p226
NsS'no-asm'
p227
NsS'output-name'
p228
g4
sS'no-modules'
p229
NsS'find_define'
p230
g4
s(dp231
S'c:\\marmalade\\7.10\\s3e\\makefile_builder\\templates\\aarch64_linker_script'
p232
F1443314056.0
sS'c:\\marmalade\\7.10\\s3e\\makefile_builder\\plugins\\xcode4_schememanagement.py'
p233
F1443314056.0
sS'c:\\marmalade\\7.10\\s3e\\makefile_builder\\templates\\wp81_csproj.pyc'
p234
F1443317622.0
sS'c:\\marmalade\\7.10\\s3e\\makefile_builder\\plugins\\s3e_win10.pyc'
p235
F1443317622.0
sS'c:\\marmalade\\7.10\\s3e\\makefile_builder\\mkb_launcher.exe'
p236
F1443315030.0
sS'c:\\marmalade\\7.10\\s3e\\makefile_builder\\templates\\win8_ext_csproj.pyc'
p237
F1443317622.0
sS'c:\\marmalade\\7.10\\s3e\\makefile_builder\\templates\\ws8_ext_sln.pyc'
p238
F1443317588.0
sS'c:\\marmalade\\7.10\\s3e\\makefile_builder\\templates\\ws81_sln.pyc'
p239
F1443317680.0
sS'c:\\marmalade\\7.10\\s3e\\makefile_builder\\templates\\xcode4_DeployTool.xcscheme'
p240
F1443314058.0
sS'c:\\marmalade\\7.10\\s3e\\makefile_builder\\plugins\\linux_vc14.pyc'
p241
F1443317654.0
sS'c:\\marmalade\\7.10\\s3e\\makefile_builder\\templates\\ws81_vcxproj.pyc'
p242
F1443317670.0
sS'c:\\marmalade\\7.10\\s3e\\makefile_builder\\plugins\\MakeEmitter.pyc'
p243
F1443317622.0
sS'c:\\marmalade\\7.10\\s3e\\makefile_builder\\templates\\win8_sln.pyc'
p244
F1443317610.0
sS'c:\\marmalade\\7.10\\s3e\\makefile_builder\\templates\\wp8_ext_csproj.pyc'
p245
F1443317704.0
sS'c:\\marmalade\\7.10\\s3e\\makefile_builder\\templates\\ws8_ext_csproj.pyc'
p246
F1443317594.0
sS'c:\\marmalade\\7.10\\s3e\\makefile_builder\\plugins\\deploy.pyc'
p247
F1443317634.0
sS'c:\\marmalade\\7.10\\s3e\\makefile_builder\\mkb_upstream.pyc'
p248
F1443317644.0
sS'c:\\marmalade\\7.10\\s3e\\makefile_builder\\templates\\wp81_vcxproj.pyc'
p249
F1443317612.0
sS'c:\\marmalade\\7.10\\s3e\\makefile_builder\\templates\\vc14_androidnative_ext_sln.pyc'
p250
F1443317640.0
sS'c:\\marmalade\\7.10\\s3e\\makefile_builder\\tool_launcher.exe'
p251
F1443315032.0
sS'c:\\marmalade\\7.10\\s3e\\makefile_builder\\plugins\\wp81_wp81.pyc'
p252
F1443317580.0
sS'c:\\marmalade\\7.10\\s3e\\makefile_builder\\templates\\qmake_user.py'
p253
F1443314056.0
sS'c:\\marmalade\\7.10\\s3e\\makefile_builder\\templates\\template.opt'
p254
F1443314056.0
sS'c:\\marmalade\\7.10\\s3e\\makefile_builder\\templates\\ws8_csproj_user.pyc'
p255
F1443317586.0
sS'c:\\marmalade\\7.10\\s3e\\makefile_builder\\plugins\\osx_scons.pyc'
p256
F1443317596.0
sS'c:\\marmalade\\7.10\\s3e\\makefile_builder\\plugins\\s3e_make.pyc'
p257
F1443317570.0
sS'c:\\marmalade\\7.10\\s3e\\makefile_builder\\templates\\win32_vcxproj.pyc'
p258
F1443317682.0
sS'c:\\marmalade\\7.10\\s3e\\makefile_builder\\templates\\win32_vcxproj_filters.pyc'
p259
F1443317594.0
sS'c:\\marmalade\\7.10\\s3e\\makefile_builder\\templates\\win32_dsp.pyc'
p260
F1443317690.0
sS'c:\\marmalade\\7.10\\s3e\\makefile_builder\\plugins\\linux_scons.pyc'
p261
F1443317710.0
sS'c:\\marmalade\\7.10\\s3e\\makefile_builder\\templates\\ws8_sln.pyc'
p262
F1443317680.0
sS'c:\\marmalade\\7.10\\s3e\\makefile_builder\\templates\\mips_linker_script'
p263
F1443314056.0
sS'c:\\marmalade\\7.10\\s3e\\makefile_builder\\templates\\wp8_vcxproj.pyc'
p264
F1443317624.0
sS'c:\\marmalade\\7.10\\s3e\\makefile_builder\\docs'
p265
F1446019855.710399
sS'c:\\marmalade\\7.10\\s3e\\makefile_builder\\templates\\xcode4_arm.xcscheme'
p266
F1443314058.0
sS'c:\\marmalade\\7.10\\s3e\\makefile_builder\\mkb_option.pyc'
p267
F1443317578.0
sS'c:\\marmalade\\7.10\\s3e\\makefile_builder\\templates\\xcode.py'
p268
F1443314058.0
sS'c:\\marmalade\\7.10\\s3e\\makefile_builder\\templates\\ws81_ext_sln.pyc'
p269
F1443317604.0
sS'c:\\marmalade\\7.10\\s3e\\makefile_builder\\templates\\win10_csproj.pyc'
p270
F1443317704.0
sS'c:\\marmalade\\7.10\\s3e\\makefile_builder\\templates\\wp8_csproj_user.pyc'
p271
F1443317658.0
sS'c:\\marmalade\\7.10\\s3e\\makefile_builder\\plugins\\s3e_wp8.pyc'
p272
F1443317680.0
sS'c:\\marmalade\\7.10\\s3e\\makefile_builder\\templates\\qmake.py'
p273
F1443314056.0
sS'c:\\marmalade\\7.10\\s3e\\makefile_builder\\templates\\win32_dsw.pyc'
p274
F1443317576.0
sS'c:\\marmalade\\7.10\\s3e\\makefile_builder\\templates\\wp8_sln.pyc'
p275
F1443317596.0
sS'c:\\marmalade\\7.10\\s3e\\makefile_builder\\templates\\vc6_opt.pyc'
p276
F1443317684.0
sS'c:\\marmalade\\7.10\\s3e\\makefile_builder\\plugins\\win10_win10.pyc'
p277
F1443317686.0
sS'c:\\marmalade\\7.10\\s3e\\makefile_builder\\templates\\linker_script'
p278
F1443314056.0
sS'c:\\marmalade\\7.10\\s3e\\makefile_builder\\templates\\win10_ext_sln.pyc'
p279
F1443317588.0
sS'c:\\marmalade\\7.10\\s3e\\makefile_builder\\plugins\\Win8Emitter.pyc'
p280
F1443317652.0
sS'c:\\marmalade\\7.10\\s3e\\makefile_builder\\nacl.mkf'
p281
F1443314056.0
sS'c:\\marmalade\\7.10\\s3e\\makefile_builder\\templates\\win10_ext_csproj.pyc'
p282
F1443317582.0
sS'c:\\marmalade\\7.10\\s3e\\makefile_builder\\templates\\wp81_ext_sln.pyc'
p283
F1443317610.0
sS'c:\\marmalade\\7.10\\s3e\\makefile_builder\\plugins\\s3e_wp81.pyc'
p284
F1443317678.0
sS'c:\\marmalade\\7.10\\s3e\\makefile_builder\\templates\\win8_csproj_user.pyc'
p285
F1443317596.0
sS'c:\\marmalade\\7.10\\s3e\\makefile_builder\\docs\\deployment_options.txt'
p286
F1443314056.0
sS'c:\\marmalade\\7.10\\s3e\\makefile_builder\\plugins\\s3e_vc14_androidnative.pyc'
p287
F1443317612.0
sS'c:\\marmalade\\7.10\\s3e\\makefile_builder\\templates\\wp8_csproj.pyc'
p288
F1443317690.0
sS'c:\\marmalade\\7.10\\s3e\\makefile_builder\\plugins\\VisualStudioEmitter.pyc'
p289
F1443317624.0
sS'c:\\marmalade\\7.10\\s3e\\makefile_builder\\mkb.py'
p290
F1443314056.0
sS'c:\\marmalade\\7.10\\s3e\\makefile_builder\\mkb_globals.pyc'
p291
F1443317674.0
sS'c:\\marmalade\\7.10\\s3e\\makefile_builder\\templates\\win10_sln.pyc'
p292
F1443317688.0
sS'c:\\marmalade\\7.10\\s3e\\makefile_builder\\plugins\\null.pyc'
p293
F1443317640.0
sS'c:\\marmalade\\7.10\\s3e\\makefile_builder\\docs\\mkb.defines.txt'
p294
F1443314056.0
sS'c:\\marmalade\\7.10\\s3e\\makefile_builder\\templates\\vc7_suo.pyc'
p295
F1443317678.0
sS'c:\\marmalade\\7.10\\s3e\\makefile_builder\\plugins\\S3EEmitter.pyc'
p296
F1443317686.0
sS'c:\\marmalade\\7.10\\s3e\\makefile_builder\\templates\\ws81_ext_csproj.pyc'
p297
F1443317660.0
sS'c:\\marmalade\\7.10\\s3e\\makefile_builder\\templates\\win8_vcxproj.pyc'
p298
F1443317706.0
sS'c:\\marmalade\\7.10\\s3e\\makefile_builder\\plugins\\s3e_vc6.pyc'
p299
F1443317594.0
sS'c:\\marmalade\\7.10\\s3e\\makefile_builder\\templates\\vc10_user.pyc'
p300
F1443317674.0
sS'c:\\marmalade\\7.10\\s3e\\makefile_builder\\docs\\deprecated.options.txt'
p301
F1443314056.0
sS'c:\\marmalade\\7.10\\s3e\\makefile_builder\\docs\\deprecated.defines.txt'
p302
F1443314056.0
sS'c:\\marmalade\\7.10\\s3e\\makefile_builder\\templates\\wp81_sln.pyc'
p303
F1443317634.0
sS'c:\\marmalade\\7.10\\s3e\\makefile_builder\\templates\\rvct_linker_script'
p304
F1443314056.0
sS'c:\\marmalade\\7.10\\s3e\\makefile_builder\\templates\\win10_vcxproj.pyc'
p305
F1443317618.0
sS'c:\\marmalade\\7.10\\s3e\\makefile_builder\\templates\\vc14_androidproj.pyc'
p306
F1443317640.0
sS'c:\\marmalade\\7.10\\s3e\\makefile_builder\\plugins\\XcodeEmitter.pyc'
p307
F1446052656.065168
sS'c:\\marmalade\\7.10\\s3e\\makefile_builder\\plugins\\s3e_scons.pyc'
p308
F1443317644.0
sS'c:\\marmalade\\7.10\\s3e\\makefile_builder\\templates\\win32_sln.pyc'
p309
F1443317704.0
sS'c:\\marmalade\\7.10\\s3e\\makefile_builder\\templates\\wp81_ext_csproj.pyc'
p310
F1443317684.0
sS'c:\\marmalade\\7.10\\s3e\\makefile_builder\\templates\\wp81_csproj_user.pyc'
p311
F1443317632.0
sS'c:\\marmalade\\7.10\\s3e\\makefile_builder\\plugins\\win8_utils.pyc'
p312
F1443317686.0
sS'c:\\marmalade\\7.10\\s3e\\makefile_builder\\plugins\\win32_vc6.pyc'
p313
F1443317604.0
sS'c:\\marmalade\\7.10\\s3e\\makefile_builder\\plugins\\ws8_ws8.pyc'
p314
F1443317676.0
sS'c:\\marmalade\\7.10\\s3e\\makefile_builder\\templates\\ws81_csproj.pyc'
p315
F1443317608.0
sS'c:\\marmalade\\7.10\\s3e\\makefile_builder\\plugins\\s3e_qmake.py'
p316
F1443314056.0
sS'c:\\marmalade\\7.10\\s3e\\makefile_builder\\plugins\\Emitter.pyc'
p317
F1443317632.0
sS'c:\\marmalade\\7.10\\s3e\\makefile_builder\\plugins\\wp8_wp8.pyc'
p318
F1443317650.0
sS'c:\\marmalade\\7.10\\s3e\\makefile_builder\\plugins\\s3e_win8.pyc'
p319
F1443317610.0
sS'c:\\marmalade\\7.10\\s3e\\makefile_builder\\templates\\gdb_start.txt'
p320
F1443314056.0
sS'c:\\marmalade\\7.10\\s3e\\makefile_builder\\templates\\Info.plist'
p321
F1443314056.0
sS'c:\\marmalade\\7.10\\s3e\\makefile_builder\\plugins\\vc7_utils.pyc'
p322
F1443317620.0
sS'c:\\marmalade\\7.10\\s3e\\makefile_builder\\templates\\vc8_user.pyc'
p323
F1443317650.0
sS'c:\\marmalade\\7.10\\s3e\\makefile_builder\\plugins\\s3e_ws81.pyc'
p324
F1443317688.0
sS'c:\\marmalade\\7.10\\s3e\\makefile_builder\\templates\\win10_csproj_user.pyc'
p325
F1443317618.0
sS'c:\\marmalade\\7.10\\s3e\\makefile_builder\\templates\\xcode_pbxuser.py'
p326
F1443314058.0
sS'c:\\marmalade\\7.10\\s3e\\makefile_builder\\mkb_parser.pyc'
p327
F1443317612.0
sS'c:\\marmalade\\7.10\\s3e\\makefile_builder\\templates\\ws8_vcxproj.pyc'
p328
F1443317696.0
sS'c:\\marmalade\\7.10\\s3e\\makefile_builder\\plugins\\xcode4_schememanagement.pyc'
p329
F1446052656.0711737
sS'c:\\marmalade\\7.10\\s3e\\makefile_builder\\templates'
p330
F1446019856.4123716
sS'c:\\marmalade\\7.10\\s3e\\makefile_builder\\templates\\xcode4.xcscheme'
p331
F1443314058.0
sS'c:\\marmalade\\7.10\\s3e\\makefile_builder\\plugins\\ws81_ws81.pyc'
p332
F1443317638.0
sS'c:\\marmalade\\7.10\\s3e\\makefile_builder\\docs\\parse_options.pyc'
p333
F1443317690.0
sS'c:\\marmalade\\7.10\\s3e\\makefile_builder\\templates\\template.suo'
p334
F1443314056.0
sS'c:\\marmalade\\7.10\\s3e\\makefile_builder\\docs\\options.txt'
p335
F1443314056.0
sS'c:\\marmalade\\7.10\\s3e\\makefile_builder\\mkb_util.pyc'
p336
F1443317616.0
sS'c:\\marmalade\\7.10\\s3e\\makefile_builder\\templates\\ws81_csproj_user.pyc'
p337
F1443317686.0
sS'c:\\marmalade\\7.10\\s3e\\makefile_builder\\plugins\\s3e_qmake.pyc'
p338
F1446052656.1569195
sS'c:\\marmalade\\7.10\\s3e\\makefile_builder\\templates\\win32_vcproj.pyc'
p339
F1443317676.0
sS'c:\\marmalade\\7.10\\s3e\\makefile_builder\\templates\\vc14_androidnative_vcxproj.pyc'
p340
F1443317580.0
sS'c:\\marmalade\\7.10\\s3e\\makefile_builder\\plugins\\s3e_xcode.pyc'
p341
F1446052656.1934426
sS'c:\\marmalade\\7.10\\s3e\\makefile_builder\\plugins\\s3e_xcode.py'
p342
F1443314056.0
sS'c:\\marmalade\\7.10\\s3e\\makefile_builder\\templates\\MainWindow.xib'
p343
F1443314056.0
sS'c:\\marmalade\\7.10\\s3e\\makefile_builder\\plugins'
p344
F1446052656.1919422
sS'c:\\marmalade\\7.10\\s3e\\makefile_builder\\templates\\win8_csproj.pyc'
p345
F1443317710.0
sS'c:\\marmalade\\7.10\\s3e\\makefile_builder\\plugins\\s3e_web.pyc'
p346
F1443317636.0
sS'c:\\marmalade\\7.10\\s3e\\makefile_builder\\templates\\make.py'
p347
F1443314056.0
sS'c:\\marmalade\\7.10\\s3e\\makefile_builder\\plugins\\s3e_ws8.pyc'
p348
F1443317684.0
sS'c:\\marmalade\\7.10\\s3e\\makefile_builder\\deployment.pyc'
p349
F1443317652.0
sS'c:\\marmalade\\7.10\\s3e\\makefile_builder\\plugins\\XcodeEmitter.py'
p350
F1443314056.0
sS'c:\\marmalade\\7.10\\s3e\\makefile_builder\\plugins\\vc6_utils.pyc'
p351
F1443317682.0
sS'c:\\marmalade\\7.10\\s3e\\makefile_builder\\plugins\\SConsEmitter.pyc'
p352
F1443317608.0
sS'c:\\marmalade\\7.10\\s3e\\makefile_builder\\templates\\ws8_csproj.pyc'
p353
F1443317670.0
sS'c:\\marmalade\\7.10\\s3e\\makefile_builder\\plugins\\java.pyc'
p354
F1443317626.0
sS'c:\\marmalade\\7.10\\s3e\\makefile_builder\\plugins\\osx_xcode.pyc'
p355
F1443317590.0
sS'c:\\marmalade\\7.10\\s3e\\makefile_builder\\templates\\vc14_androidnative_sln.pyc'
p356
F1443317622.0
sS'c:\\marmalade\\7.10\\s3e\\makefile_builder\\templates\\scons.pyc'
p357
F1443317700.0
sS'c:\\marmalade\\7.10\\s3e\\makefile_builder\\mkb_main.pyc'
p358
F1443317632.0
sS'c:\\marmalade\\7.10\\s3e\\makefile_builder\\plugins\\iphone.pyc'
p359
F1443317654.0
sccopy_reg
_reconstructor
p360
(cmkb_main
MkbFile
p361
c__builtin__
object
p362
Ntp363
Rp364
(dp365
g5
(lp366
sS'target_name'
p367
S'Stage1'
p368
sS'current_file'
p369
g145
sS'package_path'
p370
(lp371
S'C:\\Marmalade\\7.10\\examples\\MarmaladeExampleResources'
p372
asS'post_build'
p373
(lp374
(lp375
S'c:/marmalade/7.10/s3e/tools'
p376
aS'C:\\Marmalade\\7.10\\s3e\\python\\python.exe .\\process_map.py "$(TargetPath)"'
p377
aa(S'c:\\marmalade\\7.10\\s3e\\bin'
p378
S'"s3e_plink" -l "$(TargetPath)" '
p379
g182
tp380
asS'librarys'
p381
(lp382
g360
(cmkb_main
Library
p383
g362
Ntp384
Rp385
(dp386
S'name'
p387
S'vc12_compat.lib'
p388
sS'expand_name'
p389
I00
sS'include_spec_rvct_objs'
p390
(lp391
sS'include_all_objs'
p392
I00
sS'share_arm'
p393
I00
sS'arch'
p394
S'x86'
p395
sS'nodebug'
p396
I00
sg43
Nsbag360
(g383
g362
Ntp397
Rp398
(dp399
g387
S'iwutil'
p400
sg389
I01
sg390
(lp401
sg392
Nsg393
Nsg394
Nsg396
I00
sg43
Nsbag360
(g383
g362
Ntp402
Rp403
(dp404
g387
S'jpeg'
p405
sg389
I01
sg390
g401
sg392
Nsg393
Nsg394
Nsg396
I00
sg43
Nsbag360
(g383
g362
Ntp406
Rp407
(dp408
g387
S'z'
p409
sg389
I01
sg390
g401
sg392
Nsg393
Nsg394
Nsg396
I00
sg43
Nsbag360
(g383
g362
Ntp410
Rp411
(dp412
g387
S'png'
p413
sg389
I01
sg390
g401
sg392
Nsg393
Nsg394
Nsg396
I00
sg43
Nsbag360
(g383
g362
Ntp414
Rp415
(dp416
g387
S'iw2d'
p417
sg389
I01
sg390
g401
sg392
Nsg393
Nsg394
Nsg396
I00
sg43
Nsbag360
(g383
g362
Ntp418
Rp419
(dp420
g387
S'ATI_Compress_MT_VC7.lib'
p421
sg389
I00
sg390
g401
sg392
Nsg393
Nsg394
S'x86'
p422
sg396
I00
sg43
Nsbag360
(g383
g362
Ntp423
Rp424
(dp425
g387
S'iwgx'
p426
sg389
I01
sg390
g401
sg392
Nsg393
Nsg394
Nsg396
I00
sg43
Nsbag360
(g383
g362
Ntp427
Rp428
(dp429
g387
S'iwgl'
p430
sg389
I01
sg390
g401
sg392
Nsg393
Nsg394
Nsg396
I00
sg43
Nsbag360
(g383
g362
Ntp431
Rp432
(dp433
g387
S'iwgeom'
p434
sg389
I01
sg390
g401
sg392
Nsg393
Nsg394
Nsg396
I00
sg43
Nsbag360
(g383
g362
Ntp435
Rp436
(dp437
g387
S'iwresmanager'
p438
sg389
I01
sg390
g401
sg392
Nsg393
Nsg394
Nsg396
I00
sg43
Nsbag360
(g383
g362
Ntp439
Rp440
(dp441
g387
S'iwgxfont'
p442
sg389
I01
sg390
g401
sg392
Nsg393
Nsg394
Nsg396
I00
sg43
Nsbag360
(g383
g362
Ntp443
Rp444
(dp445
g387
S'tiniconv'
p446
sg389
I01
sg390
g401
sg392
Nsg393
Nsg394
Nsg396
I00
sg43
Nsbag360
(g383
g362
Ntp447
Rp448
(dp449
g387
S's3e_cpp'
p450
sg389
I01
sg390
g391
sg392
I00
sg393
I00
sg394
Nsg396
I00
sg43
Nsbag360
(g383
g362
Ntp451
Rp452
(dp453
g387
S's3e_vc14'
p454
sg389
I01
sg390
(lp455
S'iwcrt.o'
p456
asg392
I00
sg393
I00
sg394
S'x86'
p457
sg396
I00
sg43
Nsbag360
(g383
g362
Ntp458
Rp459
(dp460
g387
S's3e'
p461
sg389
I01
sg390
(lp462
g456
asg392
I00
sg393
I00
sg394
S'!x86'
p463
sg396
I00
sg43
Nsbag360
(g383
g362
Ntp464
Rp465
(dp466
g387
g61
sg389
I01
sg390
g391
sg392
I00
sg393
I00
sg394
S'x86'
p467
sg396
I01
sg43
Nsbag360
(g383
g362
Ntp468
Rp469
(dp470
g387
g61
sg389
I01
sg390
g391
sg392
I00
sg393
I00
sg394
S'!x86'
p471
sg396
I01
sg43
Nsbag360
(g383
g362
Ntp472
Rp473
(dp474
g387
S'stdc++'
p475
sg389
I00
sg390
g391
sg392
I00
sg393
I00
sg394
S'mips'
p476
sg396
I00
sg43
Nsbag360
(g383
g362
Ntp477
Rp478
(dp479
g387
S'c'
p480
sg389
I00
sg390
g391
sg392
I00
sg393
I00
sg394
S'mips'
p481
sg396
I00
sg43
Nsbag360
(g383
g362
Ntp482
Rp483
(dp484
g387
S'm'
p485
sg389
I00
sg390
g391
sg392
I00
sg393
I00
sg394
S'mips'
p486
sg396
I00
sg43
Nsbag360
(g383
g362
Ntp487
Rp488
(dp489
g387
S'gcc'
p490
sg389
I00
sg390
g391
sg392
I00
sg393
I00
sg394
S'mips'
p491
sg396
I00
sg43
Nsbag360
(g383
g362
Ntp492
Rp493
(dp494
g387
g490
sg389
I00
sg390
g391
sg392
I00
sg393
I00
sg394
S'naclx86_64'
p495
sg396
I00
sg43
Nsbag360
(g383
g362
Ntp496
Rp497
(dp498
g387
S'gcc_eh'
p499
sg389
I00
sg390
g391
sg392
I00
sg393
I00
sg394
S'naclx86_64'
p500
sg396
I00
sg43
Nsbag360
(g383
g362
Ntp501
Rp502
(dp503
g387
g480
sg389
I00
sg390
g391
sg392
I00
sg393
I00
sg394
S'naclx86_64'
p504
sg396
I00
sg43
Nsbag360
(g383
g362
Ntp505
Rp506
(dp507
g387
g485
sg389
I00
sg390
g391
sg392
I00
sg393
I00
sg394
S'naclx86_64'
p508
sg396
I00
sg43
Nsbag360
(g383
g362
Ntp509
Rp510
(dp511
g387
S'supc++'
p512
sg389
I00
sg390
g391
sg392
I00
sg393
I00
sg394
S'naclx86_64'
p513
sg396
I00
sg43
Nsbag360
(g383
g362
Ntp514
Rp515
(dp516
g387
S'supc++'
p517
sg389
I00
sg390
g391
sg392
I00
sg393
I00
sg394
S'gcc_x86_android'
p518
sg396
I00
sg43
Nsbag360
(g383
g362
Ntp519
Rp520
(dp521
g387
g480
sg389
I00
sg390
g391
sg392
I00
sg393
I00
sg394
S'gcc_x86_android'
p522
sg396
I00
sg43
Nsbag360
(g383
g362
Ntp523
Rp524
(dp525
g387
g485
sg389
I00
sg390
g391
sg392
I00
sg393
I00
sg394
S'gcc_x86_android'
p526
sg396
I00
sg43
Nsbag360
(g383
g362
Ntp527
Rp528
(dp529
g387
g490
sg389
I00
sg390
g391
sg392
I00
sg393
I00
sg394
S'gcc_x86_android'
p530
sg396
I00
sg43
Nsbag360
(g383
g362
Ntp531
Rp532
(dp533
g387
S'dl'
p534
sg389
I00
sg390
g391
sg392
I00
sg393
I00
sg394
S'gcc_x86_android'
p535
sg396
I00
sg43
Nsbag360
(g383
g362
Ntp536
Rp537
(dp538
g387
S'supc++'
p539
sg389
I00
sg390
g391
sg392
I00
sg393
I00
sg394
S'gcc_arm_android'
p540
sg396
I00
sg43
Nsbag360
(g383
g362
Ntp541
Rp542
(dp543
g387
g480
sg389
I00
sg390
g391
sg392
I00
sg393
I00
sg394
S'gcc_arm_android'
p544
sg396
I00
sg43
Nsbag360
(g383
g362
Ntp545
Rp546
(dp547
g387
g485
sg389
I00
sg390
g391
sg392
I00
sg393
I00
sg394
S'gcc_arm_android'
p548
sg396
I00
sg43
Nsbag360
(g383
g362
Ntp549
Rp550
(dp551
g387
g490
sg389
I00
sg390
g391
sg392
I00
sg393
I00
sg394
S'gcc_arm_android'
p552
sg396
I00
sg43
Nsbag360
(g383
g362
Ntp553
Rp554
(dp555
g387
g534
sg389
I00
sg390
g391
sg392
I00
sg393
I00
sg394
S'gcc_arm_android'
p556
sg396
I00
sg43
NsbasS'library_paths'
p557
(lp558
g360
(cmkb_main
LibraryPath
p559
g362
Ntp560
Rp561
(dp562
S'expand_path'
p563
I01
sg387
S'c:/marmalade/7.10/modules/iwutil'
p564
sbag360
(g559
g362
Ntp565
Rp566
(dp567
g563
I01
sg387
S'c:/marmalade/7.10/modules/third_party/libjpeg'
p568
sbag360
(g559
g362
Ntp569
Rp570
(dp571
g563
I01
sg387
S'c:/marmalade/7.10/modules/third_party/zlib'
p572
sbag360
(g559
g362
Ntp573
Rp574
(dp575
g563
I01
sg387
S'c:/marmalade/7.10/modules/third_party/libpng'
p576
sbag360
(g559
g362
Ntp577
Rp578
(dp579
g563
I01
sg387
S'c:/marmalade/7.10/modules/iw2d'
p580
sbag360
(g559
g362
Ntp581
Rp582
(dp583
g563
I00
sg387
S'c:/marmalade/7.10/modules/iwgx/atitools'
p584
sbag360
(g559
g362
Ntp585
Rp586
(dp587
g563
I01
sg387
S'c:/marmalade/7.10/modules/iwgx'
p588
sbag360
(g559
g362
Ntp589
Rp590
(dp591
g563
I01
sg387
S'c:/marmalade/7.10/modules/iwgl'
p592
sbag360
(g559
g362
Ntp593
Rp594
(dp595
g563
I01
sg387
S'c:/marmalade/7.10/modules/iwgeom'
p596
sbag360
(g559
g362
Ntp597
Rp598
(dp599
g563
I01
sg387
S'c:/marmalade/7.10/modules/iwresmanager'
p600
sbag360
(g559
g362
Ntp601
Rp602
(dp603
g563
I01
sg387
S'c:/marmalade/7.10/modules/iwgxfont'
p604
sbag360
(g559
g362
Ntp605
Rp606
(dp607
g563
I01
sg387
S'c:/marmalade/7.10/modules/third_party/tiniconv'
p608
sbag360
(g559
g362
Ntp609
Rp610
(dp611
g563
I01
sg387
S'c:/marmalade/7.10/s3e'
p612
sbasS'macros'
p613
(dp614
S'IW_TRACE_CHANNEL_AMAZONADS'
p615
S'1'
p616
sS'IW_USE_CALLSTACK'
p617
NsS'IW_PLATFORM_S3E'
p618
NsS'I3D_PLATFORM_S3E'
p619
NsS'__S3E__'
p620
NsS'IW_TRACE_CHANNEL_AMAZONADS_VERBOSE'
p621
S'2'
p622
sS'IW_MKF_LIBJPEG'
p623
NsS'I3D_OS_S3E'
p624
NsS'IW_MKF_PVRTEXTOOL'
p625
NsS'IW_MKF_AMAZON_ADS_IOS_SDK'
p626
NsS'IW_MKF_TINICONV'
p627
NsS'IW_APP_VERSION'
p628
S'"1.0"'
p629
sS'IW_MKF_IWRESMANAGER'
p630
NsS'IW_MKF_FREELICENSE'
p631
NsS'IW_MKF_S3EAMAZONADS'
p632
NsS'IW_MKF_IWUTIL'
p633
NsS'IW_MKF_IWGEOM'
p634
NsS'IW_MKF_AMAZON_ADS_ANDROID_SDK'
p635
NsS'IW_ASSERTION_CHANNEL_2D'
p636
g616
sS'IW_APP_NAME'
p637
S'"Stage1"'
p638
sS'IW_MKF_MARMALADEEXAMPLERESOURCES'
p639
NsS'IW_MKF_IWGXFONT'
p640
NsS'IW_MKF_ZLIB'
p641
NsS'IW_MKF_S3E_DEFAULT'
p642
NsS'IW_MKF_IWGX'
p643
NsS'IW_MKF_SOUNDENGINE'
p644
NsS'IW_ASSERTION_CHANNEL_AMAZONADS'
p645
g616
sS'IW_USE_ASSERTIONS'
p646
NsS'_CRT_SECURE_NO_DEPRECATE'
p647
NsS'IW_MKF_IWGL'
p648
NsS'IW_MKF_LIBPNG'
p649
NsS'IW_DEBUG'
p650
NsS'IW_USE_TRACING'
p651
NsS'IW_TRACE_CHANNEL_PVRTEXTOOL'
p652
g616
sS'IW_SDK'
p653
NsS'S3E_INCLUDE_LEGACY'
p654
NsS'IW_TRACE_CHANNEL_PVRTEXTOOL_VERBOSE'
p655
g622
sS'IW_MKF_IW2D'
p656
NsS'IW_ASSERTION_CHANNEL_PVRTEXTOOL'
p657
g616
ssS'done_warnings'
p658
(dp659
sS'subprojects'
p660
(dp661
g211
S'zlib'
p662
sg221
S'tiniconv'
p663
sg206
S's3e-default.mkf'
p664
sg219
S'PVRTexTool'
p665
sg218
S'iwresmanager'
p666
sg213
S'amazon-ads-ios-sdk'
p667
sg217
S'iwgeom'
p668
sg212
S'amazon-ads-android-sdk'
p669
sg215
S'iwgx'
p670
sg210
S'libpng'
p671
sg208
S'iwutil'
p672
sg207
S's3eAmazonAds'
p673
sg222
S'MarmaladeExampleResources'
p674
sg209
S'libjpeg'
p675
sg220
S'iwgxfont'
p676
sg223
S'SoundEngine'
p677
sg216
S'iwgl'
p678
sg214
S'iw2d'
p679
ssS'deployments'
p680
(dp681
S'Default'
p682
g360
(cdeployment
Deployment
p683
g362
Ntp684
Rp685
(dp686
S'got_version'
p687
I0
sS'assets'
p688
g682
sS'mkb'
p689
g364
sS'target'
p690
Nsg394
(lp691
sS'options'
p692
(dp693
S'iphone-link-lib'
p694
(lp695
S's3eAmazonAds'
p696
asS'game-icf'
p697
NsS'android-tm'
p698
NsS'winmobile-icon32'
p699
NsS'ws8-logo-image150x150'
p700
NsS'wp81-logo-image150x150'
p701
NsS'win10-product-name'
p702
NsS'android-keystore'
p703
NsS'osx-ext-dll'
p704
(lp705
S'c:/marmalade/7.10/extensions/pvrtextool/lib/osx/libPVRTexTool.dylib'
p706
asS'iphone-provisioning-profile'
p707
NsS'win10-identity-name'
p708
NsS'ws8-splash-screen-image620x300'
p709
NsS'wp81-extra-pri'
p710
(lp711
sS'ws8-ext-capabilities'
p712
(lp713
sS'android-icon-hdpi'
p714
NsS'iphone-ipad-only'
p715
NsS'iphone-splash-full-orient'
p716
NsS'wp8-tile-fliptemplate-supports-large'
p717
NsS'iphone-show-status-bar'
p718
NsS'roku-requires-mkv'
p719
NsS'long-caption'
p720
NsS'android-pkgname'
p721
NsS'ws8-ext-native-only-dll'
p722
(lp723
sS'wp81-publisher-display-name'
p724
NsS'win10-logo-image150x150'
p725
NsS'blackberry-permissions-read-device-identifying-information'
p726
NsS'ws81-certificate-end-date'
p727
NsS'psp-dlgcontentid'
p728
NsS'android-version-code'
p729
NsS'win10-ext-uap-capabilities'
p730
(lp731
sS'iphone-minimum-ios-version'
p732
NsS'target-folder'
p733
NsS'tizen-dist1-CA-path'
p734
NsS'symbian-icon2-format'
p735
NsS'tizen-author-key'
p736
NsS'firefoxos-icon-128X128'
p737
NsS'iphone-region'
p738
NsS'uiq3-icon3-mask'
p739
NsS'brew-encoding'
p740
NsS'version'
p741
NsS'nds-initialcode'
p742
NsS'win10-ext-native-dll'
p743
(lp744
sS'iphone-persistent-wifi'
p745
NsS'psp-snd0'
p746
NsS'roku-icon-focus-hd'
p747
NsS'osx-appid'
p748
NsS'ws81-ext-native-only-dll'
p749
(lp750
sS'winmobile-install-folder'
p751
NsS'android-external-res'
p752
(lp753
sS'ws8-product-version'
p754
NsS'brew-priviledges'
p755
NsS'iphone-icon-ipad-search'
p756
NsS'iphone-icon-ipad'
p757
NsS'iphone-skip-icon-generation'
p758
NsS'nacl-icon-128X128'
p759
NsS'roku-hidden'
p760
NsS'psp-titlename'
p761
NsS'wp81-product-version'
p762
NsS'symbian-icon1-mask'
p763
NsS'psp-parentallevel'
p764
NsS'iphone-launch-storyboard'
p765
NsS'splashscreen-use-all'
p766
NsS'symbian-disable-ecompxl'
p767
NsS'splashscreen-auto-onblack'
p768
NsS'iphone-icon-dir'
p769
NsS'iphone-icon-extra'
p770
NsS'win32-ext-dll'
p771
(lp772
S'c:/marmalade/7.10/extensions/pvrtextool/lib/win32/PVRTexTool.dll'
p773
asS'iphone-development-key'
p774
NsS'winmobile-icon48'
p775
NsS'android-unsigned'
p776
NsS'osx-appstore-category'
p777
NsS'version-revision'
p778
NsS'roku-icon-focus-sd'
p779
NsS'ws81-product-version'
p780
NsS'winmobile-png90'
p781
NsS'iphone-icon-ipad-high-res'
p782
NsS'iphone-disable-ipad'
p783
NsS'win10-ext-sdk-ref'
p784
(lp785
sS'ws81-splash-screen-background'
p786
NsS'wp8-ext-capabilities'
p787
(lp788
sS'brew-icon-large'
p789
NsS'symbian-icon1-mask-black'
p790
NsS'ws8-extra-res'
p791
(lp792
sS'iphone-bundle-localisations'
p793
NsS'winmobile-png60'
p794
NsS'blackberry-permissions-access-shared'
p795
NsS'blackberry-author'
p796
NsS'android-icon-xxxhdpi'
p797
NsS'olddeploytoolstyle'
p798
NsS'android_icon_gallery'
p799
NsS'win10-distribution-pfx-password'
p800
NsS'wp81-splash-screen-background'
p801
NsS'wp8-exclude-720p'
p802
NsS'iphone-info-plist'
p803
NsS'ws81-ext-managed-dll'
p804
(lp805
sS'playbook-cskpass'
p806
NsS'win10-description'
p807
NsS'ws8-distribution-pfx-password'
p808
NsS'symbian-key'
p809
NsS'app-icf'
p810
NsS'blackberry-storepass'
p811
NsS'wp8-tile-fliptemplate-back-title'
p812
NsS'brew-compress-loader'
p813
NsS'iphone-testflight'
p814
NsS'win32-pref-windowposy'
p815
NsS'win32-pref-windowposx'
p816
NsS'roku-requires-audiometadata'
p817
NsS'wp8-exclude-low-mem'
p818
NsS'android-min-sdk-version'
p819
NsS'wp8-tile-fliptemplate-title'
p820
NsS'iphone-icon-ipad-search-high-res'
p821
NsS'iphone-link-libdir'
p822
(lp823
S'c:/marmalade/7.10/extensions/s3eamazonads/lib/iphone'
p824
asS'wp81-ext-capabilities'
p825
(lp826
sS'blackberry-permissions-read-geolocation'
p827
NsS'win10-splash-screen-image620x300'
p828
NsS'ws81-ext-device-capabilities'
p829
(lp830
sS'tizen-signed'
p831
NsS'android-extra-application-manifest'
p832
(lp833
S'c:/marmalade/7.10/extensions/s3eamazonads/source/android/ExtraAppManifests.xml'
p834
asS'android-x86'
p835
NsS'win10-extra-res'
p836
(lp837
sS'ws8-ext-native-dll'
p838
(lp839
sS'symbian-icon2-mask'
p840
NsS'iphone-launch-extra'
p841
NsS'webos-memory'
p842
NsS'android-keypass'
p843
NsS'name'
p844
NsS'uiq3-icon2-format'
p845
NsS'roku-splash-screen-sd'
p846
NsS'auto-derbh'
p847
NsS'roku-icon-side-sd'
p848
NsS'android-external-assets'
p849
(lp850
sS'nds-publicsavedatasize'
p851
NsS'splashscreen'
p852
S'c:/marmalade/7.10/examples/marmaladeexampleresources/resources/splashscreens'
p853
sS'wp8-product-id'
p854
NsS'iphone-icon-settings-high-res'
p855
NsS'android-manifest'
p856
NsS'ws81-splash-screen-image620x300'
p857
NsS'wp81-product-name'
p858
NsS's3e-compression'
p859
NsS'tizen-author-password'
p860
NsS'wp8-tile-fliptemplate-back-content'
p861
NsS'blackberry-extra-descriptor'
p862
(lp863
sS'android-java-source-version'
p864
NsS'symbian-icon1'
p865
NsS'symbian-icon2'
p866
NsS'nds-makercode'
p867
NsS'android-extra-styles-file'
p868
NsS'android-ext-target-sdk-version'
p869
(lp870
I17
asS'wp81-publisher-id'
p871
NsS'nds-bannertitle-jp'
p872
NsS'wp81-logo-image44x44'
p873
NsS'osx-sign-for-store'
p874
NsS'symbian7-uid'
p875
NsS'wp8-tile-fliptemplate-large-back-content'
p876
NsS'wp81-phone-publisher-id'
p877
NsS'nds-bannertitle-cn'
p878
NsS'iphone-distribution-key'
p879
NsS'win10-phone-publisher-id'
p880
NsS'android-icon-gallery'
p881
NsS'blackberry-keystore'
p882
NsS'iphone-nosign'
p883
NsS'caption'
p884
NsS'nacl-permissions'
p885
NsS'android-extra-manifest'
p886
(lp887
sS'wp81-ext-sdk-ref'
p888
(lp889
sS'android-icon-xxhdpi'
p890
NsS'version-minor'
p891
NsS'iphone-skip-launch-generation'
p892
NsS'iphone-link-libdirs'
p893
(lp894
sS'iphone-icon-large'
p895
NsS'symbian-keypwd'
p896
NsS'symbian8-uid'
p897
NsS'symbian-cert-key'
p898
NsS'winmobile-ampd-part-number'
p899
NsS'arch'
p900
NsS'nds-romheadertemplate'
p901
NsS'webos-icon'
p902
NsS'wp81-ext-device-capabilities'
p903
(lp904
sS'psp-dlgprotectdocument'
p905
NsS'ws8-splash-screen-background'
p906
NsS'android-icon-mdpi'
p907
NsS'android-sdk-build-tools-version'
p908
NsS'nds-icon'
p909
NsS'ws8-custom-manifest-fill'
p910
NsS'iphone-development-cert'
p911
NsS'symbian-icon2-mask-black'
p912
NsS'blackberry-phone-icon'
p913
NsS'iphone-enable-4inch-retina'
p914
NsS'ws8-custom-manifest'
p915
NsS'version-major'
p916
NsS'wp8-genre-isgame'
p917
NsS'uiq3-uid'
p918
NsS'iphone-splash-retina-generate'
p919
NsS'tizen-hw-acceleration'
p920
NsS'iphone_bundle_localisations'
p921
NsS'tizen-dist1-key'
p922
NsS'wp81-custom-manifest-fill'
p923
NsS'wp8-custom-manifest'
p924
NsS'nds-bannertitle-ge'
p925
NsS'iphone-sign-for-distribution'
p926
NsS'wp8-tile-fliptemplate-medium-back-image'
p927
NsS'wp8-publisher-id'
p928
NsS'icon'
p929
S'c:/marmalade/7.10/examples/marmaladeexampleresources/resources/icons'
p930
sS'android-target-sdk-version'
p931
NsS'win10-ext-capabilities'
p932
(lp933
sS'wp8-exclude-wxga'
p934
NsS'wp81-identity-name'
p935
NsS'uiq3-icon2-mask'
p936
NsS'iphone-splashscreen-portrait'
p937
NsS'iphone-icon-high-res'
p938
NsS'ws81-distribution-pfx-password'
p939
NsS'playbook-author'
p940
NsS'wp8-custom-manifest-fill'
p941
NsS'linux-ext-lib'
p942
(lp943
sS'blackberry-permissions-access-internet'
p944
NsS'lgtv-use-drm'
p945
NsS'win10-splash-screen-image480x800'
p946
NsS'symbian-platsecflags'
p947
NsS'ws8-description'
p948
NsS'blackberry-playbook-icon'
p949
NsS'win10-distribution-cer'
p950
NsS'copyright'
p951
NsS'winmobile-cab-compress'
p952
NsS'win32-gles-directory'
p953
NsS'wp8-author'
p954
NsS'android-ext-min-sdk-version'
p955
(lp956
I4
asS'iphone-uiviewcontroller-based-status-bar'
p957
NsS'ws81-logo-image150x150'
p958
NsS'osx-signing-identity-app'
p959
NsS'tizen-project-url'
p960
NsS'symbian-icon-svg'
p961
NsS'android-aliasname'
p962
NsS'psp-dlgmanual'
p963
NsS'brew-uid'
p964
NsS'wp81-ext-native-only-dll'
p965
(lp966
sS'symbian-locationsupport'
p967
NsS'wp81-logo-image50x50'
p968
NsS'ws8-ext-managed-dll'
p969
(lp970
sS'nds-bannertitle-it'
p971
NsS'ws81-custom-manifest-fill'
p972
NsS'ws8-ext-sdk-manifest-part'
p973
(lp974
sS'uiq3-icon1-mask'
p975
NsS'winmobile-icon16'
p976
NsS'ws8-product-name'
p977
NsS'blackberry-cskpass'
p978
NsS'winmobile-start-menu-folder'
p979
NsS'brew-clsid'
p980
NsS'roku-requires-bluetooth'
p981
NsS'iphone-default-development-profile'
p982
NsS'ws8-ext-device-capabilities'
p983
(lp984
sS'blackberry-permissions-use-camera'
p985
NsS'ws81-extra-pri'
p986
(lp987
sS'iphone-prerendered-icon'
p988
NsS'iphone-appid'
p989
NsS'ws8-identity-name'
p990
NsS'tizen-dist2-CA-path'
p991
NsS'android-external-jars'
p992
(lp993
S'c:/marmalade/7.10/platform_libs/android/amazon-ads-android-sdk/third_party/lib/amazon-ads-5.5.149.jar'
p994
aS'c:/marmalade/7.10/extensions/s3eamazonads/lib/android/s3eAmazonAds.jar'
p995
asS'winmobile-icon64'
p996
NsS'blackberry-permissions-post-notification'
p997
NsS'winmobile-setup-dll'
p998
NsS'firefoxos-manifest'
p999
NsS'win8-winrt-extra-res'
p1000
(lp1001
sS'wp81-ext-sdk-manifest-part'
p1002
(lp1003
sS'symbian9-uid'
p1004
NsS'iphone-icon-ipad-ios7'
p1005
NsS'winmobile-trace-file'
p1006
NsS'roku-splash-color'
p1007
NsS'psp-appversion'
p1008
NsS'android-java-target-version'
p1009
NsS'ws8-publisher-id'
p1010
NsS'win10-splash-screen-background'
p1011
NsS'win10-product-id'
p1012
NsS'win10-logo-image30x30'
p1013
NsS'winmobile-png45'
p1014
NsS'wp81-extra-res'
p1015
(lp1016
sS'android-storepass'
p1017
NsS'nacl-icon-16X16'
p1018
NsS'osx-signing-identity-inst'
p1019
NsS'android-custom-activity'
p1020
NsS'psp-discversion'
p1021
NsS'wp81-ext-managed-dll'
p1022
(lp1023
sS'nacl-clear-user-data'
p1024
NsS'psp-copyright'
p1025
NsS'win10-ext-managed-dll'
p1026
(lp1027
sS'win10-logo-image50x50'
p1028
NsS'embed-icf'
p1029
NsS'tizen-manifest'
p1030
NsS'osx-icon'
p1031
NsS'webos-appinfo'
p1032
NsS'psp-dlghealthwarning'
p1033
NsS'webos-appid'
p1034
NsS'roku-icon-side-hd'
p1035
NsS'iphone-icon-ipad-search-high-res-ios7'
p1036
NsS'iphone-extra-plist'
p1037
(lp1038
sS'ws81-ext-sdk-manifest-part'
p1039
(lp1040
sS'loader_name_prefix'
p1041
NsS'iphone-launch-dir'
p1042
S'c:/marmalade/7.10/examples/marmaladeexampleresources/resources/splashscreens/ios'
p1043
sS'nds-titlename'
p1044
NsS'ws81-logo-image50x50'
p1045
NsS'wp81-custom-manifest'
p1046
NsS'osx-entitlements-plist'
p1047
NsS'win10-product-version'
p1048
NsS'psp-dlgicon0'
p1049
NsS'winmobile-nouninstall'
p1050
NsS'psp-discid'
p1051
NsS'tizen-dist2-password'
p1052
NsS'android-supports-gl-texture'
p1053
(lp1054
sS'ws8-ext-sdk-ref'
p1055
(lp1056
sS'iphone-extra-string'
p1057
(lp1058
sS'version-string'
p1059
NsS'iphone-icon-high-res-ios7'
p1060
NsS'ws8-certificate-end-date'
p1061
NsS'nacl-skip-zip'
p1062
NsS'win10-custom-manifest'
p1063
NsS'tizen-so'
p1064
(lp1065
sS'win10-logo-image44x44'
p1066
NsS'win10-custom-manifest-fill'
p1067
NsS'wp8-tile-fliptemplate-small-image'
p1068
NsS'win10-certificate-end-date'
p1069
NsS'playbook-authorid'
p1070
NsS'win10-publisher-id'
p1071
NsS'iphone-signing-identity'
p1072
NsS'roku-persist-quota'
p1073
NsS'nds-bannertitle-fr'
p1074
NsS'ws8-distribution-pfx'
p1075
NsS'ws8-publisher-display-name'
p1076
NsS'brew-icon-small'
p1077
NsS'psp-dlgpic2'
p1078
NsS'psp-dlgpic0'
p1079
NsS'win10-phone-product-id'
p1080
NsS'psp-pic0'
p1081
NsS'psp-pic1'
p1082
NsS'win32-pref-windowtitle'
p1083
NsS'psp-icon0'
p1084
NsS'psp-icon1'
p1085
NsS'ws81-identity-name'
p1086
NsS'win10-distribution-pfx'
p1087
NsS'winmobile-icon'
p1088
NsS'iphone-no-splash'
p1089
NsS'iphone-splash'
p1090
NsS'iphone-app-fonts'
p1091
NsS'wp8-ext-native-dll'
p1092
(lp1093
sS'wp81-splash-screen-image480x800'
p1094
NsS'ws81-distribution-cer'
p1095
NsS'win10-ext-sdk-manifest-part'
p1096
(lp1097
sS'uiq3-icon2'
p1098
NsS'uiq3-icon3'
p1099
NsS'uiq3-icon1'
p1100
NsS'uiq3-icon1-format'
p1101
NsS'ws8-logo-image50x50'
p1102
NsS'iphone-info-plist-override'
p1103
NsS'symbian-run-on-install'
p1104
NsS'wp81-description'
p1105
NsS'ws81-publisher-display-name'
p1106
NsS'android-version-name'
p1107
NsS'firefoxos-xulrunner'
p1108
NsS'symbian-soundrecordsupport'
p1109
NsS'iphone-backgroundmode-audio'
p1110
NsS'nds-bannertitle-sp'
p1111
NsS'win10-extra-pri'
p1112
(lp1113
sS'psp-producer'
p1114
NsS'iphone-apple-wwdr-cert'
p1115
NsS'android-icon-nonstandard'
p1116
NsS'win32-pref-processtitle'
p1117
NsS'android-icon-xhdpi'
p1118
NsS'nds-bannertitle-hn'
p1119
NsS'tizen-dist2-key'
p1120
NsS'brew-depends'
p1121
NsS'ws81-custom-manifest'
p1122
NsS'iphone-allow-launch-rotation'
p1123
NsS'brew-mif'
p1124
NsS'iphone-icon-ipad-search-ios7'
p1125
NsS'brew-icon-medium'
p1126
NsS'iphone-bundle-url-name'
p1127
NsS'wp8-tile-fliptemplate-large-front-image'
p1128
NsS'tizen-dist2-CA-root-path'
p1129
NsS'ws81-description'
p1130
NsS'uiq3-icon3-format'
p1131
NsS'win10-publisher-display-name'
p1132
NsS'ws81-logo-image30x30'
p1133
NsS'win10-ext-device-capabilities'
p1134
(lp1135
sS'win8-phone-extra-res'
p1136
(lp1137
sS'iphone-signing-host'
p1138
NsS'tizen-icon'
p1139
NsS'osx-info-plist'
p1140
NsS'symbian-icon1-format'
p1141
NsS'ws81-distribution-pfx'
p1142
NsS'win32-aux-dll'
p1143
(lp1144
sS'blackberry-authorid'
p1145
NsS'ws81-publisher-id'
p1146
NsS'win8-store-extra-res'
p1147
(lp1148
sS'wp8-description'
p1149
NsS'iphone-link-opts'
p1150
(lp1151
S'-Fc:/marmalade/7.10/platform_libs/iphone/amazon-ads-ios-sdk/third_party/Ads -framework AmazonAd'
p1152
aS'-weak_framework AdSupport -weak_framework CoreLocation -weak_framework SystemConfiguration'
p1153
aS'-weak_framework CoreTelephony -weak_framework MediaPlayer'
p1154
aS'-weak_framework EventKit -weak_framework EventKitUI'
p1155
asS'ws81-ext-sdk-ref'
p1156
(lp1157
sS'roku-splash-min-time'
p1158
NsS'wp8-tile-fliptemplate-medium-front-image'
p1159
NsS'iphone-disable-launch-images'
p1160
NsS'android-sdk-platform-version'
p1161
NsS'provider'
p1162
NsS'playbook-keystore'
p1163
NsS'tizen-appid'
p1164
NsS'wp8-extra-res'
p1165
(lp1166
sS'symbian-osexecsupport'
p1167
NsS'android-install-location'
p1168
NsS'nds-privatesavedatasize'
p1169
NsS'iphone-disable-testflight'
p1170
NsS'playbook-storepass'
p1171
NsS'android-icon-ldpi'
p1172
NsS'manufacturer'
p1173
NsS'itunes-artwork'
p1174
NsS'iphone-extra-sections'
p1175
NsS'ws81-product-name'
p1176
NsS'ws81-ext-native-dll'
p1177
(lp1178
sS'ws8-extra-pri'
p1179
(lp1180
sS'win32-icon'
p1181
NsS'ws8-logo-image30x30'
p1182
NsS'wp8-ext-managed-dll'
p1183
(lp1184
sS'iphone-splashscreen-landscape'
p1185
NsS'symbian-maxheapsize'
p1186
NsS'android-extra-packages'
p1187
(lp1188
sS'priv-sign-key'
p1189
NsS'networking'
p1190
NsS'android-icon'
p1191
NsS'iphone-icon-settings'
p1192
NsS'nacl-manifest'
p1193
NsS'wp81-phone-product-id'
p1194
NsS'firefoxos-icon-60X60'
p1195
NsS'iphone-distribution-cert'
p1196
NsS'android_extra_strings'
p1197
NsS'nds-bannertitle-en'
p1198
NsS'blackberry-permissions-record-audio'
p1199
NsS'android-so'
p1200
(lp1201
S'c:/marmalade/7.10/extensions/s3eamazonads/lib/android/libs3eAmazonAds.so'
p1202
asS'wp8-higher-mem'
p1203
NsS'wp8-ext-sdk-ref'
p1204
(lp1205
sS'wp8-fast-resume-mode'
p1206
NsS'roku-splash-screen-hd'
p1207
NsS'iphone-bundle-url-schemes'
p1208
NsS'roku-screensaver-private'
p1209
NsS'osx-extra-res'
p1210
(lp1211
sS'ws81-extra-res'
p1212
(lp1213
sS'playbook-icon'
p1214
NsS'uid'
p1215
NsS'pkguid-as-uid'
p1216
NsS'wp81-ext-native-dll'
p1217
(lp1218
sS'tizen-dist1-password'
p1219
NsS'roku-screensaver-title'
p1220
NsS'osx-minimum-osx-version'
p1221
NsS'symbian-cert'
p1222
NsS'iphone-icon'
p1223
NsS'ws81-ext-capabilities'
p1224
(lp1225
sS'ws8-distribution-cer'
p1226
NsS'playbook-access-shared'
p1227
NsS'iphone-icon-ipad-high-res-ios7'
p1228
NsS'iphone-link-libs'
p1229
(lp1230
sS'wp8-exclude-wvga'
p1231
NsS'assets'
p1232
NsS'wp8-tile-fliptemplate-large-back-image'
p1233
NsS'pub-sign-key'
p1234
NsS'nacl-legacy-ext'
p1235
NsS'android-extra-strings'
p1236
(lp1237
sS'tizen-author-CA-path'
p1238
Nssg387
g682
sbssS'platform'
p1239
S'S3E'
p1240
sg77
S'1.0'
p1241
sS'arcade_platform'
p1242
g4
sS'extensions'
p1243
(dp1244
sS'source_groups_tree'
p1245
(dp1246
S'(libpng)'
p1247
(dp1248
S'h'
p1249
(dp1250
S'c:/marmalade/7.10/modules/third_party/libpng/h/png.h'
p1251
(lp1252
I1
a(dp1253
asS'c:/marmalade/7.10/modules/third_party/libpng/h/pngconf.h'
p1254
(lp1255
I1
ag1253
assS'c:/marmalade/7.10/modules/third_party/libpng/libpng.mkf'
p1256
(lp1257
I1
a(dp1258
assS'(amazon-ads-android-sdk)'
p1259
(dp1260
S'c:/marmalade/7.10/platform_libs/android/amazon-ads-android-sdk/amazon-ads-android-sdk.mkf'
p1261
(lp1262
I1
a(dp1263
assS'(tiniconv)'
p1264
(dp1265
S'c:/marmalade/7.10/modules/third_party/tiniconv/source/tiniconv.h'
p1266
(lp1267
I1
a(dp1268
asS'c:/marmalade/7.10/modules/third_party/tiniconv/source/tiniconv_int.h'
p1269
(lp1270
I1
ag1268
asS'c:/marmalade/7.10/modules/third_party/tiniconv/tiniconv.mkf'
p1271
(lp1272
I1
a(dp1273
assS'(amazon-ads-ios-sdk)'
p1274
(dp1275
S'c:/marmalade/7.10/platform_libs/iphone/amazon-ads-ios-sdk/amazon-ads-ios-sdk.mkf'
p1276
(lp1277
I1
a(dp1278
assS'(SoundEngine)'
p1279
(dp1280
S'd:/marmalade/modules/soundengine/h/IwSoundInst.h'
p1281
(lp1282
I1
a(dp1283
asS'd:/marmalade/modules/soundengine/source/IwSoundPCM.cpp'
p1284
(lp1285
I1
ag1283
asS'd:/marmalade/modules/soundengine/h/IwSoundPCM.h'
p1286
(lp1287
I1
ag1283
asS'd:/marmalade/modules/soundengine/h/IwSoundSpec.h'
p1288
(lp1289
I1
ag1283
asS'd:/marmalade/modules/soundengine/h/IwResHandlerWAV.h'
p1290
(lp1291
I1
ag1283
asS'd:/marmalade/modules/soundengine/h/IwSoundManager.h'
p1292
(lp1293
I1
ag1283
asS'Docs'
p1294
(dp1295
S'd:/marmalade/modules/soundengine/docs/iwsound.config.txt'
p1296
(lp1297
I1
ag1283
assS'd:/marmalade/modules/soundengine/h/IwSound.h'
p1298
(lp1299
I1
ag1283
asS'd:/marmalade/modules/soundengine/source/IwSoundWAV.cpp'
p1300
(lp1301
I1
ag1283
asS'd:/marmalade/modules/soundengine/h/IwSoundParams.h'
p1302
(lp1303
I1
ag1283
asS'd:/marmalade/modules/soundengine/source/IwSoundADPCM.cpp'
p1304
(lp1305
I1
ag1283
asS'd:/marmalade/modules/soundengine/h/IwSoundADPCM.h'
p1306
(lp1307
I1
ag1283
asS'd:/marmalade/modules/soundengine/h/IwSoundWAV.h'
p1308
(lp1309
I1
ag1283
asS'd:/marmalade/modules/soundengine/source/IwResHandlerWAV.cpp'
p1310
(lp1311
I1
ag1283
asS'd:/marmalade/modules/soundengine/source/IwSoundInst.cpp'
p1312
(lp1313
I1
ag1283
asS'd:/marmalade/modules/soundengine/source/IwSoundData.cpp'
p1314
(lp1315
I1
ag1283
asS'd:/marmalade/modules/soundengine/source/IwSoundManager.cpp'
p1316
(lp1317
I1
ag1283
asS'd:/marmalade/modules/soundengine/h/IwSoundData.h'
p1318
(lp1319
I1
ag1283
asS'd:/marmalade/modules/soundengine/source/IwSoundParams.cpp'
p1320
(lp1321
I1
ag1283
asS'd:/marmalade/modules/soundengine/source/IwSoundGroup.cpp'
p1322
(lp1323
I1
ag1283
asS'd:/marmalade/modules/soundengine/soundengine.mkf'
p1324
(lp1325
I1
a(dp1326
asS'd:/marmalade/modules/soundengine/source/IwSoundSpec.cpp'
p1327
(lp1328
I1
ag1283
asS'd:/marmalade/modules/soundengine/h/IwSoundGroup.h'
p1329
(lp1330
I1
ag1283
assS'(MarmaladeExampleResources)'
p1331
(dp1332
S'c:/marmalade/7.10/examples/marmaladeexampleresources/marmaladeexampleresources.mkf'
p1333
(lp1334
I1
a(dp1335
assS'source'
p1336
(dp1337
S'd:/Marmalade/Stage1/source/input.h'
p1338
(lp1339
I1
a(dp1340
asS'd:/Marmalade/Stage1/source/audio.h'
p1341
(lp1342
I1
ag1340
asS'd:/Marmalade/Stage1/source/Stage1.cpp'
p1343
(lp1344
I1
ag1340
asS'd:/Marmalade/Stage1/source/input.cpp'
p1345
(lp1346
I1
ag1340
asS'd:/Marmalade/Stage1/source/audio.cpp'
p1347
(lp1348
I1
ag1340
assS'Extensions'
p1349
(dp1350
S's3eAmazonAds'
p1351
(dp1352
S'interface'
p1353
(dp1354
S'c:/marmalade/7.10/extensions/s3eamazonads/interface/s3eAmazonAds.defines.txt'
p1355
(lp1356
I1
a(dp1357
asS'c:/marmalade/7.10/extensions/s3eamazonads/interface/s3eAmazonAds_interface.cpp'
p1358
(lp1359
I1
ag1357
assS'c:/marmalade/7.10/extensions/s3eamazonads/s3eamazonads.mkf'
p1360
(lp1361
I1
a(dp1362
asS'c:/marmalade/7.10/extensions/s3eamazonads/h/s3eAmazonAds.h'
p1363
(lp1364
I1
ag1357
assS'PVRTexTool'
p1365
(dp1366
S'interface'
p1367
(dp1368
S'c:/marmalade/7.10/extensions/pvrtextool/interface/PVRTexTool_interface.cpp'
p1369
(lp1370
I1
a(dp1371
asS'c:/marmalade/7.10/extensions/pvrtextool/interface/PVRTexTool.defines.txt'
p1372
(lp1373
I1
ag1371
assS'c:/marmalade/7.10/extensions/pvrtextool/h/PVRTexTool.h'
p1374
(lp1375
I1
ag1371
asS'c:/marmalade/7.10/extensions/pvrtextool/pvrtextool.mkf'
p1376
(lp1377
I1
a(dp1378
asssS'(s3e-default)'
p1379
(dp1380
S'c:/marmalade/7.10/s3e/s3e-default.mkf'
p1381
(lp1382
I1
a(dp1383
assS"'Marmalade Studio'"
p1384
(dp1385
S'iwgl'
p1386
(dp1387
S'c:/marmalade/7.10/modules/iwgl/iwgl.mkf'
p1388
(lp1389
I1
a(dp1390
asS'c:/marmalade/7.10/modules/iwgl/h/IwGL.h'
p1391
(lp1392
I1
a(dp1393
asS'c:/marmalade/7.10/modules/iwgl/docs/iwgl.config.txt'
p1394
(lp1395
I1
ag1393
asS'c:/marmalade/7.10/modules/iwgl/h/IwGLExt.h'
p1396
(lp1397
I1
ag1393
assS'iw2d'
p1398
(dp1399
S'c:/marmalade/7.10/modules/iw2d/iw2d.mkf'
p1400
(lp1401
I1
a(dp1402
asS'c:/marmalade/7.10/modules/iw2d/docs/iw2d_public.defines.txt'
p1403
(lp1404
I1
a(dp1405
asS'c:/marmalade/7.10/modules/iw2d/h/Iw2D.h'
p1406
(lp1407
I1
ag1405
asS'c:/marmalade/7.10/modules/iw2d/docs/iw2d.config.txt'
p1408
(lp1409
I1
ag1405
assS'iwgxfont'
p1410
(dp1411
S'c:/marmalade/7.10/modules/iwgxfont/h/IwGxFont.h'
p1412
(lp1413
I1
a(dp1414
asS'c:/marmalade/7.10/modules/iwgxfont/h/IwGxFontPreparedData.h'
p1415
(lp1416
I1
ag1414
asS'c:/marmalade/7.10/modules/iwgxfont/iwgxfont.mkf'
p1417
(lp1418
I1
a(dp1419
asS'c:/marmalade/7.10/modules/iwgxfont/docs/iwgxfont.config.txt'
p1420
(lp1421
I1
ag1414
asS'c:/marmalade/7.10/modules/iwgxfont/h/IwGxFontState.h'
p1422
(lp1423
I1
ag1414
asS'c:/marmalade/7.10/modules/iwgxfont/docs/iwgxfont_public.defines.txt'
p1424
(lp1425
I1
ag1414
asS'c:/marmalade/7.10/modules/iwgxfont/h/IwGxFontContainer.h'
p1426
(lp1427
I1
ag1414
asS'c:/marmalade/7.10/modules/iwgxfont/h/IwGxFontGlyph.h'
p1428
(lp1429
I1
ag1414
asS'c:/marmalade/7.10/modules/iwgxfont/h/IwGxFontTypes.h'
p1430
(lp1431
I1
ag1414
assS'iwgeom'
p1432
(dp1433
S'c:/marmalade/7.10/modules/iwgeom/h/IwGeomQuat.h'
p1434
(lp1435
I1
a(dp1436
asS'c:/marmalade/7.10/modules/iwgeom/h/IwGeomMat2D.h.tpl'
p1437
(lp1438
I1
ag1436
asS'c:/marmalade/7.10/modules/iwgeom/h/IwGeomIntersect.h'
p1439
(lp1440
I1
ag1436
asS'c:/marmalade/7.10/modules/iwgeom/h/IwGeomQuat.h.tpl'
p1441
(lp1442
I1
ag1436
asS'c:/marmalade/7.10/modules/iwgeom/h/IwGeomVec.h.tpl'
p1443
(lp1444
I1
ag1436
asS'c:/marmalade/7.10/modules/iwgeom/docs/iwgeom.config.txt'
p1445
(lp1446
I1
ag1436
asS'c:/marmalade/7.10/modules/iwgeom/h/IwGeomFBBox.h'
p1447
(lp1448
I1
ag1436
asS'c:/marmalade/7.10/modules/iwgeom/iwgeom.mkf'
p1449
(lp1450
I1
a(dp1451
asS'c:/marmalade/7.10/modules/iwgeom/h/IwGeomFSphere.h'
p1452
(lp1453
I1
ag1436
asS'c:/marmalade/7.10/modules/iwgeom/h/IwGeomSVec4.h'
p1454
(lp1455
I1
ag1436
asS'c:/marmalade/7.10/modules/iwgeom/h/IwGeomPlane.h'
p1456
(lp1457
I1
ag1436
asS'c:/marmalade/7.10/modules/iwgeom/h/IwGeomSVec3.h'
p1458
(lp1459
I1
ag1436
asS'c:/marmalade/7.10/modules/iwgeom/h/IwGeomVec4.h'
p1460
(lp1461
I1
ag1436
asS'c:/marmalade/7.10/modules/iwgeom/h/IwGeom.h'
p1462
(lp1463
I1
ag1436
asS'c:/marmalade/7.10/modules/iwgeom/h/IwGeomVec3.h'
p1464
(lp1465
I1
ag1436
asS'c:/marmalade/7.10/modules/iwgeom/h/IwGeomMat.h.tpl'
p1466
(lp1467
I1
ag1436
asS'c:/marmalade/7.10/modules/iwgeom/h/IwGeomFQuat.h'
p1468
(lp1469
I1
ag1436
asS'c:/marmalade/7.10/modules/iwgeom/h/IwGeomSphere.h'
p1470
(lp1471
I1
ag1436
asS'c:/marmalade/7.10/modules/iwgeom/h/IwGeomLegacy.h'
p1472
(lp1473
I1
ag1436
asS'c:/marmalade/7.10/modules/iwgeom/h/IwGeomVec2.h'
p1474
(lp1475
I1
ag1436
asS'c:/marmalade/7.10/modules/iwgeom/h/IwGeomFIntersect.h'
p1476
(lp1477
I1
ag1436
asS'c:/marmalade/7.10/modules/iwgeom/h/IwGeomFPlane.h'
p1478
(lp1479
I1
ag1436
asS'c:/marmalade/7.10/modules/iwgeom/h/IwGeomSQuat.h'
p1480
(lp1481
I1
ag1436
asS'c:/marmalade/7.10/modules/iwgeom/h/IwGeomSVec2.h'
p1482
(lp1483
I1
ag1436
asS'c:/marmalade/7.10/modules/iwgeom/h/IwGeomBBox.h'
p1484
(lp1485
I1
ag1436
asS'c:/marmalade/7.10/modules/iwgeom/h/IwGeomFMat2D.h'
p1486
(lp1487
I1
ag1436
asS'c:/marmalade/7.10/modules/iwgeom/h/IwGeomVec.h'
p1488
(lp1489
I1
ag1436
asS'c:/marmalade/7.10/modules/iwgeom/h/IwGeomMenu.h'
p1490
(lp1491
I1
ag1436
asS'c:/marmalade/7.10/modules/iwgeom/h/IwGeomFVec2.h'
p1492
(lp1493
I1
ag1436
asS'c:/marmalade/7.10/modules/iwgeom/h/IwGeomFMat.h'
p1494
(lp1495
I1
ag1436
asS'c:/marmalade/7.10/modules/iwgeom/h/IwGeomCore.h'
p1496
(lp1497
I1
ag1436
asS'c:/marmalade/7.10/modules/iwgeom/h/IwGeomFVec3.h'
p1498
(lp1499
I1
ag1436
asS'c:/marmalade/7.10/modules/iwgeom/h/IwGeomMat2D.h'
p1500
(lp1501
I1
ag1436
asS'c:/marmalade/7.10/modules/iwgeom/h/IwGeomMat.h'
p1502
(lp1503
I1
ag1436
asS'c:/marmalade/7.10/modules/iwgeom/h/IwGeomFVec4.h'
p1504
(lp1505
I1
ag1436
asS'c:/marmalade/7.10/modules/iwgeom/h/IwGeomSqrt.h'
p1506
(lp1507
I1
ag1436
assS'iwresmanager'
p1508
(dp1509
S'c:/marmalade/7.10/modules/iwresmanager/h/IwResHandler.h'
p1510
(lp1511
I1
a(dp1512
asS'c:/marmalade/7.10/modules/iwresmanager/docs/iwresmanager.config.txt'
p1513
(lp1514
I1
ag1512
asS'c:/marmalade/7.10/modules/iwresmanager/h/IwResHandlerImage.h'
p1515
(lp1516
I1
ag1512
asS'c:/marmalade/7.10/modules/iwresmanager/h/IwResHandlerITX.h'
p1517
(lp1518
I1
ag1512
asS'c:/marmalade/7.10/modules/iwresmanager/h/IwResManager.h'
p1519
(lp1520
I1
ag1512
asS'c:/marmalade/7.10/modules/iwresmanager/h/IwResSerialise.h'
p1521
(lp1522
I1
ag1512
asS'c:/marmalade/7.10/modules/iwresmanager/iwresmanager.mkf'
p1523
(lp1524
I1
a(dp1525
asS'c:/marmalade/7.10/modules/iwresmanager/h/IwResManagerClass.h'
p1526
(lp1527
I1
ag1512
asS'c:/marmalade/7.10/modules/iwresmanager/h/IwResGroup.h'
p1528
(lp1529
I1
ag1512
asS'c:/marmalade/7.10/modules/iwresmanager/h/IwResHandlerGROUP.h'
p1530
(lp1531
I1
ag1512
assS'iwgx'
p1532
(dp1533
S'c:/marmalade/7.10/modules/iwgx/h/IwGxPrint.h'
p1534
(lp1535
I1
a(dp1536
asS'c:/marmalade/7.10/modules/iwgx/h/IwGxError.h'
p1537
(lp1538
I1
ag1536
asS'c:/marmalade/7.10/modules/iwgx/h/IwGxSurface.h'
p1539
(lp1540
I1
ag1536
asS'c:/marmalade/7.10/modules/iwgx/h/IwGxTransformSW.h'
p1541
(lp1542
I1
ag1536
asS'c:/marmalade/7.10/modules/iwgx/h/IwGxDebug.h'
p1543
(lp1544
I1
ag1536
asS'c:/marmalade/7.10/modules/iwgx/h/IwClip.h'
p1545
(lp1546
I1
ag1536
asS'c:/marmalade/7.10/modules/iwgx/docs/iwgx.config.txt'
p1547
(lp1548
I1
ag1536
asS'c:/marmalade/7.10/modules/iwgx/h/IwColour.h'
p1549
(lp1550
I1
ag1536
asS'c:/marmalade/7.10/modules/iwgx/h/IwGxTypes.h'
p1551
(lp1552
I1
ag1536
asS'c:/marmalade/7.10/modules/iwgx/h/IwGx.h'
p1553
(lp1554
I1
ag1536
asS'c:/marmalade/7.10/modules/iwgx/h/IwDebugPrim.h'
p1555
(lp1556
I1
ag1536
asS'c:/marmalade/7.10/modules/iwgx/h/IwGxMetrics.h'
p1557
(lp1558
I1
ag1536
asS'c:/marmalade/7.10/modules/iwgx/iwgx.mkf'
p1559
(lp1560
I1
a(dp1561
asS'c:/marmalade/7.10/modules/iwgx/h/IwClip.inl'
p1562
(lp1563
I1
ag1536
asS'c:/marmalade/7.10/modules/iwgx/h/IwMatAnim.h'
p1564
(lp1565
I1
ag1536
asS'c:/marmalade/7.10/modules/iwgx/h/IwGxState.h'
p1566
(lp1567
I1
ag1536
asS'c:/marmalade/7.10/modules/iwgx/h/IwTexture.h'
p1568
(lp1569
I1
ag1536
asS'c:/marmalade/7.10/modules/iwgx/h/IwGxStream.h'
p1570
(lp1571
I1
ag1536
asS'c:/marmalade/7.10/modules/iwgx/h/IwTPage.h'
p1572
(lp1573
I1
ag1536
asS'c:/marmalade/7.10/modules/iwgx/h/IwResHandlerMTL.h'
p1574
(lp1575
I1
ag1536
asS'c:/marmalade/7.10/modules/iwgx/h/IwMaterial.h'
p1576
(lp1577
I1
ag1536
asS'c:/marmalade/7.10/modules/iwgx/h/IwGxFuncTable.h'
p1578
(lp1579
I1
ag1536
asS'c:/marmalade/7.10/modules/iwgx/h/IwFColour.h'
p1580
(lp1581
I1
ag1536
asS'c:/marmalade/7.10/modules/iwgx/docs/iwgx_public.defines.txt'
p1582
(lp1583
I1
ag1536
asS'c:/marmalade/7.10/modules/iwgx/h/IwGxShaderTechnique.h'
p1584
(lp1585
I1
ag1536
assS'iwutil'
p1586
(dp1587
S'c:/marmalade/7.10/modules/iwutil/h/IwDivTable.h'
p1588
(lp1589
I1
a(dp1590
asS'c:/marmalade/7.10/modules/iwutil/h/IwPath.h'
p1591
(lp1592
I1
ag1590
asS'c:/marmalade/7.10/modules/iwutil/h/IwFile.h'
p1593
(lp1594
I1
ag1590
asS'c:/marmalade/7.10/modules/iwutil/h/IwImage.h'
p1595
(lp1596
I1
ag1590
asS'c:/marmalade/7.10/modules/iwutil/h/IwMenu.h'
p1597
(lp1598
I1
ag1590
asS'c:/marmalade/7.10/modules/iwutil/h/IwArray.h'
p1599
(lp1600
I1
ag1590
asS'c:/marmalade/7.10/modules/iwutil/h/IwMemBucketHelpers.h'
p1601
(lp1602
I1
ag1590
asS'c:/marmalade/7.10/modules/iwutil/h/IwClassFactory.h'
p1603
(lp1604
I1
ag1590
asS'c:/marmalade/7.10/modules/iwutil/iwutil.mkf'
p1605
(lp1606
I1
a(dp1607
asS'c:/marmalade/7.10/modules/iwutil/h/IwDivide.h'
p1608
(lp1609
I1
ag1590
asS'c:/marmalade/7.10/modules/iwutil/h/IwMemory.h'
p1610
(lp1611
I1
ag1590
asS'c:/marmalade/7.10/modules/iwutil/h/IwManagedList.h'
p1612
(lp1613
I1
ag1590
asS'c:/marmalade/7.10/modules/iwutil/h/IwUtil.h'
p1614
(lp1615
I1
ag1590
asS'c:/marmalade/7.10/modules/iwutil/h/IwFibre.h'
p1616
(lp1617
I1
ag1590
asS'c:/marmalade/7.10/modules/iwutil/h/IwBuffer.h'
p1618
(lp1619
I1
ag1590
asS'c:/marmalade/7.10/modules/iwutil/h/IwHashString.h'
p1620
(lp1621
I1
ag1590
asS'c:/marmalade/7.10/modules/iwutil/h/IwSingleton.h'
p1622
(lp1623
I1
ag1590
asS'c:/marmalade/7.10/modules/iwutil/h/IwSerialise.h'
p1624
(lp1625
I1
ag1590
asS'c:/marmalade/7.10/modules/iwutil/h/IwMath.h'
p1626
(lp1627
I1
ag1590
asS'c:/marmalade/7.10/modules/iwutil/h/IwTypes.h'
p1628
(lp1629
I1
ag1590
asS'c:/marmalade/7.10/modules/iwutil/h/IwTextParser.h'
p1630
(lp1631
I1
ag1590
asS'c:/marmalade/7.10/modules/iwutil/h/IwOptimiseSpeed.h'
p1632
(lp1633
I1
ag1590
asS'c:/marmalade/7.10/modules/iwutil/h/IwKeymap.h'
p1634
(lp1635
I1
ag1590
asS'c:/marmalade/7.10/modules/iwutil/h/IwCore.h'
p1636
(lp1637
I1
ag1590
asS'c:/marmalade/7.10/modules/iwutil/h/IwAllocator.h'
p1638
(lp1639
I1
ag1590
asS'c:/marmalade/7.10/modules/iwutil/h/IwChar.h'
p1640
(lp1641
I1
ag1590
asS'c:/marmalade/7.10/modules/iwutil/h/IwOptimiseThumb.h'
p1642
(lp1643
I1
ag1590
asS'c:/marmalade/7.10/modules/iwutil/h/IwAutoFile.h'
p1644
(lp1645
I1
ag1590
asS'c:/marmalade/7.10/modules/iwutil/h/IwManaged.h'
p1646
(lp1647
I1
ag1590
asS'c:/marmalade/7.10/modules/iwutil/h/IwOptimiseARM.h'
p1648
(lp1649
I1
ag1590
asS'c:/marmalade/7.10/modules/iwutil/h/IwTextParserITX.h'
p1650
(lp1651
I1
ag1590
asS'c:/marmalade/7.10/modules/iwutil/h/IwList.h'
p1652
(lp1653
I1
ag1590
asS'c:/marmalade/7.10/modules/iwutil/h/IwUncopyable.h'
p1654
(lp1655
I1
ag1590
asS'c:/marmalade/7.10/modules/iwutil/h/IwRandom.h'
p1656
(lp1657
I1
ag1590
asS'c:/marmalade/7.10/modules/iwutil/h/IwProfileMenu.h'
p1658
(lp1659
I1
ag1590
asS'c:/marmalade/7.10/modules/iwutil/h/IwDebug.h'
p1660
(lp1661
I1
ag1590
asS'c:/marmalade/7.10/modules/iwutil/h/IwTextParseable.h'
p1662
(lp1663
I1
ag1590
asS'c:/marmalade/7.10/modules/iwutil/h/IwResource.h'
p1664
(lp1665
I1
ag1590
asS'c:/marmalade/7.10/modules/iwutil/h/IwOptimiseSize.h'
p1666
(lp1667
I1
ag1590
asS'c:/marmalade/7.10/modules/iwutil/h/IwVariableBitField.h'
p1668
(lp1669
I1
ag1590
asS'c:/marmalade/7.10/modules/iwutil/h/IwCopyingPtr.h'
p1670
(lp1671
I1
ag1590
asS'c:/marmalade/7.10/modules/iwutil/docs/iwutil.config.txt'
p1672
(lp1673
I1
ag1590
asS'c:/marmalade/7.10/modules/iwutil/h/IwUtilInitTerm.h'
p1674
(lp1675
I1
ag1590
asS'c:/marmalade/7.10/modules/iwutil/h/IwEvent.h'
p1676
(lp1677
I1
ag1590
asS'c:/marmalade/7.10/modules/iwutil/h/IwRuntime.h'
p1678
(lp1679
I1
ag1590
asS'c:/marmalade/7.10/modules/iwutil/h/IwUTF8.h'
p1680
(lp1681
I1
ag1590
asS'c:/marmalade/7.10/modules/iwutil/h/IwImageHelper.h'
p1682
(lp1683
I1
ag1590
asS'c:/marmalade/7.10/modules/iwutil/h/IwMemManagerDL.h'
p1684
(lp1685
I1
ag1590
asS'c:/marmalade/7.10/modules/iwutil/h/IwMemBucket.h'
p1686
(lp1687
I1
ag1590
asS'c:/marmalade/7.10/modules/iwutil/h/IwString.h'
p1688
(lp1689
I1
ag1590
asssS'(zlib)'
p1690
(dp1691
g1249
(dp1692
S'c:/marmalade/7.10/modules/third_party/zlib/h/zconf.h'
p1693
(lp1694
I1
a(dp1695
asS'c:/marmalade/7.10/modules/third_party/zlib/h/zlib.h'
p1696
(lp1697
I1
ag1695
assS'c:/marmalade/7.10/modules/third_party/zlib/zlib.mkf'
p1698
(lp1699
I1
a(dp1700
assS'(libjpeg)'
p1701
(dp1702
g1249
(dp1703
S'c:/marmalade/7.10/modules/third_party/libjpeg/h/jpeglib.h'
p1704
(lp1705
I1
a(dp1706
asS'c:/marmalade/7.10/modules/third_party/libjpeg/h/jdhuff.h'
p1707
(lp1708
I1
ag1706
asS'c:/marmalade/7.10/modules/third_party/libjpeg/h/transupp.h'
p1709
(lp1710
I1
ag1706
asS'c:/marmalade/7.10/modules/third_party/libjpeg/h/cdjpeg.h'
p1711
(lp1712
I1
ag1706
asS'c:/marmalade/7.10/modules/third_party/libjpeg/h/jerror.h'
p1713
(lp1714
I1
ag1706
asS'c:/marmalade/7.10/modules/third_party/libjpeg/h/jconfig.h'
p1715
(lp1716
I1
ag1706
asS'c:/marmalade/7.10/modules/third_party/libjpeg/h/jmorecfg.h'
p1717
(lp1718
I1
ag1706
asS'c:/marmalade/7.10/modules/third_party/libjpeg/h/jdct.h'
p1719
(lp1720
I1
ag1706
asS'c:/marmalade/7.10/modules/third_party/libjpeg/h/cderror.h'
p1721
(lp1722
I1
ag1706
asS'c:/marmalade/7.10/modules/third_party/libjpeg/h/jmemsys.h'
p1723
(lp1724
I1
ag1706
asS'c:/marmalade/7.10/modules/third_party/libjpeg/h/jchuff.h'
p1725
(lp1726
I1
ag1706
asS'c:/marmalade/7.10/modules/third_party/libjpeg/h/jpegint.h'
p1727
(lp1728
I1
ag1706
asS'c:/marmalade/7.10/modules/third_party/libjpeg/h/jinclude.h'
p1729
(lp1730
I1
ag1706
asS'c:/marmalade/7.10/modules/third_party/libjpeg/h/jversion.h'
p1731
(lp1732
I1
ag1706
assS'c:/marmalade/7.10/modules/third_party/libjpeg/libjpeg.mkf'
p1733
(lp1734
I1
a(dp1735
asssS'files'
p1736
(dp1737
S'IwGxFontPreparedData.h'
p1738
g360
(cmkb_main
File
p1739
g362
Ntp1740
Rp1741
(dp1742
S'flags'
p1743
g1414
sS'group'
p1744
(lp1745
S"'Marmalade Studio'"
p1746
ag1410
asg387
g1415
sbsS'iterator'
p1747
g360
(g1739
g362
Ntp1748
Rp1749
(dp1750
g1743
(dp1751
sg1744
(lp1752
S"'Marmalade System (S3E)'"
p1753
aS'stdc headers'
p1754
aS'c++'
p1755
asg387
S'c:/marmalade/7.10/s3e/h/std/c++/iterator'
p1756
sbsS'IwGL.h'
p1757
g360
(g1739
g362
Ntp1758
Rp1759
(dp1760
g1743
g1393
sg1744
(lp1761
S"'Marmalade Studio'"
p1762
ag1386
asg387
g1391
sbsS's3e.h'
p1763
g360
(g1739
g362
Ntp1764
Rp1765
(dp1766
g1743
g1751
sg1744
(lp1767
g1753
asg387
S'c:/marmalade/7.10/s3e/h/s3e.h'
p1768
sbsS'errno.h'
p1769
g360
(g1739
g362
Ntp1770
Rp1771
(dp1772
g1743
g1751
sg1744
(lp1773
g1753
aS'stdc headers'
p1774
asg387
S'c:/marmalade/7.10/s3e/h/std/errno.h'
p1775
sbsS'IwSingleton.h'
p1776
g360
(g1739
g362
Ntp1777
Rp1778
(dp1779
g1743
g1590
sg1744
(lp1780
S"'Marmalade Studio'"
p1781
ag1586
asg387
g1622
sbsS'dlfcn.h'
p1782
g360
(g1739
g362
Ntp1783
Rp1784
(dp1785
g1743
g1751
sg1744
g1773
sg387
S'c:/marmalade/7.10/s3e/h/std/dlfcn.h'
p1786
sbsS'IwSoundWAV.cpp'
p1787
g360
(g1739
g362
Ntp1788
Rp1789
(dp1790
g1743
g1283
sg1744
(lp1791
g1279
asg387
g1300
sbsS'sched.h'
p1792
g360
(g1739
g362
Ntp1793
Rp1794
(dp1795
g1743
g1751
sg1744
g1773
sg387
S'c:/marmalade/7.10/s3e/h/std/sched.h'
p1796
sbsS'IwSoundPCM.h'
p1797
g360
(g1739
g362
Ntp1798
Rp1799
(dp1800
g1743
g1283
sg1744
g1791
sg387
g1286
sbsS'IwGeomFMat2D.h'
p1801
g360
(g1739
g362
Ntp1802
Rp1803
(dp1804
g1743
g1436
sg1744
(lp1805
S"'Marmalade Studio'"
p1806
ag1432
asg387
g1486
sbsS'cassert'
p1807
g360
(g1739
g362
Ntp1808
Rp1809
(dp1810
g1743
g1751
sg1744
g1752
sg387
S'c:/marmalade/7.10/s3e/h/std/c++/cassert'
p1811
sbsS'grp.h'
p1812
g360
(g1739
g362
Ntp1813
Rp1814
(dp1815
g1743
g1751
sg1744
g1773
sg387
S'c:/marmalade/7.10/s3e/h/std/grp.h'
p1816
sbsS'list'
p1817
g360
(g1739
g362
Ntp1818
Rp1819
(dp1820
g1743
g1751
sg1744
g1752
sg387
S'c:/marmalade/7.10/s3e/h/std/c++/list'
p1821
sbsS'IwSoundSpec.cpp'
p1822
g360
(g1739
g362
Ntp1823
Rp1824
(dp1825
g1743
g1283
sg1744
g1791
sg387
g1327
sbsS'IwGeomMat.h.tpl'
p1826
g360
(g1739
g362
Ntp1827
Rp1828
(dp1829
g1743
g1436
sg1744
g1805
sg387
g1466
sbsS'istream'
p1830
g360
(g1739
g362
Ntp1831
Rp1832
(dp1833
g1743
g1751
sg1744
g1752
sg387
S'c:/marmalade/7.10/s3e/h/std/c++/istream'
p1834
sbsS'jpeglib.h'
p1835
g360
(g1739
g362
Ntp1836
Rp1837
(dp1838
g1743
g1706
sg1744
(lp1839
g1701
ag1249
asg387
g1704
sbsS'iw2d_public.defines.txt'
p1840
g360
(g1739
g362
Ntp1841
Rp1842
(dp1843
g1743
g1405
sg1744
(lp1844
S"'Marmalade Studio'"
p1845
ag1398
asg387
g1403
sbsS'iostream.h'
p1846
g360
(g1739
g362
Ntp1847
Rp1848
(dp1849
g1743
g1751
sg1744
g1752
sg387
S'c:/marmalade/7.10/s3e/h/std/c++/iostream.h'
p1850
sbsS'IwSoundADPCM.h'
p1851
g360
(g1739
g362
Ntp1852
Rp1853
(dp1854
g1743
g1283
sg1744
g1791
sg387
g1306
sbsS'string'
p1855
g360
(g1739
g362
Ntp1856
Rp1857
(dp1858
g1743
g1751
sg1744
g1752
sg387
S'c:/marmalade/7.10/s3e/h/std/c++/string'
p1859
sbsS'IwMemory.h'
p1860
g360
(g1739
g362
Ntp1861
Rp1862
(dp1863
g1743
g1590
sg1744
g1780
sg387
g1610
sbsS'IwGeomPlane.h'
p1864
g360
(g1739
g362
Ntp1865
Rp1866
(dp1867
g1743
g1436
sg1744
g1805
sg387
g1456
sbsS'iw2d.config.txt'
p1868
g360
(g1739
g362
Ntp1869
Rp1870
(dp1871
g1743
g1405
sg1744
g1844
sg387
g1408
sbsS'iomanip'
p1872
g360
(g1739
g362
Ntp1873
Rp1874
(dp1875
g1743
g1751
sg1744
g1752
sg387
S'c:/marmalade/7.10/s3e/h/std/c++/iomanip'
p1876
sbsS'iwgeom.mkf'
p1877
g360
(g1739
g362
Ntp1878
Rp1879
(dp1880
g1743
g1451
sg1744
g1805
sg387
g1449
sbsS'IwGxError.h'
p1881
g360
(g1739
g362
Ntp1882
Rp1883
(dp1884
g1743
g1536
sg1744
(lp1885
S"'Marmalade Studio'"
p1886
ag1532
asg387
g1537
sbsS'IwGeom.h'
p1887
g360
(g1739
g362
Ntp1888
Rp1889
(dp1890
g1743
g1436
sg1744
g1805
sg387
g1462
sbsS'IwGeomVec4.h'
p1891
g360
(g1739
g362
Ntp1892
Rp1893
(dp1894
g1743
g1436
sg1744
g1805
sg387
g1460
sbsS'dir.h'
p1895
g360
(g1739
g362
Ntp1896
Rp1897
(dp1898
g1743
g1751
sg1744
(lp1899
g1753
aS'stdc headers'
p1900
aS'sys'
p1901
asg387
S'c:/marmalade/7.10/s3e/h/std/sys/dir.h'
p1902
sbsS'locale.h'
p1903
g360
(g1739
g362
Ntp1904
Rp1905
(dp1906
g1743
g1751
sg1744
g1773
sg387
S'c:/marmalade/7.10/s3e/h/std/locale.h'
p1907
sbsS'vector'
p1908
g360
(g1739
g362
Ntp1909
Rp1910
(dp1911
g1743
g1751
sg1744
g1752
sg387
S'c:/marmalade/7.10/s3e/h/std/c++/vector'
p1912
sbsS'IwManaged.h'
p1913
g360
(g1739
g362
Ntp1914
Rp1915
(dp1916
g1743
g1590
sg1744
g1780
sg387
g1646
sbsS's3eCompass.h'
p1917
g360
(g1739
g362
Ntp1918
Rp1919
(dp1920
g1743
g1751
sg1744
g1767
sg387
S'c:/marmalade/7.10/s3e/h/s3eCompass.h'
p1921
sbsS'cderror.h'
p1922
g360
(g1739
g362
Ntp1923
Rp1924
(dp1925
g1743
g1706
sg1744
g1839
sg387
g1721
sbsS'climits'
p1926
g360
(g1739
g362
Ntp1927
Rp1928
(dp1929
g1743
g1751
sg1744
g1752
sg387
S'c:/marmalade/7.10/s3e/h/std/c++/climits'
p1930
sbsS'ipc.h'
p1931
g360
(g1739
g362
Ntp1932
Rp1933
(dp1934
g1743
g1751
sg1744
g1899
sg387
S'c:/marmalade/7.10/s3e/h/std/sys/ipc.h'
p1935
sbsS'jversion.h'
p1936
g360
(g1739
g362
Ntp1937
Rp1938
(dp1939
g1743
g1706
sg1744
g1839
sg387
g1731
sbsS'fnmatch.h'
p1940
g360
(g1739
g362
Ntp1941
Rp1942
(dp1943
g1743
g1751
sg1744
g1773
sg387
S'c:/marmalade/7.10/s3e/h/std/fnmatch.h'
p1944
sbsS'IwGxState.h'
p1945
g360
(g1739
g362
Ntp1946
Rp1947
(dp1948
g1743
g1536
sg1744
g1885
sg387
g1566
sbsS's3eAudio.h'
p1949
g360
(g1739
g362
Ntp1950
Rp1951
(dp1952
g1743
g1751
sg1744
g1767
sg387
S'c:/marmalade/7.10/s3e/h/s3eAudio.h'
p1953
sbsS's3eSurface.h'
p1954
g360
(g1739
g362
Ntp1955
Rp1956
(dp1957
g1743
g1751
sg1744
g1767
sg387
S'c:/marmalade/7.10/s3e/h/s3eSurface.h'
p1958
sbsS'new'
p1959
g360
(g1739
g362
Ntp1960
Rp1961
(dp1962
g1743
g1751
sg1744
g1752
sg387
S'c:/marmalade/7.10/s3e/h/std/c++/new'
p1963
sbsS's3eWindow.h'
p1964
g360
(g1739
g362
Ntp1965
Rp1966
(dp1967
g1743
g1751
sg1744
(lp1968
g1753
aS'Extensions'
p1969
asg387
S'c:/marmalade/7.10/s3e/h/ext/s3eWindow.h'
p1970
sbsS'IwBuffer.h'
p1971
g360
(g1739
g362
Ntp1972
Rp1973
(dp1974
g1743
g1590
sg1744
g1780
sg387
g1618
sbsS'stdio_streambuf'
p1975
g360
(g1739
g362
Ntp1976
Rp1977
(dp1978
g1743
g1751
sg1744
g1752
sg387
S'c:/marmalade/7.10/s3e/h/std/c++/stdio_streambuf'
p1979
sbsS'IwGeomQuat.h.tpl'
p1980
g360
(g1739
g362
Ntp1981
Rp1982
(dp1983
g1743
g1436
sg1744
g1805
sg387
g1441
sbsS's3eOSExec.h'
p1984
g360
(g1739
g362
Ntp1985
Rp1986
(dp1987
g1743
g1751
sg1744
g1968
sg387
S'c:/marmalade/7.10/s3e/h/ext/s3eOSExec.h'
p1988
sbsS'IwGxTransformSW.h'
p1989
g360
(g1739
g362
Ntp1990
Rp1991
(dp1992
g1743
g1536
sg1744
g1885
sg387
g1541
sbsS'IwGxMetrics.h'
p1993
g360
(g1739
g362
Ntp1994
Rp1995
(dp1996
g1743
g1536
sg1744
g1885
sg387
g1557
sbsS'iwgxfont.config.txt'
p1997
g360
(g1739
g362
Ntp1998
Rp1999
(dp2000
g1743
g1414
sg1744
g1745
sg387
g1420
sbsS'gl2platform.h'
p2001
g360
(g1739
g362
Ntp2002
Rp2003
(dp2004
g1743
g1751
sg1744
(lp2005
g1753
aS'GL'
p2006
aS'GLES 2.0'
p2007
asg387
S'c:/marmalade/7.10/s3e/h/GLES2/gl2platform.h'
p2008
sbsS'IwResManagerClass.h'
p2009
g360
(g1739
g362
Ntp2010
Rp2011
(dp2012
g1743
g1512
sg1744
(lp2013
g1384
ag1508
asg387
g1526
sbsS'queue'
p2014
g360
(g1739
g362
Ntp2015
Rp2016
(dp2017
g1743
g1751
sg1744
g1752
sg387
S'c:/marmalade/7.10/s3e/h/std/c++/queue'
p2018
sbsS'time_1.h'
p2019
g360
(g1739
g362
Ntp2020
Rp2021
(dp2022
g1743
g1751
sg1744
g1899
sg387
S'c:/marmalade/7.10/s3e/h/std/sys/time.h'
p2023
sbsS'Iw2D.h'
p2024
g360
(g1739
g362
Ntp2025
Rp2026
(dp2027
g1743
g1405
sg1744
g1844
sg387
g1406
sbsS'IwGeomVec2.h'
p2028
g360
(g1739
g362
Ntp2029
Rp2030
(dp2031
g1743
g1436
sg1744
g1805
sg387
g1474
sbsS's3eDevice.h'
p2032
g360
(g1739
g362
Ntp2033
Rp2034
(dp2035
g1743
g1751
sg1744
g1767
sg387
S'c:/marmalade/7.10/s3e/h/s3eDevice.h'
p2036
sbsS'malloc.h'
p2037
g360
(g1739
g362
Ntp2038
Rp2039
(dp2040
g1743
g1751
sg1744
g1773
sg387
S'c:/marmalade/7.10/s3e/h/std/malloc.h'
p2041
sbsS'stdarg.h'
p2042
g360
(g1739
g362
Ntp2043
Rp2044
(dp2045
g1743
g1751
sg1744
g1773
sg387
S'c:/marmalade/7.10/s3e/h/std/stdarg.h'
p2046
sbsS'IwGeomCore.h'
p2047
g360
(g1739
g362
Ntp2048
Rp2049
(dp2050
g1743
g1436
sg1744
g1805
sg387
g1496
sbsS'endian.h'
p2051
g360
(g1739
g362
Ntp2052
Rp2053
(dp2054
g1743
g1751
sg1744
g1773
sg387
S'c:/marmalade/7.10/s3e/h/std/endian.h'
p2055
sbsS'gl3ext.h'
p2056
g360
(g1739
g362
Ntp2057
Rp2058
(dp2059
g1743
g1751
sg1744
(lp2060
g1753
aS'GL'
p2061
aS'GLES 3.0'
p2062
asg387
S'c:/marmalade/7.10/s3e/h/GLES3/gl3ext.h'
p2063
sbsS'glob.h'
p2064
g360
(g1739
g362
Ntp2065
Rp2066
(dp2067
g1743
g1751
sg1744
g1773
sg387
S'c:/marmalade/7.10/s3e/h/std/glob.h'
p2068
sbsS'fstream'
p2069
g360
(g1739
g362
Ntp2070
Rp2071
(dp2072
g1743
g1751
sg1744
g1752
sg387
S'c:/marmalade/7.10/s3e/h/std/c++/fstream'
p2073
sbsS's3eCamera.h'
p2074
g360
(g1739
g362
Ntp2075
Rp2076
(dp2077
g1743
g1751
sg1744
g1767
sg387
S'c:/marmalade/7.10/s3e/h/s3eCamera.h'
p2078
sbsS'jconfig.h'
p2079
g360
(g1739
g362
Ntp2080
Rp2081
(dp2082
g1743
g1706
sg1744
g1839
sg387
g1715
sbsS'memory'
p2083
g360
(g1739
g362
Ntp2084
Rp2085
(dp2086
g1743
g1751
sg1744
g1752
sg387
S'c:/marmalade/7.10/s3e/h/std/c++/memory'
p2087
sbsS'egl.h'
p2088
g360
(g1739
g362
Ntp2089
Rp2090
(dp2091
g1743
g1751
sg1744
(lp2092
g1753
aS'GL'
p2093
aS'EGL'
p2094
asg387
S'c:/marmalade/7.10/s3e/h/EGL/egl.h'
p2095
sbsS'IwClip.inl'
p2096
g360
(g1739
g362
Ntp2097
Rp2098
(dp2099
g1743
g1536
sg1744
g1885
sg387
g1562
sbsS'IwMemManagerDL.h'
p2100
g360
(g1739
g362
Ntp2101
Rp2102
(dp2103
g1743
g1590
sg1744
g1780
sg387
g1684
sbsS'deque'
p2104
g360
(g1739
g362
Ntp2105
Rp2106
(dp2107
g1743
g1751
sg1744
g1752
sg387
S'c:/marmalade/7.10/s3e/h/std/c++/deque'
p2108
sbsS'IwString.h'
p2109
g360
(g1739
g362
Ntp2110
Rp2111
(dp2112
g1743
g1590
sg1744
g1780
sg387
g1688
sbsS'cwchar'
p2113
g360
(g1739
g362
Ntp2114
Rp2115
(dp2116
g1743
g1751
sg1744
g1752
sg387
S'c:/marmalade/7.10/s3e/h/std/c++/cwchar'
p2117
sbsS'iwutil.mkf'
p2118
g360
(g1739
g362
Ntp2119
Rp2120
(dp2121
g1743
g1607
sg1744
g1780
sg387
g1605
sbsS'csignal'
p2122
g360
(g1739
g362
Ntp2123
Rp2124
(dp2125
g1743
g1751
sg1744
g1752
sg387
S'c:/marmalade/7.10/s3e/h/std/c++/csignal'
p2126
sbsS'pthread_types.h'
p2127
g360
(g1739
g362
Ntp2128
Rp2129
(dp2130
g1743
g1751
sg1744
g1773
sg387
S'c:/marmalade/7.10/s3e/h/std/pthread_types.h'
p2131
sbsS'pthread_alloc'
p2132
g360
(g1739
g362
Ntp2133
Rp2134
(dp2135
g1743
g1751
sg1744
g1752
sg387
S'c:/marmalade/7.10/s3e/h/std/c++/pthread_alloc'
p2136
sbsS'getopt.h'
p2137
g360
(g1739
g362
Ntp2138
Rp2139
(dp2140
g1743
g1751
sg1744
g1773
sg387
S'c:/marmalade/7.10/s3e/h/std/getopt.h'
p2141
sbsS'IwOptimiseARM.h'
p2142
g360
(g1739
g362
Ntp2143
Rp2144
(dp2145
g1743
g1590
sg1744
g1780
sg387
g1648
sbsS'times.h'
p2146
g360
(g1739
g362
Ntp2147
Rp2148
(dp2149
g1743
g1751
sg1744
g1899
sg387
S'c:/marmalade/7.10/s3e/h/std/sys/times.h'
p2150
sbsS'IwGeomFSphere.h'
p2151
g360
(g1739
g362
Ntp2152
Rp2153
(dp2154
g1743
g1436
sg1744
g1805
sg387
g1452
sbsS'amazon-ads-android-sdk.mkf'
p2155
g360
(g1739
g362
Ntp2156
Rp2157
(dp2158
g1743
g1263
sg1744
(lp2159
g1259
asg387
g1261
sbsS'IwTypes.h'
p2160
g360
(g1739
g362
Ntp2161
Rp2162
(dp2163
g1743
g1590
sg1744
g1780
sg387
g1628
sbsS'unistd.h'
p2164
g360
(g1739
g362
Ntp2165
Rp2166
(dp2167
g1743
g1751
sg1744
g1773
sg387
S'c:/marmalade/7.10/s3e/h/std/unistd.h'
p2168
sbsS'audio.cpp'
p2169
g360
(g1739
g362
Ntp2170
Rp2171
(dp2172
g1743
g1340
sg1744
(lp2173
g1336
asg387
g1347
sbsS's3eCompression.h'
p2174
g360
(g1739
g362
Ntp2175
Rp2176
(dp2177
g1743
g1751
sg1744
g1767
sg387
S'c:/marmalade/7.10/s3e/h/s3eCompression.h'
p2178
sbsS'langinfo.h'
p2179
g360
(g1739
g362
Ntp2180
Rp2181
(dp2182
g1743
g1751
sg1744
g1773
sg387
S'c:/marmalade/7.10/s3e/h/std/langinfo.h'
p2183
sbsS's3edebugHeap.h'
p2184
g360
(g1739
g362
Ntp2185
Rp2186
(dp2187
g1743
g1751
sg1744
g1968
sg387
S'c:/marmalade/7.10/s3e/h/ext/s3edebugHeap.h'
p2188
sbsS'AirplayVersion.h'
p2189
g360
(g1739
g362
Ntp2190
Rp2191
(dp2192
g1743
g1751
sg1744
g1767
sg387
S'c:/marmalade/7.10/s3e/h/AirplayVersion.h'
p2193
sbsS'gl2extimg.h'
p2194
g360
(g1739
g362
Ntp2195
Rp2196
(dp2197
g1743
g1751
sg1744
g2005
sg387
S'c:/marmalade/7.10/s3e/h/GLES2/gl2extimg.h'
p2198
sbsS'app.config.txt'
p2199
g360
(g1739
g362
Ntp2200
Rp2201
(dp2202
g1743
(dp2203
sg1744
g4
sg387
S'd:/Marmalade/Stage1/data/app.config.txt'
p2204
sbsS'IwGeomSqrt.h'
p2205
g360
(g1739
g362
Ntp2206
Rp2207
(dp2208
g1743
g1436
sg1744
g1805
sg387
g1506
sbsS'tiniconv_int.h'
p2209
g360
(g1739
g362
Ntp2210
Rp2211
(dp2212
g1743
g1268
sg1744
(lp2213
g1264
asg387
g1269
sbsS'syslog.h'
p2214
g360
(g1739
g362
Ntp2215
Rp2216
(dp2217
g1743
g1751
sg1744
g1773
sg387
S'c:/marmalade/7.10/s3e/h/std/syslog.h'
p2218
sbsS'IwGxFontTypes.h'
p2219
g360
(g1739
g362
Ntp2220
Rp2221
(dp2222
g1743
g1414
sg1744
g1745
sg387
g1430
sbsS'IwGeomFIntersect.h'
p2223
g360
(g1739
g362
Ntp2224
Rp2225
(dp2226
g1743
g1436
sg1744
g1805
sg387
g1476
sbsS'hash_map'
p2227
g360
(g1739
g362
Ntp2228
Rp2229
(dp2230
g1743
g1751
sg1744
g1752
sg387
S'c:/marmalade/7.10/s3e/h/std/c++/hash_map'
p2231
sbsS's3e.mkf'
p2232
g360
(g1739
g362
Ntp2233
Rp2234
(dp2235
g1743
(dp2236
sg1744
g1767
sg387
S'c:/marmalade/7.10/s3e/s3e.mkf'
p2237
sbsS'IwGeomMat2D.h.tpl'
p2238
g360
(g1739
g362
Ntp2239
Rp2240
(dp2241
g1743
g1436
sg1744
g1805
sg387
g1437
sbsS's3eOSReadString.h'
p2242
g360
(g1739
g362
Ntp2243
Rp2244
(dp2245
g1743
g1751
sg1744
g1968
sg387
S'c:/marmalade/7.10/s3e/h/ext/s3eOSReadString.h'
p2246
sbsS'IwSound.h'
p2247
g360
(g1739
g362
Ntp2248
Rp2249
(dp2250
g1743
g1283
sg1744
g1791
sg387
g1298
sbsS'map'
p2251
g360
(g1739
g362
Ntp2252
Rp2253
(dp2254
g1743
g1751
sg1744
g1752
sg387
S'c:/marmalade/7.10/s3e/h/std/c++/map'
p2255
sbsS'IwOptimiseSpeed.h'
p2256
g360
(g1739
g362
Ntp2257
Rp2258
(dp2259
g1743
g1590
sg1744
g1780
sg387
g1632
sbsS'ostream'
p2260
g360
(g1739
g362
Ntp2261
Rp2262
(dp2263
g1743
g1751
sg1744
g1752
sg387
S'c:/marmalade/7.10/s3e/h/std/c++/ostream'
p2264
sbsS'msl_string.h'
p2265
g360
(g1739
g362
Ntp2266
Rp2267
(dp2268
g1743
g1751
sg1744
g1752
sg387
S'c:/marmalade/7.10/s3e/h/std/c++/msl_string.h'
p2269
sbsS'select.h'
p2270
g360
(g1739
g362
Ntp2271
Rp2272
(dp2273
g1743
g1751
sg1744
g1899
sg387
S'c:/marmalade/7.10/s3e/h/std/sys/select.h'
p2274
sbsS'zlib.mkf'
p2275
g360
(g1739
g362
Ntp2276
Rp2277
(dp2278
g1743
g1700
sg1744
(lp2279
g1690
asg387
g1698
sbsS'signal.h'
p2280
g360
(g1739
g362
Ntp2281
Rp2282
(dp2283
g1743
g1751
sg1744
g1773
sg387
S'c:/marmalade/7.10/s3e/h/std/signal.h'
p2284
sbsS'sigcontext.h'
p2285
g360
(g1739
g362
Ntp2286
Rp2287
(dp2288
g1743
g1751
sg1744
g1773
sg387
S'c:/marmalade/7.10/s3e/h/std/sigcontext.h'
p2289
sbsS'libpng.mkf'
p2290
g360
(g1739
g362
Ntp2291
Rp2292
(dp2293
g1743
g1258
sg1744
(lp2294
g1247
asg387
g1256
sbsS's3eClipboard.h'
p2295
g360
(g1739
g362
Ntp2296
Rp2297
(dp2298
g1743
g1751
sg1744
g1767
sg387
S'c:/marmalade/7.10/s3e/h/s3eClipboard.h'
p2299
sbsS'IwGxFuncTable.h'
p2300
g360
(g1739
g362
Ntp2301
Rp2302
(dp2303
g1743
g1536
sg1744
g1885
sg387
g1578
sbsS'IwResHandlerGROUP.h'
p2304
g360
(g1739
g362
Ntp2305
Rp2306
(dp2307
g1743
g1512
sg1744
g2013
sg387
g1530
sbsS's3eDebug.h'
p2308
g360
(g1739
g362
Ntp2309
Rp2310
(dp2311
g1743
g1751
sg1744
g1767
sg387
S'c:/marmalade/7.10/s3e/h/s3eDebug.h'
p2312
sbsS'socket.h'
p2313
g360
(g1739
g362
Ntp2314
Rp2315
(dp2316
g1743
g1751
sg1744
g1899
sg387
S'c:/marmalade/7.10/s3e/h/std/sys/socket.h'
p2317
sbsS'glext.h'
p2318
g360
(g1739
g362
Ntp2319
Rp2320
(dp2321
g1743
g1751
sg1744
(lp2322
g1753
aS'GL'
p2323
aS'GLES 1.x'
p2324
asg387
S'c:/marmalade/7.10/s3e/h/GLES/glext.h'
p2325
sbsS'typeinfo.h'
p2326
g360
(g1739
g362
Ntp2327
Rp2328
(dp2329
g1743
g1751
sg1744
g1752
sg387
S'c:/marmalade/7.10/s3e/h/std/c++/typeinfo.h'
p2330
sbsS'typeinfo'
p2331
g360
(g1739
g362
Ntp2332
Rp2333
(dp2334
g1743
g1751
sg1744
g1752
sg387
S'c:/marmalade/7.10/s3e/h/std/c++/typeinfo'
p2335
sbsS'iwsound.config.txt'
p2336
g360
(g1739
g362
Ntp2337
Rp2338
(dp2339
g1743
g1283
sg1744
(lp2340
g1279
ag1294
asg387
g1296
sbsS'fstream.h'
p2341
g360
(g1739
g362
Ntp2342
Rp2343
(dp2344
g1743
g1751
sg1744
g1752
sg387
S'c:/marmalade/7.10/s3e/h/std/c++/fstream.h'
p2345
sbsS's3ePointer.h'
p2346
g360
(g1739
g362
Ntp2347
Rp2348
(dp2349
g1743
g1751
sg1744
g1767
sg387
S'c:/marmalade/7.10/s3e/h/s3ePointer.h'
p2350
sbsS'IwMemBucket.h'
p2351
g360
(g1739
g362
Ntp2352
Rp2353
(dp2354
g1743
g1590
sg1744
g1780
sg387
g1686
sbsS'PVRTexTool.h'
p2355
g360
(g1739
g362
Ntp2356
Rp2357
(dp2358
g1743
g1371
sg1744
(lp2359
S'Extensions'
p2360
ag1365
asg387
g1374
sbsS's3eGL.h'
p2361
g360
(g1739
g362
Ntp2362
Rp2363
(dp2364
g1743
g1751
sg1744
g1767
sg387
S'c:/marmalade/7.10/s3e/h/s3eGL.h'
p2365
sbsS'IwGeomFVec2.h'
p2366
g360
(g1739
g362
Ntp2367
Rp2368
(dp2369
g1743
g1436
sg1744
g1805
sg387
g1492
sbsS'IwGeomSVec4.h'
p2370
g360
(g1739
g362
Ntp2371
Rp2372
(dp2373
g1743
g1436
sg1744
g1805
sg387
g1454
sbsS'poll.h'
p2374
g360
(g1739
g362
Ntp2375
Rp2376
(dp2377
g1743
g1751
sg1744
g1773
sg387
S'c:/marmalade/7.10/s3e/h/std/poll.h'
p2378
sbsS'IwMatAnim.h'
p2379
g360
(g1739
g362
Ntp2380
Rp2381
(dp2382
g1743
g1536
sg1744
g1885
sg387
g1564
sbsS'IwGeomFVec4.h'
p2383
g360
(g1739
g362
Ntp2384
Rp2385
(dp2386
g1743
g1436
sg1744
g1805
sg387
g1504
sbsS'IwGx.h'
p2387
g360
(g1739
g362
Ntp2388
Rp2389
(dp2390
g1743
g1536
sg1744
g1885
sg387
g1553
sbsS'valarray'
p2391
g360
(g1739
g362
Ntp2392
Rp2393
(dp2394
g1743
g1751
sg1744
g1752
sg387
S'c:/marmalade/7.10/s3e/h/std/c++/valarray'
p2395
sbsS'iosfwd'
p2396
g360
(g1739
g362
Ntp2397
Rp2398
(dp2399
g1743
g1751
sg1744
g1752
sg387
S'c:/marmalade/7.10/s3e/h/std/c++/iosfwd'
p2400
sbsS'gl2.h'
p2401
g360
(g1739
g362
Ntp2402
Rp2403
(dp2404
g1743
g1751
sg1744
g2005
sg387
S'c:/marmalade/7.10/s3e/h/GLES2/gl2.h'
p2405
sbsS'jpegint.h'
p2406
g360
(g1739
g362
Ntp2407
Rp2408
(dp2409
g1743
g1706
sg1744
g1839
sg387
g1727
sbsS'stdiostream.h'
p2410
g360
(g1739
g362
Ntp2411
Rp2412
(dp2413
g1743
g1751
sg1744
g1752
sg387
S'c:/marmalade/7.10/s3e/h/std/c++/stdiostream.h'
p2414
sbsS'mem.h'
p2415
g360
(g1739
g362
Ntp2416
Rp2417
(dp2418
g1743
g1751
sg1744
g1752
sg387
S'c:/marmalade/7.10/s3e/h/std/c++/mem.h'
p2419
sbsS'jerror.h'
p2420
g360
(g1739
g362
Ntp2421
Rp2422
(dp2423
g1743
g1706
sg1744
g1839
sg387
g1713
sbsS'zconf.h'
p2424
g360
(g1739
g362
Ntp2425
Rp2426
(dp2427
g1743
g1695
sg1744
(lp2428
g1690
ag1249
asg387
g1693
sbsS's3e.config.txt'
p2429
g360
(g1739
g362
Ntp2430
Rp2431
(dp2432
g1743
g1751
sg1744
g1767
sg387
S'c:/marmalade/7.10/s3e/s3e.config.txt'
p2433
sbsS'numeric'
p2434
g360
(g1739
g362
Ntp2435
Rp2436
(dp2437
g1743
g1751
sg1744
g1752
sg387
S'c:/marmalade/7.10/s3e/h/std/c++/numeric'
p2438
sbsS'utime.h'
p2439
g360
(g1739
g362
Ntp2440
Rp2441
(dp2442
g1743
g1751
sg1744
g1773
sg387
S'c:/marmalade/7.10/s3e/h/std/utime.h'
p2443
sbsS'jdhuff.h'
p2444
g360
(g1739
g362
Ntp2445
Rp2446
(dp2447
g1743
g1706
sg1744
g1839
sg387
g1707
sbsS'IwResHandlerWAV.cpp'
p2448
g360
(g1739
g362
Ntp2449
Rp2450
(dp2451
g1743
g1283
sg1744
g1791
sg387
g1310
sbsS'IwGxStream.h'
p2452
g360
(g1739
g362
Ntp2453
Rp2454
(dp2455
g1743
g1536
sg1744
g1885
sg387
g1570
sbsS'IwImage.h'
p2456
g360
(g1739
g362
Ntp2457
Rp2458
(dp2459
g1743
g1590
sg1744
g1780
sg387
g1595
sbsS's3eImagePicker.h'
p2460
g360
(g1739
g362
Ntp2461
Rp2462
(dp2463
g1743
g1751
sg1744
g1968
sg387
S'c:/marmalade/7.10/s3e/h/ext/s3eImagePicker.h'
p2464
sbsS'stdlib.h'
p2465
g360
(g1739
g362
Ntp2466
Rp2467
(dp2468
g1743
g1751
sg1744
g1773
sg387
S'c:/marmalade/7.10/s3e/h/std/stdlib.h'
p2469
sbsS'IwCopyingPtr.h'
p2470
g360
(g1739
g362
Ntp2471
Rp2472
(dp2473
g1743
g1590
sg1744
g1780
sg387
g1670
sbsS'iostream'
p2474
g360
(g1739
g362
Ntp2475
Rp2476
(dp2477
g1743
g1751
sg1744
g1752
sg387
S'c:/marmalade/7.10/s3e/h/std/c++/iostream'
p2478
sbsS'png.h'
p2479
g360
(g1739
g362
Ntp2480
Rp2481
(dp2482
g1743
g1253
sg1744
(lp2483
g1247
ag1249
asg387
g1251
sbsS'stddef.h'
p2484
g360
(g1739
g362
Ntp2485
Rp2486
(dp2487
g1743
g1751
sg1744
g1773
sg387
S'c:/marmalade/7.10/s3e/h/std/stddef.h'
p2488
sbsS'setjmp_win32.h'
p2489
g360
(g1739
g362
Ntp2490
Rp2491
(dp2492
g1743
g1751
sg1744
g1773
sg387
S'c:/marmalade/7.10/s3e/h/std/setjmp_win32.h'
p2493
sbsS'IwGxPrint.h'
p2494
g360
(g1739
g362
Ntp2495
Rp2496
(dp2497
g1743
g1536
sg1744
g1885
sg387
g1534
sbsS'iwgx_public.defines.txt'
p2498
g360
(g1739
g362
Ntp2499
Rp2500
(dp2501
g1743
g1536
sg1744
g1885
sg387
g1582
sbsS'streambuf.h'
p2502
g360
(g1739
g362
Ntp2503
Rp2504
(dp2505
g1743
g1751
sg1744
g1752
sg387
S'c:/marmalade/7.10/s3e/h/std/c++/streambuf.h'
p2506
sbsS'IwGeomFPlane.h'
p2507
g360
(g1739
g362
Ntp2508
Rp2509
(dp2510
g1743
g1436
sg1744
g1805
sg387
g1478
sbsS'wchar.h'
p2511
g360
(g1739
g362
Ntp2512
Rp2513
(dp2514
g1743
g1751
sg1744
g1773
sg387
S'c:/marmalade/7.10/s3e/h/std/wchar.h'
p2515
sbsS's3eCameraCapture.h'
p2516
g360
(g1739
g362
Ntp2517
Rp2518
(dp2519
g1743
g1751
sg1744
g1968
sg387
S'c:/marmalade/7.10/s3e/h/ext/s3eCameraCapture.h'
p2520
sbsS'eglext.h'
p2521
g360
(g1739
g362
Ntp2522
Rp2523
(dp2524
g1743
g1751
sg1744
g2092
sg387
S'c:/marmalade/7.10/s3e/h/EGL/eglext.h'
p2525
sbsS'IwResHandlerImage.h'
p2526
g360
(g1739
g362
Ntp2527
Rp2528
(dp2529
g1743
g1512
sg1744
g2013
sg387
g1515
sbsS'strstream.h'
p2530
g360
(g1739
g362
Ntp2531
Rp2532
(dp2533
g1743
g1751
sg1744
g1752
sg387
S'c:/marmalade/7.10/s3e/h/std/c++/strstream.h'
p2534
sbsS'tiniconv.h'
p2535
g360
(g1739
g362
Ntp2536
Rp2537
(dp2538
g1743
g1268
sg1744
g2213
sg387
g1266
sbsS'IwGLExt.h'
p2539
g360
(g1739
g362
Ntp2540
Rp2541
(dp2542
g1743
g1393
sg1744
g1761
sg387
g1396
sbsS'app.icf'
p2543
g360
(g1739
g362
Ntp2544
Rp2545
(dp2546
g1743
(dp2547
sg1744
g4
sg387
S'd:/Marmalade/Stage1/data/app.icf'
p2548
sbsS'IwClassFactory.h'
p2549
g360
(g1739
g362
Ntp2550
Rp2551
(dp2552
g1743
g1590
sg1744
g1780
sg387
g1603
sbsS'file.h'
p2553
g360
(g1739
g362
Ntp2554
Rp2555
(dp2556
g1743
g1751
sg1744
g1899
sg387
S'c:/marmalade/7.10/s3e/h/std/sys/file.h'
p2557
sbsS'cstring'
p2558
g360
(g1739
g362
Ntp2559
Rp2560
(dp2561
g1743
g1751
sg1744
g1752
sg387
S'c:/marmalade/7.10/s3e/h/std/c++/cstring'
p2562
sbsS'IwSoundInst.cpp'
p2563
g360
(g1739
g362
Ntp2564
Rp2565
(dp2566
g1743
g1283
sg1744
g1791
sg387
g1312
sbsS'iwutil.config.txt'
p2567
g360
(g1739
g362
Ntp2568
Rp2569
(dp2570
g1743
g1590
sg1744
g1780
sg387
g1672
sbsS's3eSMS.h'
p2571
g360
(g1739
g362
Ntp2572
Rp2573
(dp2574
g1743
g1751
sg1744
g1968
sg387
S'c:/marmalade/7.10/s3e/h/ext/s3eSMS.h'
p2575
sbsS'limits.h'
p2576
g360
(g1739
g362
Ntp2577
Rp2578
(dp2579
g1743
g1751
sg1744
g1773
sg387
S'c:/marmalade/7.10/s3e/h/std/limits.h'
p2580
sbsS'iwgl.config.txt'
p2581
g360
(g1739
g362
Ntp2582
Rp2583
(dp2584
g1743
g1393
sg1744
g1761
sg387
g1394
sbsS'IwMaterial.h'
p2585
g360
(g1739
g362
Ntp2586
Rp2587
(dp2588
g1743
g1536
sg1744
g1885
sg387
g1576
sbsS'amazon-ads-ios-sdk.mkf'
p2589
g360
(g1739
g362
Ntp2590
Rp2591
(dp2592
g1743
g1278
sg1744
(lp2593
g1274
asg387
g1276
sbsS'PVRTexTool_interface.cpp'
p2594
g360
(g1739
g362
Ntp2595
Rp2596
(dp2597
g1743
g1371
sg1744
(lp2598
g2360
ag1365
ag1367
asg387
g1369
sbsS'IwGxSurface.h'
p2599
g360
(g1739
g362
Ntp2600
Rp2601
(dp2602
g1743
g1536
sg1744
g1885
sg387
g1539
sbsS's3eSocket.h'
p2603
g360
(g1739
g362
Ntp2604
Rp2605
(dp2606
g1743
g1751
sg1744
g1767
sg387
S'c:/marmalade/7.10/s3e/h/s3eSocket.h'
p2607
sbsS'IwAutoFile.h'
p2608
g360
(g1739
g362
Ntp2609
Rp2610
(dp2611
g1743
g1590
sg1744
g1780
sg387
g1644
sbsS's3eVibra.h'
p2612
g360
(g1739
g362
Ntp2613
Rp2614
(dp2615
g1743
g1751
sg1744
g1767
sg387
S'c:/marmalade/7.10/s3e/h/s3eVibra.h'
p2616
sbsS'poll_1.h'
p2617
g360
(g1739
g362
Ntp2618
Rp2619
(dp2620
g1743
g1751
sg1744
g1899
sg387
S'c:/marmalade/7.10/s3e/h/std/sys/poll.h'
p2621
sbsS's3eThread.h'
p2622
g360
(g1739
g362
Ntp2623
Rp2624
(dp2625
g1743
g1751
sg1744
g1767
sg387
S'c:/marmalade/7.10/s3e/h/s3eThread.h'
p2626
sbsS'ucontext.h'
p2627
g360
(g1739
g362
Ntp2628
Rp2629
(dp2630
g1743
g1751
sg1744
g1773
sg387
S'c:/marmalade/7.10/s3e/h/std/ucontext.h'
p2631
sbsS'time.h'
p2632
g360
(g1739
g362
Ntp2633
Rp2634
(dp2635
g1743
g1751
sg1744
g1773
sg387
S'c:/marmalade/7.10/s3e/h/std/time.h'
p2636
sbsS'jchuff.h'
p2637
g360
(g1739
g362
Ntp2638
Rp2639
(dp2640
g1743
g1706
sg1744
g1839
sg387
g1725
sbsS'IwSoundPCM.cpp'
p2641
g360
(g1739
g362
Ntp2642
Rp2643
(dp2644
g1743
g1283
sg1744
g1791
sg387
g1284
sbsS's3eSoundRecord.h'
p2645
g360
(g1739
g362
Ntp2646
Rp2647
(dp2648
g1743
g1751
sg1744
g1767
sg387
S'c:/marmalade/7.10/s3e/h/s3eSoundRecord.h'
p2649
sbsS'IwFibre.h'
p2650
g360
(g1739
g362
Ntp2651
Rp2652
(dp2653
g1743
g1590
sg1744
g1780
sg387
g1616
sbsS's3eVersion.h'
p2654
g360
(g1739
g362
Ntp2655
Rp2656
(dp2657
g1743
g1751
sg1744
g1767
sg387
S'c:/marmalade/7.10/s3e/h/s3eVersion.h'
p2658
sbsS'input.cpp'
p2659
g360
(g1739
g362
Ntp2660
Rp2661
(dp2662
g1743
g1340
sg1744
g2173
sg387
g1345
sbsS'IwSoundGroup.h'
p2663
g360
(g1739
g362
Ntp2664
Rp2665
(dp2666
g1743
g1283
sg1744
g1791
sg387
g1329
sbsS'IwSoundWAV.h'
p2667
g360
(g1739
g362
Ntp2668
Rp2669
(dp2670
g1743
g1283
sg1744
g1791
sg387
g1308
sbsS'IwGxFontGlyph.h'
p2671
g360
(g1739
g362
Ntp2672
Rp2673
(dp2674
g1743
g1414
sg1744
g1745
sg387
g1428
sbsS's3eTypes.h'
p2675
g360
(g1739
g362
Ntp2676
Rp2677
(dp2678
g1743
g1751
sg1744
g1767
sg387
S'c:/marmalade/7.10/s3e/h/s3eTypes.h'
p2679
sbsS'IwSoundSpec.h'
p2680
g360
(g1739
g362
Ntp2681
Rp2682
(dp2683
g1743
g1283
sg1744
g1791
sg387
g1288
sbsS'signal_2.h'
p2684
g360
(g1739
g362
Ntp2685
Rp2686
(dp2687
g1743
g1751
sg1744
g1752
sg387
S'c:/marmalade/7.10/s3e/h/std/c++/signal.h'
p2688
sbsS'termios.h'
p2689
g360
(g1739
g362
Ntp2690
Rp2691
(dp2692
g1743
g1751
sg1744
g1773
sg387
S'c:/marmalade/7.10/s3e/h/std/termios.h'
p2693
sbsS's3eAmazonAds_interface.cpp'
p2694
g360
(g1739
g362
Ntp2695
Rp2696
(dp2697
g1743
g1357
sg1744
(lp2698
g1349
ag1351
ag1353
asg387
g1358
sbsS'slist'
p2699
g360
(g1739
g362
Ntp2700
Rp2701
(dp2702
g1743
g1751
sg1744
g1752
sg387
S'c:/marmalade/7.10/s3e/h/std/c++/slist'
p2703
sbsS'cstdlib'
p2704
g360
(g1739
g362
Ntp2705
Rp2706
(dp2707
g1743
g1751
sg1744
g1752
sg387
S'c:/marmalade/7.10/s3e/h/std/c++/cstdlib'
p2708
sbsS's3eLocation.h'
p2709
g360
(g1739
g362
Ntp2710
Rp2711
(dp2712
g1743
g1751
sg1744
g1767
sg387
S'c:/marmalade/7.10/s3e/h/s3eLocation.h'
p2713
sbsS'IwMemBucketHelpers.h'
p2714
g360
(g1739
g362
Ntp2715
Rp2716
(dp2717
g1743
g1590
sg1744
g1780
sg387
g1601
sbsS's3eHash.h'
p2718
g360
(g1739
g362
Ntp2719
Rp2720
(dp2721
g1743
g1751
sg1744
g1767
sg387
S'c:/marmalade/7.10/s3e/h/s3eHash.h'
p2722
sbsS'IwSoundGroup.cpp'
p2723
g360
(g1739
g362
Ntp2724
Rp2725
(dp2726
g1743
g1283
sg1744
g1791
sg387
g1322
sbsS'IwGeomFMat.h'
p2727
g360
(g1739
g362
Ntp2728
Rp2729
(dp2730
g1743
g1436
sg1744
g1805
sg387
g1494
sbsS'type_traits.h'
p2731
g360
(g1739
g362
Ntp2732
Rp2733
(dp2734
g1743
g1751
sg1744
g1752
sg387
S'c:/marmalade/7.10/s3e/h/std/c++/type_traits.h'
p2735
sbsS's3eAtomic.h'
p2736
g360
(g1739
g362
Ntp2737
Rp2738
(dp2739
g1743
g1751
sg1744
g1767
sg387
S'c:/marmalade/7.10/s3e/h/s3eAtomic.h'
p2740
sbsS'IwMenu.h'
p2741
g360
(g1739
g362
Ntp2742
Rp2743
(dp2744
g1743
g1590
sg1744
g1780
sg387
g1597
sbsS'IwResHandlerITX.h'
p2745
g360
(g1739
g362
Ntp2746
Rp2747
(dp2748
g1743
g1512
sg1744
g2013
sg387
g1517
sbsS'IwSoundData.h'
p2749
g360
(g1739
g362
Ntp2750
Rp2751
(dp2752
g1743
g1283
sg1744
g1791
sg387
g1318
sbsS'IwArray.h'
p2753
g360
(g1739
g362
Ntp2754
Rp2755
(dp2756
g1743
g1590
sg1744
g1780
sg387
g1599
sbsS'IwUTF8.h'
p2757
g360
(g1739
g362
Ntp2758
Rp2759
(dp2760
g1743
g1590
sg1744
g1780
sg387
g1680
sbsS'math_rvct.h'
p2761
g360
(g1739
g362
Ntp2762
Rp2763
(dp2764
g1743
g1751
sg1744
g1773
sg387
S'c:/marmalade/7.10/s3e/h/std/math_rvct.h'
p2765
sbsS'IwUtil.h'
p2766
g360
(g1739
g362
Ntp2767
Rp2768
(dp2769
g1743
g1590
sg1744
g1780
sg387
g1614
sbsS'IwFColour.h'
p2770
g360
(g1739
g362
Ntp2771
Rp2772
(dp2773
g1743
g1536
sg1744
g1885
sg387
g1580
sbsS's3eamazonads.mkf'
p2774
g360
(g1739
g362
Ntp2775
Rp2776
(dp2777
g1743
g1362
sg1744
(lp2778
g1349
ag1351
asg387
g1360
sbsS'wctype.h'
p2779
g360
(g1739
g362
Ntp2780
Rp2781
(dp2782
g1743
g1751
sg1744
g1773
sg387
S'c:/marmalade/7.10/s3e/h/std/wctype.h'
p2783
sbsS'cstddef'
p2784
g360
(g1739
g362
Ntp2785
Rp2786
(dp2787
g1743
g1751
sg1744
g1752
sg387
S'c:/marmalade/7.10/s3e/h/std/c++/cstddef'
p2788
sbsS'assert.h'
p2789
g360
(g1739
g362
Ntp2790
Rp2791
(dp2792
g1743
g1751
sg1744
g1773
sg387
S'c:/marmalade/7.10/s3e/h/std/assert.h'
p2793
sbsS'mman.h'
p2794
g360
(g1739
g362
Ntp2795
Rp2796
(dp2797
g1743
g1751
sg1744
g1899
sg387
S'c:/marmalade/7.10/s3e/h/std/sys/mman.h'
p2798
sbsS'IwRandom.h'
p2799
g360
(g1739
g362
Ntp2800
Rp2801
(dp2802
g1743
g1590
sg1744
g1780
sg387
g1656
sbsS'libgen.h'
p2803
g360
(g1739
g362
Ntp2804
Rp2805
(dp2806
g1743
g1751
sg1744
g1773
sg387
S'c:/marmalade/7.10/s3e/h/std/libgen.h'
p2807
sbsS'utsname.h'
p2808
g360
(g1739
g362
Ntp2809
Rp2810
(dp2811
g1743
g1751
sg1744
g1899
sg387
S'c:/marmalade/7.10/s3e/h/std/sys/utsname.h'
p2812
sbsS'wait.h'
p2813
g360
(g1739
g362
Ntp2814
Rp2815
(dp2816
g1743
g1751
sg1744
g1899
sg387
S'c:/marmalade/7.10/s3e/h/std/sys/wait.h'
p2817
sbsS'param.h'
p2818
g360
(g1739
g362
Ntp2819
Rp2820
(dp2821
g1743
g1751
sg1744
g1899
sg387
S'c:/marmalade/7.10/s3e/h/std/sys/param.h'
p2822
sbsS'IwDivide.h'
p2823
g360
(g1739
g362
Ntp2824
Rp2825
(dp2826
g1743
g1590
sg1744
g1780
sg387
g1608
sbsS'IwResManager.h'
p2827
g360
(g1739
g362
Ntp2828
Rp2829
(dp2830
g1743
g1512
sg1744
g2013
sg387
g1519
sbsS'IwSoundManager.h'
p2831
g360
(g1739
g362
Ntp2832
Rp2833
(dp2834
g1743
g1283
sg1744
g1791
sg387
g1292
sbsS'cwctype'
p2835
g360
(g1739
g362
Ntp2836
Rp2837
(dp2838
g1743
g1751
sg1744
g1752
sg387
S'c:/marmalade/7.10/s3e/h/std/c++/cwctype'
p2839
sbsS'set'
p2840
g360
(g1739
g362
Ntp2841
Rp2842
(dp2843
g1743
g1751
sg1744
g1752
sg387
S'c:/marmalade/7.10/s3e/h/std/c++/set'
p2844
sbsS'IwGeomSQuat.h'
p2845
g360
(g1739
g362
Ntp2846
Rp2847
(dp2848
g1743
g1436
sg1744
g1805
sg387
g1480
sbsS'locale'
p2849
g360
(g1739
g362
Ntp2850
Rp2851
(dp2852
g1743
g1751
sg1744
g1752
sg387
S'c:/marmalade/7.10/s3e/h/std/c++/locale'
p2853
sbsS'cstdio'
p2854
g360
(g1739
g362
Ntp2855
Rp2856
(dp2857
g1743
g1751
sg1744
g1752
sg387
S'c:/marmalade/7.10/s3e/h/std/c++/cstdio'
p2858
sbsS'cdjpeg.h'
p2859
g360
(g1739
g362
Ntp2860
Rp2861
(dp2862
g1743
g1706
sg1744
g1839
sg387
g1711
sbsS'audio.h'
p2863
g360
(g1739
g362
Ntp2864
Rp2865
(dp2866
g1743
g1340
sg1744
g2173
sg387
g1341
sbsS'IwList.h'
p2867
g360
(g1739
g362
Ntp2868
Rp2869
(dp2870
g1743
g1590
sg1744
g1780
sg387
g1652
sbsS'inttypes.h'
p2871
g360
(g1739
g362
Ntp2872
Rp2873
(dp2874
g1743
g1751
sg1744
g1773
sg387
S'c:/marmalade/7.10/s3e/h/std/inttypes.h'
p2875
sbsS'dirent.h'
p2876
g360
(g1739
g362
Ntp2877
Rp2878
(dp2879
g1743
g1751
sg1744
g1773
sg387
S'c:/marmalade/7.10/s3e/h/std/dirent.h'
p2880
sbsS'IwGeomVec3.h'
p2881
g360
(g1739
g362
Ntp2882
Rp2883
(dp2884
g1743
g1436
sg1744
g1805
sg387
g1464
sbsS'transupp.h'
p2885
g360
(g1739
g362
Ntp2886
Rp2887
(dp2888
g1743
g1706
sg1744
g1839
sg387
g1709
sbsS'IwMath.h'
p2889
g360
(g1739
g362
Ntp2890
Rp2891
(dp2892
g1743
g1590
sg1744
g1780
sg387
g1626
sbsS'IwGeomQuat.h'
p2893
g360
(g1739
g362
Ntp2894
Rp2895
(dp2896
g1743
g1436
sg1744
g1805
sg387
g1434
sbsS'glplatform.h'
p2897
g360
(g1739
g362
Ntp2898
Rp2899
(dp2900
g1743
g1751
sg1744
g2322
sg387
S'c:/marmalade/7.10/s3e/h/GLES/glplatform.h'
p2901
sbsS's3e-default.mkf'
p2902
g360
(g1739
g362
Ntp2903
Rp2904
(dp2905
g1743
g1383
sg1744
(lp2906
g1379
asg387
g1381
sbsS'bitset'
p2907
g360
(g1739
g362
Ntp2908
Rp2909
(dp2910
g1743
g1751
sg1744
g1752
sg387
S'c:/marmalade/7.10/s3e/h/std/c++/bitset'
p2911
sbsS'alloca.h'
p2912
g360
(g1739
g362
Ntp2913
Rp2914
(dp2915
g1743
g1751
sg1744
g1773
sg387
S'c:/marmalade/7.10/s3e/h/std/alloca.h'
p2916
sbsS'IwResHandler.h'
p2917
g360
(g1739
g362
Ntp2918
Rp2919
(dp2920
g1743
g1512
sg1744
g2013
sg387
g1510
sbsS'IwResHandlerMTL.h'
p2921
g360
(g1739
g362
Ntp2922
Rp2923
(dp2924
g1743
g1536
sg1744
g1885
sg387
g1574
sbsS'IwRuntime.h'
p2925
g360
(g1739
g362
Ntp2926
Rp2927
(dp2928
g1743
g1590
sg1744
g1780
sg387
g1678
sbsS'limits'
p2929
g360
(g1739
g362
Ntp2930
Rp2931
(dp2932
g1743
g1751
sg1744
g1752
sg387
S'c:/marmalade/7.10/s3e/h/std/c++/limits'
p2933
sbsS'IwGeomBBox.h'
p2934
g360
(g1739
g362
Ntp2935
Rp2936
(dp2937
g1743
g1436
sg1744
g1805
sg387
g1484
sbsS's3eContacts.h'
p2938
g360
(g1739
g362
Ntp2939
Rp2940
(dp2941
g1743
g1751
sg1744
g1767
sg387
S'c:/marmalade/7.10/s3e/h/s3eContacts.h'
p2942
sbsS's3eLicense.h'
p2943
g360
(g1739
g362
Ntp2944
Rp2945
(dp2946
g1743
g1751
sg1744
g1767
sg387
S'c:/marmalade/7.10/s3e/h/s3eLicense.h'
p2947
sbsS'iwgx.config.txt'
p2948
g360
(g1739
g362
Ntp2949
Rp2950
(dp2951
g1743
g1536
sg1744
g1885
sg387
g1547
sbsS'IwTextParser.h'
p2952
g360
(g1739
g362
Ntp2953
Rp2954
(dp2955
g1743
g1590
sg1744
g1780
sg387
g1630
sbsS's3eTimer.h'
p2956
g360
(g1739
g362
Ntp2957
Rp2958
(dp2959
g1743
g1751
sg1744
g1767
sg387
S'c:/marmalade/7.10/s3e/h/s3eTimer.h'
p2960
sbsS'IwGeomVec.h'
p2961
g360
(g1739
g362
Ntp2962
Rp2963
(dp2964
g1743
g1436
sg1744
g1805
sg387
g1488
sbsS'IwSerialise.h'
p2965
g360
(g1739
g362
Ntp2966
Rp2967
(dp2968
g1743
g1590
sg1744
g1780
sg387
g1624
sbsS'cstdarg'
p2969
g360
(g1739
g362
Ntp2970
Rp2971
(dp2972
g1743
g1751
sg1744
g1752
sg387
S'c:/marmalade/7.10/s3e/h/std/c++/cstdarg'
p2973
sbsS'gl2ext.h'
p2974
g360
(g1739
g362
Ntp2975
Rp2976
(dp2977
g1743
g1751
sg1744
g2005
sg387
S'c:/marmalade/7.10/s3e/h/GLES2/gl2ext.h'
p2978
sbsS'IwChar.h'
p2979
g360
(g1739
g362
Ntp2980
Rp2981
(dp2982
g1743
g1590
sg1744
g1780
sg387
g1640
sbsS's3eSound.h'
p2983
g360
(g1739
g362
Ntp2984
Rp2985
(dp2986
g1743
g1751
sg1744
g1767
sg387
S'c:/marmalade/7.10/s3e/h/s3eSound.h'
p2987
sbsS'IwOptimiseThumb.h'
p2988
g360
(g1739
g362
Ntp2989
Rp2990
(dp2991
g1743
g1590
sg1744
g1780
sg387
g1642
sbsS'exception.h'
p2992
g360
(g1739
g362
Ntp2993
Rp2994
(dp2995
g1743
g1751
sg1744
g1752
sg387
S'c:/marmalade/7.10/s3e/h/std/c++/exception.h'
p2996
sbsS'iwgeom.config.txt'
p2997
g360
(g1739
g362
Ntp2998
Rp2999
(dp3000
g1743
g1436
sg1744
g1805
sg387
g1445
sbsS'gl31.h'
p3001
g360
(g1739
g362
Ntp3002
Rp3003
(dp3004
g1743
g1751
sg1744
g2060
sg387
S'c:/marmalade/7.10/s3e/h/GLES3/gl31.h'
p3005
sbsS'gl.h'
p3006
g360
(g1739
g362
Ntp3007
Rp3008
(dp3009
g1743
g1751
sg1744
g2322
sg387
S'c:/marmalade/7.10/s3e/h/GLES/gl.h'
p3010
sbsS'zlib.h'
p3011
g360
(g1739
g362
Ntp3012
Rp3013
(dp3014
g1743
g1695
sg1744
g2428
sg387
g1696
sbsS'temp_defines_release.h'
p3015
g360
(g1739
g362
Ntp3016
Rp3017
(dp3018
g1743
(lp3019
sg1744
(lp3020
S"'generated files'"
p3021
asg387
S'd:/Marmalade/Stage1/build_stage1_vc14/temp_defines_release.h'
p3022
sbsS'iwgl.mkf'
p3023
g360
(g1739
g362
Ntp3024
Rp3025
(dp3026
g1743
g1390
sg1744
g1761
sg387
g1388
sbsS'IwColour.h'
p3027
g360
(g1739
g362
Ntp3028
Rp3029
(dp3030
g1743
g1536
sg1744
g1885
sg387
g1549
sbsS's3eLibrary.h'
p3031
g360
(g1739
g362
Ntp3032
Rp3033
(dp3034
g1743
g1751
sg1744
g1968
sg387
S'c:/marmalade/7.10/s3e/h/ext/s3eLibrary.h'
p3035
sbsS'types.h'
p3036
g360
(g1739
g362
Ntp3037
Rp3038
(dp3039
g1743
g1751
sg1744
g1899
sg387
S'c:/marmalade/7.10/s3e/h/std/sys/types.h'
p3040
sbsS'ifaddrs.h'
p3041
g360
(g1739
g362
Ntp3042
Rp3043
(dp3044
g1743
g1751
sg1744
g1773
sg387
S'c:/marmalade/7.10/s3e/h/std/ifaddrs.h'
p3045
sbsS'strstream'
p3046
g360
(g1739
g362
Ntp3047
Rp3048
(dp3049
g1743
g1751
sg1744
g1752
sg387
S'c:/marmalade/7.10/s3e/h/std/c++/strstream'
p3050
sbsS'Stage1.cpp'
p3051
g360
(g1739
g362
Ntp3052
Rp3053
(dp3054
g1743
g1340
sg1744
g2173
sg387
g1343
sbsS'exception'
p3055
g360
(g1739
g362
Ntp3056
Rp3057
(dp3058
g1743
g1751
sg1744
g1752
sg387
S'c:/marmalade/7.10/s3e/h/std/c++/exception'
p3059
sbsS's3eAmazonAds.defines.txt'
p3060
g360
(g1739
g362
Ntp3061
Rp3062
(dp3063
g1743
g1357
sg1744
g2698
sg387
g1355
sbsS'rlocks.h'
p3064
g360
(g1739
g362
Ntp3065
Rp3066
(dp3067
g1743
g1751
sg1744
g1752
sg387
S'c:/marmalade/7.10/s3e/h/std/c++/rlocks.h'
p3068
sbsS'ioctl.h'
p3069
g360
(g1739
g362
Ntp3070
Rp3071
(dp3072
g1743
g1751
sg1744
g1899
sg387
S'c:/marmalade/7.10/s3e/h/std/sys/ioctl.h'
p3073
sbsS'rope'
p3074
g360
(g1739
g362
Ntp3075
Rp3076
(dp3077
g1743
g1751
sg1744
g1752
sg387
S'c:/marmalade/7.10/s3e/h/std/c++/rope'
p3078
sbsS'jinclude.h'
p3079
g360
(g1739
g362
Ntp3080
Rp3081
(dp3082
g1743
g1706
sg1744
g1839
sg387
g1729
sbsS'IwEvent.h'
p3083
g360
(g1739
g362
Ntp3084
Rp3085
(dp3086
g1743
g1590
sg1744
g1780
sg387
g1676
sbsS'IwOptimiseSize.h'
p3087
g360
(g1739
g362
Ntp3088
Rp3089
(dp3090
g1743
g1590
sg1744
g1780
sg387
g1666
sbsS'iwgxfont_public.defines.txt'
p3091
g360
(g1739
g362
Ntp3092
Rp3093
(dp3094
g1743
g1414
sg1744
g1745
sg387
g1424
sbsS'iconv.h'
p3095
g360
(g1739
g362
Ntp3096
Rp3097
(dp3098
g1743
g1751
sg1744
g1773
sg387
S'c:/marmalade/7.10/s3e/h/std/iconv.h'
p3099
sbsS'sendfile.h'
p3100
g360
(g1739
g362
Ntp3101
Rp3102
(dp3103
g1743
g1751
sg1744
g1899
sg387
S'c:/marmalade/7.10/s3e/h/std/sys/sendfile.h'
p3104
sbsS'IwGeomSphere.h'
p3105
g360
(g1739
g362
Ntp3106
Rp3107
(dp3108
g1743
g1436
sg1744
g1805
sg387
g1470
sbsS'tiniconv.mkf'
p3109
g360
(g1739
g362
Ntp3110
Rp3111
(dp3112
g1743
g1273
sg1744
g2213
sg387
g1271
sbsS'jdct.h'
p3113
g360
(g1739
g362
Ntp3114
Rp3115
(dp3116
g1743
g1706
sg1744
g1839
sg387
g1719
sbsS'cctype'
p3117
g360
(g1739
g362
Ntp3118
Rp3119
(dp3120
g1743
g1751
sg1744
g1752
sg387
S'c:/marmalade/7.10/s3e/h/std/c++/cctype'
p3121
sbsS'IwSoundADPCM.cpp'
p3122
g360
(g1739
g362
Ntp3123
Rp3124
(dp3125
g1743
g1283
sg1744
g1791
sg387
g1304
sbsS's3eConfig.h'
p3126
g360
(g1739
g362
Ntp3127
Rp3128
(dp3129
g1743
g1751
sg1744
g1767
sg387
S'c:/marmalade/7.10/s3e/h/s3eConfig.h'
p3130
sbsS'IwHashString.h'
p3131
g360
(g1739
g362
Ntp3132
Rp3133
(dp3134
g1743
g1590
sg1744
g1780
sg387
g1620
sbsS'stat.h'
p3135
g360
(g1739
g362
Ntp3136
Rp3137
(dp3138
g1743
g1751
sg1744
g1899
sg387
S'c:/marmalade/7.10/s3e/h/std/sys/stat.h'
p3139
sbsS'byteswap.h'
p3140
g360
(g1739
g362
Ntp3141
Rp3142
(dp3143
g1743
g1751
sg1744
g1773
sg387
S'c:/marmalade/7.10/s3e/h/std/byteswap.h'
p3144
sbsS'iwresmanager.mkf'
p3145
g360
(g1739
g362
Ntp3146
Rp3147
(dp3148
g1743
g1525
sg1744
g2013
sg387
g1523
sbsS'IwUtilInitTerm.h'
p3149
g360
(g1739
g362
Ntp3150
Rp3151
(dp3152
g1743
g1590
sg1744
g1780
sg387
g1674
sbsS'pthread_1.h'
p3153
g360
(g1739
g362
Ntp3154
Rp3155
(dp3156
g1743
g1751
sg1744
g1752
sg387
S'c:/marmalade/7.10/s3e/h/std/c++/pthread.h'
p3157
sbsS'iw2d.mkf'
p3158
g360
(g1739
g362
Ntp3159
Rp3160
(dp3161
g1743
g1402
sg1744
g1844
sg387
g1400
sbsS'complex'
p3162
g360
(g1739
g362
Ntp3163
Rp3164
(dp3165
g1743
g1751
sg1744
g1752
sg387
S'c:/marmalade/7.10/s3e/h/std/c++/complex'
p3166
sbsS'algorithm'
p3167
g360
(g1739
g362
Ntp3168
Rp3169
(dp3170
g1743
g1751
sg1744
g1752
sg387
S'c:/marmalade/7.10/s3e/h/std/c++/algorithm'
p3171
sbsS's3e.icf'
p3172
g360
(g1739
g362
Ntp3173
Rp3174
(dp3175
g1743
g1751
sg1744
g1767
sg387
S'c:/marmalade/7.10/s3e/s3e.icf'
p3176
sbsS'IwVariableBitField.h'
p3177
g360
(g1739
g362
Ntp3178
Rp3179
(dp3180
g1743
g1590
sg1744
g1780
sg387
g1668
sbsS'sem.h'
p3181
g360
(g1739
g362
Ntp3182
Rp3183
(dp3184
g1743
g1751
sg1744
g1899
sg387
S'c:/marmalade/7.10/s3e/h/std/sys/sem.h'
p3185
sbsS'IwGxFontState.h'
p3186
g360
(g1739
g362
Ntp3187
Rp3188
(dp3189
g1743
g1414
sg1744
g1745
sg387
g1422
sbsS'marmaladeexampleresources.mkf'
p3190
g360
(g1739
g362
Ntp3191
Rp3192
(dp3193
g1743
g1335
sg1744
(lp3194
g1331
asg387
g1333
sbsS'stdio.h'
p3195
g360
(g1739
g362
Ntp3196
Rp3197
(dp3198
g1743
g1751
sg1744
g1773
sg387
S'c:/marmalade/7.10/s3e/h/std/stdio.h'
p3199
sbsS'jmemsys.h'
p3200
g360
(g1739
g362
Ntp3201
Rp3202
(dp3203
g1743
g1706
sg1744
g1839
sg387
g1723
sbsS'ios'
p3204
g360
(g1739
g362
Ntp3205
Rp3206
(dp3207
g1743
g1751
sg1744
g1752
sg387
S'c:/marmalade/7.10/s3e/h/std/c++/ios'
p3208
sbsS'PVRTexTool.defines.txt'
p3209
g360
(g1739
g362
Ntp3210
Rp3211
(dp3212
g1743
g1371
sg1744
g2598
sg387
g1372
sbsS'stack'
p3213
g360
(g1739
g362
Ntp3214
Rp3215
(dp3216
g1743
g1751
sg1744
g1752
sg387
S'c:/marmalade/7.10/s3e/h/std/c++/stack'
p3217
sbsS'IwSoundParams.h'
p3218
g360
(g1739
g362
Ntp3219
Rp3220
(dp3221
g1743
g1283
sg1744
g1791
sg387
g1302
sbsS'new.h'
p3222
g360
(g1739
g362
Ntp3223
Rp3224
(dp3225
g1743
g1751
sg1744
g1752
sg387
S'c:/marmalade/7.10/s3e/h/std/c++/new.h'
p3226
sbsS's3eAmazonAds.h'
p3227
g360
(g1739
g362
Ntp3228
Rp3229
(dp3230
g1743
g1357
sg1744
g2778
sg387
g1363
sbsS's3eEMail.h'
p3231
g360
(g1739
g362
Ntp3232
Rp3233
(dp3234
g1743
g1751
sg1744
g1968
sg387
S'c:/marmalade/7.10/s3e/h/ext/s3eEMail.h'
p3235
sbsS's3eVideo.h'
p3236
g360
(g1739
g362
Ntp3237
Rp3238
(dp3239
g1743
g1751
sg1744
g1767
sg387
S'c:/marmalade/7.10/s3e/h/s3eVideo.h'
p3240
sbsS'pngconf.h'
p3241
g360
(g1739
g362
Ntp3242
Rp3243
(dp3244
g1743
g1253
sg1744
g2483
sg387
g1254
sbsS'pwd.h'
p3245
g360
(g1739
g362
Ntp3246
Rp3247
(dp3248
g1743
g1751
sg1744
g1773
sg387
S'c:/marmalade/7.10/s3e/h/std/pwd.h'
p3249
sbsS'gl3.h'
p3250
g360
(g1739
g362
Ntp3251
Rp3252
(dp3253
g1743
g1751
sg1744
g2060
sg387
S'c:/marmalade/7.10/s3e/h/GLES3/gl3.h'
p3254
sbsS'IwClip.h'
p3255
g360
(g1739
g362
Ntp3256
Rp3257
(dp3258
g1743
g1536
sg1744
g1885
sg387
g1545
sbsS'IwSoundInst.h'
p3259
g360
(g1739
g362
Ntp3260
Rp3261
(dp3262
g1743
g1283
sg1744
g1791
sg387
g1281
sbsS'iwresmanager.config.txt'
p3263
g360
(g1739
g362
Ntp3264
Rp3265
(dp3266
g1743
g1512
sg1744
g2013
sg387
g1513
sbsS'IwGxShaderTechnique.h'
p3267
g360
(g1739
g362
Ntp3268
Rp3269
(dp3270
g1743
g1536
sg1744
g1885
sg387
g1584
sbsS'IwCore.h'
p3271
g360
(g1739
g362
Ntp3272
Rp3273
(dp3274
g1743
g1590
sg1744
g1780
sg387
g1636
sbsS'cfloat'
p3275
g360
(g1739
g362
Ntp3276
Rp3277
(dp3278
g1743
g1751
sg1744
g1752
sg387
S'c:/marmalade/7.10/s3e/h/std/c++/cfloat'
p3279
sbsS'IwGeomMat2D.h'
p3280
g360
(g1739
g362
Ntp3281
Rp3282
(dp3283
g1743
g1436
sg1744
g1805
sg387
g1500
sbsS'IwAllocator.h'
p3284
g360
(g1739
g362
Ntp3285
Rp3286
(dp3287
g1743
g1590
sg1744
g1780
sg387
g1638
sbsS'IwPath.h'
p3288
g360
(g1739
g362
Ntp3289
Rp3290
(dp3291
g1743
g1590
sg1744
g1780
sg387
g1591
sbsS'iwgxfont.mkf'
p3292
g360
(g1739
g362
Ntp3293
Rp3294
(dp3295
g1743
g1419
sg1744
g1745
sg387
g1417
sbsS'IwTexture.h'
p3296
g360
(g1739
g362
Ntp3297
Rp3298
(dp3299
g1743
g1536
sg1744
g1885
sg387
g1568
sbsS'IwGeomVec.h.tpl'
p3300
g360
(g1739
g362
Ntp3301
Rp3302
(dp3303
g1743
g1436
sg1744
g1805
sg387
g1443
sbsS's3eAccelerometer.h'
p3304
g360
(g1739
g362
Ntp3305
Rp3306
(dp3307
g1743
g1751
sg1744
g1767
sg387
S'c:/marmalade/7.10/s3e/h/s3eAccelerometer.h'
p3308
sbsS'setjmp.h'
p3309
g360
(g1739
g362
Ntp3310
Rp3311
(dp3312
g1743
g1751
sg1744
g1773
sg387
S'c:/marmalade/7.10/s3e/h/std/setjmp.h'
p3313
sbsS'IwSoundParams.cpp'
p3314
g360
(g1739
g362
Ntp3315
Rp3316
(dp3317
g1743
g1283
sg1744
g1791
sg387
g1320
sbsS'IwFile.h'
p3318
g360
(g1739
g362
Ntp3319
Rp3320
(dp3321
g1743
g1590
sg1744
g1780
sg387
g1593
sbsS'IwTextParseable.h'
p3322
g360
(g1739
g362
Ntp3323
Rp3324
(dp3325
g1743
g1590
sg1744
g1780
sg387
g1662
sbsS'istream.h'
p3326
g360
(g1739
g362
Ntp3327
Rp3328
(dp3329
g1743
g1751
sg1744
g1752
sg387
S'c:/marmalade/7.10/s3e/h/std/c++/istream.h'
p3330
sbsS'stdint.h'
p3331
g360
(g1739
g362
Ntp3332
Rp3333
(dp3334
g1743
g1751
sg1744
g1773
sg387
S'c:/marmalade/7.10/s3e/h/std/stdint.h'
p3335
sbsS'semaphore.h'
p3336
g360
(g1739
g362
Ntp3337
Rp3338
(dp3339
g1743
g1751
sg1744
g1773
sg387
S'c:/marmalade/7.10/s3e/h/std/semaphore.h'
p3340
sbsS'ctime'
p3341
g360
(g1739
g362
Ntp3342
Rp3343
(dp3344
g1743
g1751
sg1744
g1752
sg387
S'c:/marmalade/7.10/s3e/h/std/c++/ctime'
p3345
sbsS'sstream'
p3346
g360
(g1739
g362
Ntp3347
Rp3348
(dp3349
g1743
g1751
sg1744
g1752
sg387
S'c:/marmalade/7.10/s3e/h/std/c++/sstream'
p3350
sbsS'IwGeomFBBox.h'
p3351
g360
(g1739
g362
Ntp3352
Rp3353
(dp3354
g1743
g1436
sg1744
g1805
sg387
g1447
sbsS'IwDebugPrim.h'
p3355
g360
(g1739
g362
Ntp3356
Rp3357
(dp3358
g1743
g1536
sg1744
g1885
sg387
g1555
sbsS'IwGxFontContainer.h'
p3359
g360
(g1739
g362
Ntp3360
Rp3361
(dp3362
g1743
g1414
sg1744
g1745
sg387
g1426
sbsS'IwGeomSVec3.h'
p3363
g360
(g1739
g362
Ntp3364
Rp3365
(dp3366
g1743
g1436
sg1744
g1805
sg387
g1458
sbsS's3eExt.h'
p3367
g360
(g1739
g362
Ntp3368
Rp3369
(dp3370
g1743
g1751
sg1744
g1767
sg387
S'c:/marmalade/7.10/s3e/h/s3eExt.h'
p3371
sbsS'IwGeomFVec3.h'
p3372
g360
(g1739
g362
Ntp3373
Rp3374
(dp3375
g1743
g1436
sg1744
g1805
sg387
g1498
sbsS'streambuf'
p3376
g360
(g1739
g362
Ntp3377
Rp3378
(dp3379
g1743
g1751
sg1744
g1752
sg387
S'c:/marmalade/7.10/s3e/h/std/c++/streambuf'
p3380
sbsS's3eMetrics.h'
p3381
g360
(g1739
g362
Ntp3382
Rp3383
(dp3384
g1743
g1751
sg1744
g1968
sg387
S'c:/marmalade/7.10/s3e/h/ext/s3eMetrics.h'
p3385
sbsS'IwGxFont.h'
p3386
g360
(g1739
g362
Ntp3387
Rp3388
(dp3389
g1743
g1414
sg1744
g1745
sg387
g1412
sbsS's3eSecureStorage.h'
p3390
g360
(g1739
g362
Ntp3391
Rp3392
(dp3393
g1743
g1751
sg1744
g1767
sg387
S'c:/marmalade/7.10/s3e/h/s3eSecureStorage.h'
p3394
sbsS'string.h'
p3395
g360
(g1739
g362
Ntp3396
Rp3397
(dp3398
g1743
g1751
sg1744
g1773
sg387
S'c:/marmalade/7.10/s3e/h/std/string.h'
p3399
sbsS'IwResource.h'
p3400
g360
(g1739
g362
Ntp3401
Rp3402
(dp3403
g1743
g1590
sg1744
g1780
sg387
g1664
sbsS'IwGeomSVec2.h'
p3404
g360
(g1739
g362
Ntp3405
Rp3406
(dp3407
g1743
g1436
sg1744
g1805
sg387
g1482
sbsS'libjpeg.mkf'
p3408
g360
(g1739
g362
Ntp3409
Rp3410
(dp3411
g1743
g1735
sg1744
(lp3412
g1701
asg387
g1733
sbsS'IwGxDebug.h'
p3413
g360
(g1739
g362
Ntp3414
Rp3415
(dp3416
g1743
g1536
sg1744
g1885
sg387
g1543
sbsS'float.h'
p3417
g360
(g1739
g362
Ntp3418
Rp3419
(dp3420
g1743
g1751
sg1744
g1773
sg387
S'c:/marmalade/7.10/s3e/h/std/float.h'
p3421
sbsS'iomanip.h'
p3422
g360
(g1739
g362
Ntp3423
Rp3424
(dp3425
g1743
g1751
sg1744
g1752
sg387
S'c:/marmalade/7.10/s3e/h/std/c++/iomanip.h'
p3426
sbsS'IwKeymap.h'
p3427
g360
(g1739
g362
Ntp3428
Rp3429
(dp3430
g1743
g1590
sg1744
g1780
sg387
g1634
sbsS'IwDebug.h'
p3431
g360
(g1739
g362
Ntp3432
Rp3433
(dp3434
g1743
g1590
sg1744
g1780
sg387
g1660
sbsS's3eIOSBackgroundAudio.h'
p3435
g360
(g1739
g362
Ntp3436
Rp3437
(dp3438
g1743
g1751
sg1744
g1968
sg387
S'c:/marmalade/7.10/s3e/h/ext/s3eIOSBackgroundAudio.h'
p3439
sbsS'IwGeomMenu.h'
p3440
g360
(g1739
g362
Ntp3441
Rp3442
(dp3443
g1743
g1436
sg1744
g1805
sg387
g1490
sbsS'IwDivTable.h'
p3444
g360
(g1739
g362
Ntp3445
Rp3446
(dp3447
g1743
g1590
sg1744
g1780
sg387
g1588
sbsS'ctype.h'
p3448
g360
(g1739
g362
Ntp3449
Rp3450
(dp3451
g1743
g1751
sg1744
g1773
sg387
S'c:/marmalade/7.10/s3e/h/std/ctype.h'
p3452
sbsS'IwGeomMat.h'
p3453
g360
(g1739
g362
Ntp3454
Rp3455
(dp3456
g1743
g1436
sg1744
g1805
sg387
g1502
sbsS'IwResGroup.h'
p3457
g360
(g1739
g362
Ntp3458
Rp3459
(dp3460
g1743
g1512
sg1744
g2013
sg387
g1528
sbsS'signal_1.h'
p3461
g360
(g1739
g362
Ntp3462
Rp3463
(dp3464
g1743
g1751
sg1744
g1899
sg387
S'c:/marmalade/7.10/s3e/h/std/sys/signal.h'
p3465
sbsS'IwSoundData.cpp'
p3466
g360
(g1739
g362
Ntp3467
Rp3468
(dp3469
g1743
g1283
sg1744
g1791
sg387
g1314
sbsS'functional'
p3470
g360
(g1739
g362
Ntp3471
Rp3472
(dp3473
g1743
g1751
sg1744
g1752
sg387
S'c:/marmalade/7.10/s3e/h/std/c++/functional'
p3474
sbsS'shm.h'
p3475
g360
(g1739
g362
Ntp3476
Rp3477
(dp3478
g1743
g1751
sg1744
g1899
sg387
S'c:/marmalade/7.10/s3e/h/std/sys/shm.h'
p3479
sbsS'IwManagedList.h'
p3480
g360
(g1739
g362
Ntp3481
Rp3482
(dp3483
g1743
g1590
sg1744
g1780
sg387
g1612
sbsS'prctl.h'
p3484
g360
(g1739
g362
Ntp3485
Rp3486
(dp3487
g1743
g1751
sg1744
g1899
sg387
S'c:/marmalade/7.10/s3e/h/std/sys/prctl.h'
p3488
sbsS'un.h'
p3489
g360
(g1739
g362
Ntp3490
Rp3491
(dp3492
g1743
g1751
sg1744
g1899
sg387
S'c:/marmalade/7.10/s3e/h/std/sys/un.h'
p3493
sbsS'temp_defines_debug.h'
p3494
g360
(g1739
g362
Ntp3495
Rp3496
(dp3497
g1743
(lp3498
sg1744
(lp3499
g3021
asg387
S'd:/Marmalade/Stage1/build_stage1_vc14/temp_defines_debug.h'
p3500
sbsS'utility'
p3501
g360
(g1739
g362
Ntp3502
Rp3503
(dp3504
g1743
g1751
sg1744
g1752
sg387
S'c:/marmalade/7.10/s3e/h/std/c++/utility'
p3505
sbsS'input.h'
p3506
g360
(g1739
g362
Ntp3507
Rp3508
(dp3509
g1743
g1340
sg1744
g2173
sg387
g1338
sbsS'IwGeomLegacy.h'
p3510
g360
(g1739
g362
Ntp3511
Rp3512
(dp3513
g1743
g1436
sg1744
g1805
sg387
g1472
sbsS'IwTPage.h'
p3514
g360
(g1739
g362
Ntp3515
Rp3516
(dp3517
g1743
g1536
sg1744
g1885
sg387
g1572
sbsS'IwResSerialise.h'
p3518
g360
(g1739
g362
Ntp3519
Rp3520
(dp3521
g1743
g1512
sg1744
g2013
sg387
g1521
sbsS's3eCrypto.h'
p3522
g360
(g1739
g362
Ntp3523
Rp3524
(dp3525
g1743
g1751
sg1744
g1767
sg387
S'c:/marmalade/7.10/s3e/h/s3eCrypto.h'
p3526
sbsS's3eKeyboard.h'
p3527
g360
(g1739
g362
Ntp3528
Rp3529
(dp3530
g1743
g1751
sg1744
g1767
sg387
S'c:/marmalade/7.10/s3e/h/s3eKeyboard.h'
p3531
sbsS'fcntl.h'
p3532
g360
(g1739
g362
Ntp3533
Rp3534
(dp3535
g1743
g1751
sg1744
g1773
sg387
S'c:/marmalade/7.10/s3e/h/std/fcntl.h'
p3536
sbsS'memory.h'
p3537
g360
(g1739
g362
Ntp3538
Rp3539
(dp3540
g1743
g1751
sg1744
g1773
sg387
S'c:/marmalade/7.10/s3e/h/std/memory.h'
p3541
sbsS'pthread.h'
p3542
g360
(g1739
g362
Ntp3543
Rp3544
(dp3545
g1743
g1751
sg1744
g1773
sg387
S'c:/marmalade/7.10/s3e/h/std/pthread.h'
p3546
sbsS'IwGeomIntersect.h'
p3547
g360
(g1739
g362
Ntp3548
Rp3549
(dp3550
g1743
g1436
sg1744
g1805
sg387
g1439
sbsS'IwTextParserITX.h'
p3551
g360
(g1739
g362
Ntp3552
Rp3553
(dp3554
g1743
g1590
sg1744
g1780
sg387
g1650
sbsS'egl_1.h'
p3555
g360
(g1739
g362
Ntp3556
Rp3557
(dp3558
g1743
g1751
sg1744
g2322
sg387
S'c:/marmalade/7.10/s3e/h/GLES/egl.h'
p3559
sbsS'ostream.h'
p3560
g360
(g1739
g362
Ntp3561
Rp3562
(dp3563
g1743
g1751
sg1744
g1752
sg387
S'c:/marmalade/7.10/s3e/h/std/c++/ostream.h'
p3564
sbsS'stl_user_config.h'
p3565
g360
(g1739
g362
Ntp3566
Rp3567
(dp3568
g1743
g1751
sg1744
g1752
sg387
S'c:/marmalade/7.10/s3e/h/std/c++/stl_user_config.h'
p3569
sbsS'iwgx.mkf'
p3570
g360
(g1739
g362
Ntp3571
Rp3572
(dp3573
g1743
g1561
sg1744
g1885
sg387
g1559
sbsS'IwProfileMenu.h'
p3574
g360
(g1739
g362
Ntp3575
Rp3576
(dp3577
g1743
g1590
sg1744
g1780
sg387
g1658
sbsS'MarmaladeVersion.h'
p3578
g360
(g1739
g362
Ntp3579
Rp3580
(dp3581
g1743
g1751
sg1744
g1767
sg387
S'c:/marmalade/7.10/s3e/h/MarmaladeVersion.h'
p3582
sbsS'IwResHandlerWAV.h'
p3583
g360
(g1739
g362
Ntp3584
Rp3585
(dp3586
g1743
g1283
sg1744
g1791
sg387
g1290
sbsS'gl3platform.h'
p3587
g360
(g1739
g362
Ntp3588
Rp3589
(dp3590
g1743
g1751
sg1744
g2060
sg387
S'c:/marmalade/7.10/s3e/h/GLES3/gl3platform.h'
p3591
sbsS'ios.h'
p3592
g360
(g1739
g362
Ntp3593
Rp3594
(dp3595
g1743
g1751
sg1744
g1752
sg387
S'c:/marmalade/7.10/s3e/h/std/c++/ios.h'
p3596
sbsS'IwImageHelper.h'
p3597
g360
(g1739
g362
Ntp3598
Rp3599
(dp3600
g1743
g1590
sg1744
g1780
sg387
g1682
sbsS'hash_set'
p3601
g360
(g1739
g362
Ntp3602
Rp3603
(dp3604
g1743
g1751
sg1744
g1752
sg387
S'c:/marmalade/7.10/s3e/h/std/c++/hash_set'
p3605
sbsS'IwGeomFQuat.h'
p3606
g360
(g1739
g362
Ntp3607
Rp3608
(dp3609
g1743
g1436
sg1744
g1805
sg387
g1468
sbsS'jmorecfg.h'
p3610
g360
(g1739
g362
Ntp3611
Rp3612
(dp3613
g1743
g1706
sg1744
g1839
sg387
g1717
sbsS'eglplatform.h'
p3614
g360
(g1739
g362
Ntp3615
Rp3616
(dp3617
g1743
g1751
sg1744
g2092
sg387
S'c:/marmalade/7.10/s3e/h/EGL/eglplatform.h'
p3618
sbsS'cmath'
p3619
g360
(g1739
g362
Ntp3620
Rp3621
(dp3622
g1743
g1751
sg1744
g1752
sg387
S'c:/marmalade/7.10/s3e/h/std/c++/cmath'
p3623
sbsS'math_gcc.h'
p3624
g360
(g1739
g362
Ntp3625
Rp3626
(dp3627
g1743
g1751
sg1744
g1773
sg387
S'c:/marmalade/7.10/s3e/h/std/math_gcc.h'
p3628
sbsS's3eMemory.h'
p3629
g360
(g1739
g362
Ntp3630
Rp3631
(dp3632
g1743
g1751
sg1744
g1767
sg387
S'c:/marmalade/7.10/s3e/h/s3eMemory.h'
p3633
sbsS'strings.h'
p3634
g360
(g1739
g362
Ntp3635
Rp3636
(dp3637
g1743
g1751
sg1744
g1773
sg387
S'c:/marmalade/7.10/s3e/h/std/strings.h'
p3638
sbsS's3eFile.h'
p3639
g360
(g1739
g362
Ntp3640
Rp3641
(dp3642
g1743
g1751
sg1744
g1767
sg387
S'c:/marmalade/7.10/s3e/h/s3eFile.h'
p3643
sbsS'IwGxTypes.h'
p3644
g360
(g1739
g362
Ntp3645
Rp3646
(dp3647
g1743
g1536
sg1744
g1885
sg387
g1551
sbsS'cerrno'
p3648
g360
(g1739
g362
Ntp3649
Rp3650
(dp3651
g1743
g1751
sg1744
g1752
sg387
S'c:/marmalade/7.10/s3e/h/std/c++/cerrno'
p3652
sbsS'IwSoundManager.cpp'
p3653
g360
(g1739
g362
Ntp3654
Rp3655
(dp3656
g1743
g1283
sg1744
g1791
sg387
g1316
sbsS'soundengine.mkf'
p3657
g360
(g1739
g362
Ntp3658
Rp3659
(dp3660
g1743
g1326
sg1744
g1791
sg387
g1324
sbsS'resource.h'
p3661
g360
(g1739
g362
Ntp3662
Rp3663
(dp3664
g1743
g1751
sg1744
g1899
sg387
S'c:/marmalade/7.10/s3e/h/std/sys/resource.h'
p3665
sbsS'clocale'
p3666
g360
(g1739
g362
Ntp3667
Rp3668
(dp3669
g1743
g1751
sg1744
g1752
sg387
S'c:/marmalade/7.10/s3e/h/std/c++/clocale'
p3670
sbsS'pvrtextool.mkf'
p3671
g360
(g1739
g362
Ntp3672
Rp3673
(dp3674
g1743
g1378
sg1744
g2359
sg387
g1376
sbsS'csetjmp'
p3675
g360
(g1739
g362
Ntp3676
Rp3677
(dp3678
g1743
g1751
sg1744
g1752
sg387
S'c:/marmalade/7.10/s3e/h/std/c++/csetjmp'
p3679
sbsS'netdb.h'
p3680
g360
(g1739
g362
Ntp3681
Rp3682
(dp3683
g1743
g1751
sg1744
g1773
sg387
S'c:/marmalade/7.10/s3e/h/std/netdb.h'
p3684
sbsS's3eAndroidJNI.h'
p3685
g360
(g1739
g362
Ntp3686
Rp3687
(dp3688
g1743
g1751
sg1744
g1968
sg387
S'c:/marmalade/7.10/s3e/h/ext/s3eAndroidJNI.h'
p3689
sbsS'stdexcept'
p3690
g360
(g1739
g362
Ntp3691
Rp3692
(dp3693
g1743
g1751
sg1744
g1752
sg387
S'c:/marmalade/7.10/s3e/h/std/c++/stdexcept'
p3694
sbsS'math.h'
p3695
g360
(g1739
g362
Ntp3696
Rp3697
(dp3698
g1743
g1751
sg1744
g1773
sg387
S'c:/marmalade/7.10/s3e/h/std/math.h'
p3699
sbsS'stdbool.h'
p3700
g360
(g1739
g362
Ntp3701
Rp3702
(dp3703
g1743
g1751
sg1744
g1773
sg387
S'c:/marmalade/7.10/s3e/h/std/stdbool.h'
p3704
sbsS'uio.h'
p3705
g360
(g1739
g362
Ntp3706
Rp3707
(dp3708
g1743
g1751
sg1744
g1899
sg387
S'c:/marmalade/7.10/s3e/h/std/sys/uio.h'
p3709
sbsS'IwUncopyable.h'
p3710
g360
(g1739
g362
Ntp3711
Rp3712
(dp3713
g1743
g1590
sg1744
g1780
sg387
g1654
sbssS'juice_build_type'
p3714
g4
sS'tests'
p3715
(lp3716
sS'project_name'
p3717
g368
sS'root_file'
p3718
g145
sS'current_root'
p3719
S'd:/Marmalade/Stage1'
p3720
sS'dependencies'
p3721
(lp3722
sS'include_paths'
p3723
(lp3724
S'c:/marmalade/7.10/extensions/s3eamazonads/h'
p3725
aS'c:/marmalade/7.10/modules/iwutil/h'
p3726
aS'c:/marmalade/7.10/modules/third_party/libjpeg/h'
p3727
aS'c:/marmalade/7.10/modules/third_party/zlib/h'
p3728
aS'c:/marmalade/7.10/modules/third_party/libpng/h'
p3729
aS'c:/marmalade/7.10/modules/iw2d/h'
p3730
aS'c:/marmalade/7.10/modules/iwgx/h'
p3731
aS'c:/marmalade/7.10/modules/iwgl/h'
p3732
aS'c:/marmalade/7.10/modules/iwgeom/h'
p3733
aS'c:/marmalade/7.10/modules/iwresmanager/h'
p3734
aS'c:/marmalade/7.10/extensions/pvrtextool/h'
p3735
aS'c:/marmalade/7.10/modules/iwgxfont/h'
p3736
aS'c:/marmalade/7.10/modules/third_party/tiniconv/source'
p3737
aS'd:/marmalade/modules/soundengine/h'
p3738
aS'd:/marmalade/modules/soundengine/source'
p3739
aS'c:/marmalade/7.10/s3e/h'
p3740
aS'c:/marmalade/7.10/s3e/h/ext'
p3741
aS'c:/marmalade/7.10/s3e/h/std'
p3742
aS'c:/marmalade/7.10/s3e/h/std/c++'
p3743
aS'c:/marmalade/7.10/s3e/h/ext_legacy'
p3744
aS'c:/marmalade/7.10/s3e/h/legacy'
p3745
asS'weak_frameworks'
p3746
(lp3747
sS'extprojects'
p3748
(dp3749
sg688
(dp3750
g682
(lp3751
(S'd:/Marmalade/Stage1/data/textures'
p3752
S'textures'
p3753
I0
tp3754
assS'macro_types'
p3755
(dp3756
g615
I0
sg617
I1
sg618
I0
sg619
I0
sg620
I0
sg621
I0
sg623
I0
sg624
I0
sg625
I0
sg626
I0
sg627
I0
sg628
I0
sg630
I0
sg631
I0
sg632
I0
sg633
I0
sg634
I0
sg635
I0
sg636
I0
sg637
I0
sg639
I0
sg640
I0
sg641
I0
sg642
I0
sg643
I0
sg644
I0
sg645
I0
sg646
I1
sg647
I0
sg648
I0
sg649
I0
sg650
I01
sg651
I1
sg652
I0
sg653
I0
sg654
I0
sg655
I0
sg656
I0
sg657
I0
ssS'commands'
p3757
(lp3758
sg690
(g1240
S'VC14'
p3759
S'X86ARMAARCH64'
p3760
tp3761
sS'build_libs'
p3762
(dp3763
sg692
g0
sS'frameworks'
p3764
(lp3765
sS'environ'
p3766
(dp3767
S'NACL_ROOT'
p3768
S'c:\\marmalade\\7.10/tools/gcc/x86_64/nacl_windows'
p3769
ssS'target_name_debug'
p3770
g368
sS'builders'
p3771
(dp3772
g682
(dp3773
S'.S'
p3774
(dp3775
S'gcc_aarch64'
p3776
(lp3777
S'.obj'
p3778
aS'echo AARCH64 Assembling(GCC) ${SOURCE}...'
p3779
aS'c:/marmalade/7.10/s3e\\gcc\\win32\\aarch64\\bin\\aarch64-none-elf-gcc -c -o ${TARGET} ${SOURCE}'
p3780
asS'rvct'
p3781
(lp3782
g3778
aS'echo ARM Assembling(RVCT) ${SOURCE}...'
p3783
aS'c:/marmalade/7.10/s3e\\rvct\\bin\\armasm -o ${TARGET} ${SOURCE}'
p3784
asg490
(lp3785
g3778
aS'echo ARM Assembling(GCC) ${SOURCE}...'
p3786
aS'c:/marmalade/7.10/s3e\\gcc\\win32\\arm\\bin\\arm-none-eabi-gcc -c -o ${TARGET} ${SOURCE}'
p3787
asS'ppu'
p3788
(lp3789
S'.a'
p3790
aS'echo PPU Assembling(SNC) ${SOURCE}...'
p3791
aS'c:/marmalade/7.10/s3e\\rvct\\bin\\armasm -o ${TARGET} ${SOURCE}'
p3792
assS'.s'
p3793
g3775
sS'.vp'
p3794
(lp3795
NaS'"C:/Marmalade/7.10/s3e/python/python.exe" "c:/marmalade/7.10/modules/iwgx/tools/compile_shaders.py" ${SOURCE}'
p3796
asssS'extproject_names'
p3797
(lp3798
sbtp3799
.