((dp0
S'arm_dbg_args'
p1
S'-via:"d:\\Marmalade\\Stage1\\build_stage1_vc14\\Stage1_vc14_arm_debug.via" -qemu'
p2
sS'game-icf'
p3
S''
p4
sS'dist'
p5
NsS'csproj'
p6
g4
sS'module_path_append'
p7
NsS'tizen_x86_dbg_exe'
p8
S'c:\\marmalade\\7.10\\s3e\\makefile_builder\\tool_launcher.exe'
p9
sS'global_path'
p10
S'd:\\marmalade'
p11
sS'system_path'
p12
S'c:\\marmalade\\7.10\\s3e\\makefile_builder'
p13
sS'android_x86_dbg_args'
p14
S'../../tools/DeployTool/DeployTool.exe --dir "d:\\Marmalade\\Stage1\\build_stage1_vc14"'
p15
sS'aarch64-arch-mod'
p16
g4
sS'no-emit'
p17
NsS'androidnativedebug'
p18
NsS'arm-float-abi'
p19
g4
sS'arm_rel_rtsm_args'
p20
S'-via:"d:\\Marmalade\\Stage1\\build_stage1_vc14\\Stage1_vc14_arm_release.via" -qemu'
p21
sS'amd64'
p22
NsS'line-width'
p23
I80
sS'gcc_dbg_args'
p24
S'-via:"d:\\Marmalade\\Stage1\\build_stage1_vc14\\Stage1_vc14_gcc_debug.via" -qemu'
p25
sS'sim-release-loader'
p26
NsS'android-x86'
p27
NsS'x86_dbg_exe'
p28
S'c:/marmalade/7.10/s3e\\win32\\s3e_simulator_debug.exe'
p29
sS'jflags'
p30
NsS'nacl_x86_64_rel_args'
p31
g15
sS'release'
p32
NsS'no-make'
p33
NsS'xcode-x86-build-settings'
p34
g4
sS'optimise-size'
p35
NsS'fat'
p36
NsS'output-name-debug'
p37
g4
sS'arm-fpu'
p38
g4
sS'proj_name'
p39
S'Stage1_vc14'
p40
sS'rvct-version'
p41
S'none'
p42
sS'compiler'
p43
g4
sS'execute'
p44
NsS'compile-static'
p45
NsS'nacl_x86_64_rel_exe'
p46
g9
sS'msvc-project'
p47
I01
sS'buildenv'
p48
S'VC14'
p49
sS'quick'
p50
NsS'module_path'
p51
NsS'mkf_default'
p52
S's3e-default.mkf'
p53
sS'use-release-std-libs'
p54
NsS'using_perforce'
p55
I00
sS'tizen-x86'
p56
NsS'mips-s3e'
p57
NsS's3e-api-lib-name'
p58
S's3e_api_iwgl'
p59
sS'ios-no-pic'
p60
NsS'shared-arm-lib'
p61
NsS'arm-cpu'
p62
g4
sS'compile-thumb'
p63
NsS'no-ide'
p64
NsS'msvc-version'
p65
S'6.0'
p66
sS'arm'
p67
NsS'nacl_x86_64_dbg_exe'
p68
g9
sS'builddir'
p69
g4
sS'compile-debug-as-release'
p70
I0
sS'arm-arch'
p71
g4
sS'brief'
p72
NsS'dll'
p73
NsS'buildenv-toolset'
p74
g4
sS'version'
p75
NsS'aarch64-arch'
p76
g4
sS'ccache'
p77
I0
sS'offline'
p78
NsS'ios-version'
p79
g4
sS'hub_data'
p80
g4
sS'fake_vc_call'
p81
I01
sS'jobs'
p82
I0
sS'linkflags'
p83
NsS'gcc_aarch64_dbg_args'
p84
g15
sS'nacl_x86_64_dbg_args'
p85
g15
sS'debug'
p86
NsS'xcode-build-order'
p87
g4
sS'gcc_aarch64_rel_rtsm_args'
p88
S'-via:"d:\\Marmalade\\Stage1\\build_stage1_vc14\\Stage1_vc14_gcc_aarch64_release.via" -qemu'
p89
sS'gcc_rel_rtsm_args'
p90
S'-via:"d:\\Marmalade\\Stage1\\build_stage1_vc14\\Stage1_vc14_gcc_release.via" -qemu'
p91
sS'done_defaults'
p92
I1
sS'path'
p93
(lp94
S'c:/marmalade/7.10/tools/gcc/x86_64/nacl_windows/toolchain/win_x86_glibc/bin'
p95
asS's3e-data-dir'
p96
S'd:/Marmalade/Stage1\\data'
p97
sS'enable-exceptions'
p98
NsS'osx-dll'
p99
NsS'extension'
p100
g4
sS'no-vc6'
p101
NsS'aarch64'
p102
NsS'win32-console'
p103
NsS'dist-format'
p104
g4
sS's3e-force-arch'
p105
NsS'dump_defines'
p106
NsS'use-shared-std-libs'
p107
NsS'gcc-version'
p108
g4
sS'x86_dbg_args'
p109
S'-via:"d:\\Marmalade\\Stage1\\build_stage1_vc14\\Stage1_vc14_debug.via"'
p110
sS'nacl'
p111
NsS'tizen_x86_dbg_args'
p112
g15
sS'arm-debugger'
p113
g4
sS'use_temp_extension'
p114
NsS'verbose'
p115
I0
sS'log'
p116
NsS'no-strip'
p117
NsS'rebuild'
p118
NsS'mips_dbg_args'
p119
g15
sS'win32-simulator-dll'
p120
NsS'strict'
p121
NsS'xcode-aarch64-build-settings'
p122
g4
sS'enable-global-path'
p123
NsS'gcc_aarch64_rel_args'
p124
g15
sS'cflags'
p125
NsS'dist-dir'
p126
g4
sS'xcode-arm-build-settings'
p127
g4
sS'disable-runtime-checks'
p128
NsS'csprojSDKRefs'
p129
g4
sS'tizen_x86_rel_exe'
p130
g9
sS'builddirroot'
p131
g4
sS'distcc'
p132
NsS'external-compiler'
p133
NsS'stripflags'
p134
NsS'retry-build'
p135
S'0'
p136
sS'preinclude'
p137
NsS'using_sdk'
p138
I01
sS'nologo'
p139
NsS'warn-level'
p140
I2
sS'mips_dbg_exe'
p141
g9
sS'mkb_in'
p142
S'd:/Marmalade/Stage1/Stage1.mkb'
p143
sS'no-objc-arc'
p144
NsS'app-icf'
p145
NsS'arm_dbg_exe'
p146
S'c:/marmalade/7.10/s3e\\bin\\armdebug.exe'
p147
sS'mdev-first'
p148
NsS'csprojDLLRef'
p149
NsS'tizen_x86_rel_args'
p150
g15
sS'android_x86_dbg_exe'
p151
g9
sS'naclx86_64'
p152
NsS'test-config'
p153
g4
sS'list-targets'
p154
NsS'arm_rel_exe'
p155
g9
sS'arm_rel_args'
p156
g15
sS'makedeps'
p157
NsS'android_x86_rel_exe'
p158
g9
sS'default-buildenv'
p159
S'vc14'
p160
sS'x86_rel_exe'
p161
S'c:/marmalade/7.10/s3e\\win32\\s3e_simulator_release.exe'
p162
sS'preprocess-java'
p163
NsS'mips_rel_args'
p164
g15
sS'test-assets'
p165
g4
sS'lib'
p166
NsS'non-interactive'
p167
NsS'global_argv'
p168
(lp169
S'C:\\Marmalade\\7.10\\s3e\\makefile_builder\\mkb.py'
p170
aS'd:/Marmalade/Stage1/Stage1.mkb'
p171
aS'--buildenv=VC14'
p172
aS'--fake-vc-call'
p173
aS'--default-buildenv=vc14'
p174
aS'--msvc-project'
p175
asS'make'
p176
NsS'optimise-speed'
p177
NsS'internal'
p178
NsS'enable-stdinc'
p179
NsS'defines'
p180
NsS'deploy-only'
p181
NsS'x86'
p182
NsS'deploy'
p183
g4
sS'objc-arc'
p184
NsS'x86_run_exe'
p185
S'c:/marmalade/7.10/s3e\\win32\\s3e_simulator_debug.exe'
p186
sS'cxxflags'
p187
NsS'x86_rel_args'
p188
S'-via:"d:\\Marmalade\\Stage1\\build_stage1_vc14\\Stage1_vc14_release.via"'
p189
sS'gcc_rel_args'
p190
g15
sS'mips'
p191
NsS'xcode-build-settings'
p192
g4
sS'csprojPostBuildActions'
p193
NsS'incredibuild'
p194
NsS'strict-compile'
p195
NsS'use-auto-subdirs'
p196
NsS'mips_rel_exe'
p197
g9
sS'android_x86_rel_args'
p198
g15
sS'no-distcc'
p199
NsS'deployargs'
p200
NsS'iosnativedebug'
p201
NsS'use_prebuilt'
p202
NsS'win-target-platform'
p203
g4
sS'mkf_in'
p204
(lp205
S'c:\\marmalade\\7.10\\s3e\\s3e-default.mkf'
p206
aS'c:\\marmalade\\7.10\\extensions\\s3eamazonads\\s3eamazonads.mkf'
p207
aS'c:\\marmalade\\7.10\\modules\\iwutil\\iwutil.mkf'
p208
aS'c:\\marmalade\\7.10\\modules\\third_party\\libjpeg\\libjpeg.mkf'
p209
aS'c:\\marmalade\\7.10\\modules\\third_party\\libpng\\libpng.mkf'
p210
aS'c:\\marmalade\\7.10\\modules\\third_party\\zlib\\zlib.mkf'
p211
aS'c:\\marmalade\\7.10\\platform_libs\\android\\amazon-ads-android-sdk\\amazon-ads-android-sdk.mkf'
p212
aS'c:\\marmalade\\7.10\\platform_libs\\iphone\\amazon-ads-ios-sdk\\amazon-ads-ios-sdk.mkf'
p213
aS'c:\\marmalade\\7.10\\modules\\iw2d\\iw2d.mkf'
p214
aS'c:\\marmalade\\7.10\\modules\\iwgx\\iwgx.mkf'
p215
aS'c:\\marmalade\\7.10\\modules\\iwgl\\iwgl.mkf'
p216
aS'c:\\marmalade\\7.10\\modules\\iwgeom\\iwgeom.mkf'
p217
aS'c:\\marmalade\\7.10\\modules\\iwresmanager\\iwresmanager.mkf'
p218
aS'c:\\marmalade\\7.10\\extensions\\pvrtextool\\pvrtextool.mkf'
p219
aS'c:\\marmalade\\7.10\\modules\\iwgxfont\\iwgxfont.mkf'
p220
aS'c:\\marmalade\\7.10\\modules\\third_party\\tiniconv\\tiniconv.mkf'
p221
asS'strict-mkb'
p222
NsS'executeargs'
p223
NsS'clean'
p224
NsS'no-asm'
p225
NsS'output-name'
p226
g4
sS'no-modules'
p227
NsS'find_define'
p228
g4
s(dp229
S'c:\\marmalade\\7.10\\s3e\\makefile_builder\\templates\\aarch64_linker_script'
p230
F1443314056.0
sS'c:\\marmalade\\7.10\\s3e\\makefile_builder\\plugins\\xcode4_schememanagement.py'
p231
F1443314056.0
sS'c:\\marmalade\\7.10\\s3e\\makefile_builder\\templates\\wp81_csproj.pyc'
p232
F1443317622.0
sS'c:\\marmalade\\7.10\\s3e\\makefile_builder\\plugins\\s3e_win10.pyc'
p233
F1443317622.0
sS'c:\\marmalade\\7.10\\s3e\\makefile_builder\\mkb_launcher.exe'
p234
F1443315030.0
sS'c:\\marmalade\\7.10\\s3e\\makefile_builder\\templates\\win8_ext_csproj.pyc'
p235
F1443317622.0
sS'c:\\marmalade\\7.10\\s3e\\makefile_builder\\templates\\ws8_ext_sln.pyc'
p236
F1443317588.0
sS'c:\\marmalade\\7.10\\s3e\\makefile_builder\\templates\\ws81_sln.pyc'
p237
F1443317680.0
sS'c:\\marmalade\\7.10\\s3e\\makefile_builder\\templates\\xcode4_DeployTool.xcscheme'
p238
F1443314058.0
sS'c:\\marmalade\\7.10\\s3e\\makefile_builder\\plugins\\linux_vc14.pyc'
p239
F1443317654.0
sS'c:\\marmalade\\7.10\\s3e\\makefile_builder\\templates\\ws81_vcxproj.pyc'
p240
F1443317670.0
sS'c:\\marmalade\\7.10\\s3e\\makefile_builder\\plugins\\MakeEmitter.pyc'
p241
F1443317622.0
sS'c:\\marmalade\\7.10\\s3e\\makefile_builder\\templates\\win8_sln.pyc'
p242
F1443317610.0
sS'c:\\marmalade\\7.10\\s3e\\makefile_builder\\templates\\wp8_ext_csproj.pyc'
p243
F1443317704.0
sS'c:\\marmalade\\7.10\\s3e\\makefile_builder\\templates\\ws8_ext_csproj.pyc'
p244
F1443317594.0
sS'c:\\marmalade\\7.10\\s3e\\makefile_builder\\plugins\\deploy.pyc'
p245
F1443317634.0
sS'c:\\marmalade\\7.10\\s3e\\makefile_builder\\mkb_upstream.pyc'
p246
F1443317644.0
sS'c:\\marmalade\\7.10\\s3e\\makefile_builder\\templates\\wp81_vcxproj.pyc'
p247
F1443317612.0
sS'c:\\marmalade\\7.10\\s3e\\makefile_builder\\templates\\vc14_androidnative_ext_sln.pyc'
p248
F1443317640.0
sS'c:\\marmalade\\7.10\\s3e\\makefile_builder\\tool_launcher.exe'
p249
F1443315032.0
sS'c:\\marmalade\\7.10\\s3e\\makefile_builder\\plugins\\wp81_wp81.pyc'
p250
F1443317580.0
sS'c:\\marmalade\\7.10\\s3e\\makefile_builder\\templates\\qmake_user.py'
p251
F1443314056.0
sS'c:\\marmalade\\7.10\\s3e\\makefile_builder\\templates\\template.opt'
p252
F1443314056.0
sS'c:\\marmalade\\7.10\\s3e\\makefile_builder\\templates\\ws8_csproj_user.pyc'
p253
F1443317586.0
sS'c:\\marmalade\\7.10\\s3e\\makefile_builder\\plugins\\osx_scons.pyc'
p254
F1443317596.0
sS'c:\\marmalade\\7.10\\s3e\\makefile_builder\\plugins\\s3e_make.pyc'
p255
F1443317570.0
sS'c:\\marmalade\\7.10\\s3e\\makefile_builder\\templates\\win32_vcxproj.pyc'
p256
F1443317682.0
sS'c:\\marmalade\\7.10\\s3e\\makefile_builder\\templates\\win32_vcxproj_filters.pyc'
p257
F1443317594.0
sS'c:\\marmalade\\7.10\\s3e\\makefile_builder\\templates\\win32_dsp.pyc'
p258
F1443317690.0
sS'c:\\marmalade\\7.10\\s3e\\makefile_builder\\plugins\\linux_scons.pyc'
p259
F1443317710.0
sS'c:\\marmalade\\7.10\\s3e\\makefile_builder\\templates\\ws8_sln.pyc'
p260
F1443317680.0
sS'c:\\marmalade\\7.10\\s3e\\makefile_builder\\templates\\mips_linker_script'
p261
F1443314056.0
sS'c:\\marmalade\\7.10\\s3e\\makefile_builder\\templates\\wp8_vcxproj.pyc'
p262
F1443317624.0
sS'c:\\marmalade\\7.10\\s3e\\makefile_builder\\docs'
p263
F1446019855.710399
sS'c:\\marmalade\\7.10\\s3e\\makefile_builder\\templates\\xcode4_arm.xcscheme'
p264
F1443314058.0
sS'c:\\marmalade\\7.10\\s3e\\makefile_builder\\mkb_option.pyc'
p265
F1443317578.0
sS'c:\\marmalade\\7.10\\s3e\\makefile_builder\\templates\\xcode.py'
p266
F1443314058.0
sS'c:\\marmalade\\7.10\\s3e\\makefile_builder\\templates\\ws81_ext_sln.pyc'
p267
F1443317604.0
sS'c:\\marmalade\\7.10\\s3e\\makefile_builder\\templates\\win10_csproj.pyc'
p268
F1443317704.0
sS'c:\\marmalade\\7.10\\s3e\\makefile_builder\\templates\\wp8_csproj_user.pyc'
p269
F1443317658.0
sS'c:\\marmalade\\7.10\\s3e\\makefile_builder\\plugins\\s3e_wp8.pyc'
p270
F1443317680.0
sS'c:\\marmalade\\7.10\\s3e\\makefile_builder\\templates\\qmake.py'
p271
F1443314056.0
sS'c:\\marmalade\\7.10\\s3e\\makefile_builder\\templates\\win32_dsw.pyc'
p272
F1443317576.0
sS'c:\\marmalade\\7.10\\s3e\\makefile_builder\\templates\\wp8_sln.pyc'
p273
F1443317596.0
sS'c:\\marmalade\\7.10\\s3e\\makefile_builder\\templates\\vc6_opt.pyc'
p274
F1443317684.0
sS'c:\\marmalade\\7.10\\s3e\\makefile_builder\\plugins\\win10_win10.pyc'
p275
F1443317686.0
sS'c:\\marmalade\\7.10\\s3e\\makefile_builder\\templates\\linker_script'
p276
F1443314056.0
sS'c:\\marmalade\\7.10\\s3e\\makefile_builder\\templates\\win10_ext_sln.pyc'
p277
F1443317588.0
sS'c:\\marmalade\\7.10\\s3e\\makefile_builder\\plugins\\Win8Emitter.pyc'
p278
F1443317652.0
sS'c:\\marmalade\\7.10\\s3e\\makefile_builder\\nacl.mkf'
p279
F1443314056.0
sS'c:\\marmalade\\7.10\\s3e\\makefile_builder\\templates\\win10_ext_csproj.pyc'
p280
F1443317582.0
sS'c:\\marmalade\\7.10\\s3e\\makefile_builder\\templates\\wp81_ext_sln.pyc'
p281
F1443317610.0
sS'c:\\marmalade\\7.10\\s3e\\makefile_builder\\plugins\\s3e_wp81.pyc'
p282
F1443317678.0
sS'c:\\marmalade\\7.10\\s3e\\makefile_builder\\templates\\win8_csproj_user.pyc'
p283
F1443317596.0
sS'c:\\marmalade\\7.10\\s3e\\makefile_builder\\docs\\deployment_options.txt'
p284
F1443314056.0
sS'c:\\marmalade\\7.10\\s3e\\makefile_builder\\plugins\\s3e_vc14_androidnative.pyc'
p285
F1443317612.0
sS'c:\\marmalade\\7.10\\s3e\\makefile_builder\\templates\\wp8_csproj.pyc'
p286
F1443317690.0
sS'c:\\marmalade\\7.10\\s3e\\makefile_builder\\plugins\\VisualStudioEmitter.pyc'
p287
F1443317624.0
sS'c:\\marmalade\\7.10\\s3e\\makefile_builder\\mkb.py'
p288
F1443314056.0
sS'c:\\marmalade\\7.10\\s3e\\makefile_builder\\mkb_globals.pyc'
p289
F1443317674.0
sS'c:\\marmalade\\7.10\\s3e\\makefile_builder\\templates\\win10_sln.pyc'
p290
F1443317688.0
sS'c:\\marmalade\\7.10\\s3e\\makefile_builder\\plugins\\null.pyc'
p291
F1443317640.0
sS'c:\\marmalade\\7.10\\s3e\\makefile_builder\\docs\\mkb.defines.txt'
p292
F1443314056.0
sS'c:\\marmalade\\7.10\\s3e\\makefile_builder\\templates\\vc7_suo.pyc'
p293
F1443317678.0
sS'c:\\marmalade\\7.10\\s3e\\makefile_builder\\plugins\\S3EEmitter.pyc'
p294
F1443317686.0
sS'c:\\marmalade\\7.10\\s3e\\makefile_builder\\templates\\ws81_ext_csproj.pyc'
p295
F1443317660.0
sS'c:\\marmalade\\7.10\\s3e\\makefile_builder\\templates\\win8_vcxproj.pyc'
p296
F1443317706.0
sS'c:\\marmalade\\7.10\\s3e\\makefile_builder\\plugins\\s3e_vc6.pyc'
p297
F1443317594.0
sS'c:\\marmalade\\7.10\\s3e\\makefile_builder\\templates\\vc10_user.pyc'
p298
F1443317674.0
sS'c:\\marmalade\\7.10\\s3e\\makefile_builder\\docs\\deprecated.options.txt'
p299
F1443314056.0
sS'c:\\marmalade\\7.10\\s3e\\makefile_builder\\docs\\deprecated.defines.txt'
p300
F1443314056.0
sS'c:\\marmalade\\7.10\\s3e\\makefile_builder\\templates\\wp81_sln.pyc'
p301
F1443317634.0
sS'c:\\marmalade\\7.10\\s3e\\makefile_builder\\templates\\rvct_linker_script'
p302
F1443314056.0
sS'c:\\marmalade\\7.10\\s3e\\makefile_builder\\templates\\win10_vcxproj.pyc'
p303
F1443317618.0
sS'c:\\marmalade\\7.10\\s3e\\makefile_builder\\templates\\vc14_androidproj.pyc'
p304
F1443317640.0
sS'c:\\marmalade\\7.10\\s3e\\makefile_builder\\plugins\\XcodeEmitter.pyc'
p305
F1446052656.065168
sS'c:\\marmalade\\7.10\\s3e\\makefile_builder\\plugins\\s3e_scons.pyc'
p306
F1443317644.0
sS'c:\\marmalade\\7.10\\s3e\\makefile_builder\\templates\\win32_sln.pyc'
p307
F1443317704.0
sS'c:\\marmalade\\7.10\\s3e\\makefile_builder\\templates\\wp81_ext_csproj.pyc'
p308
F1443317684.0
sS'c:\\marmalade\\7.10\\s3e\\makefile_builder\\templates\\wp81_csproj_user.pyc'
p309
F1443317632.0
sS'c:\\marmalade\\7.10\\s3e\\makefile_builder\\plugins\\win8_utils.pyc'
p310
F1443317686.0
sS'c:\\marmalade\\7.10\\s3e\\makefile_builder\\plugins\\win32_vc6.pyc'
p311
F1443317604.0
sS'c:\\marmalade\\7.10\\s3e\\makefile_builder\\plugins\\ws8_ws8.pyc'
p312
F1443317676.0
sS'c:\\marmalade\\7.10\\s3e\\makefile_builder\\templates\\ws81_csproj.pyc'
p313
F1443317608.0
sS'c:\\marmalade\\7.10\\s3e\\makefile_builder\\plugins\\s3e_qmake.py'
p314
F1443314056.0
sS'c:\\marmalade\\7.10\\s3e\\makefile_builder\\plugins\\Emitter.pyc'
p315
F1443317632.0
sS'c:\\marmalade\\7.10\\s3e\\makefile_builder\\plugins\\wp8_wp8.pyc'
p316
F1443317650.0
sS'c:\\marmalade\\7.10\\s3e\\makefile_builder\\plugins\\s3e_win8.pyc'
p317
F1443317610.0
sS'c:\\marmalade\\7.10\\s3e\\makefile_builder\\templates\\gdb_start.txt'
p318
F1443314056.0
sS'c:\\marmalade\\7.10\\s3e\\makefile_builder\\templates\\Info.plist'
p319
F1443314056.0
sS'c:\\marmalade\\7.10\\s3e\\makefile_builder\\plugins\\vc7_utils.pyc'
p320
F1443317620.0
sS'c:\\marmalade\\7.10\\s3e\\makefile_builder\\templates\\vc8_user.pyc'
p321
F1443317650.0
sS'c:\\marmalade\\7.10\\s3e\\makefile_builder\\plugins\\s3e_ws81.pyc'
p322
F1443317688.0
sS'c:\\marmalade\\7.10\\s3e\\makefile_builder\\templates\\win10_csproj_user.pyc'
p323
F1443317618.0
sS'c:\\marmalade\\7.10\\s3e\\makefile_builder\\templates\\xcode_pbxuser.py'
p324
F1443314058.0
sS'c:\\marmalade\\7.10\\s3e\\makefile_builder\\mkb_parser.pyc'
p325
F1443317612.0
sS'c:\\marmalade\\7.10\\s3e\\makefile_builder\\templates\\ws8_vcxproj.pyc'
p326
F1443317696.0
sS'c:\\marmalade\\7.10\\s3e\\makefile_builder\\plugins\\xcode4_schememanagement.pyc'
p327
F1446052656.0711737
sS'c:\\marmalade\\7.10\\s3e\\makefile_builder\\templates'
p328
F1446019856.4123716
sS'c:\\marmalade\\7.10\\s3e\\makefile_builder\\templates\\xcode4.xcscheme'
p329
F1443314058.0
sS'c:\\marmalade\\7.10\\s3e\\makefile_builder\\plugins\\ws81_ws81.pyc'
p330
F1443317638.0
sS'c:\\marmalade\\7.10\\s3e\\makefile_builder\\docs\\parse_options.pyc'
p331
F1443317690.0
sS'c:\\marmalade\\7.10\\s3e\\makefile_builder\\templates\\template.suo'
p332
F1443314056.0
sS'c:\\marmalade\\7.10\\s3e\\makefile_builder\\docs\\options.txt'
p333
F1443314056.0
sS'c:\\marmalade\\7.10\\s3e\\makefile_builder\\mkb_util.pyc'
p334
F1443317616.0
sS'c:\\marmalade\\7.10\\s3e\\makefile_builder\\templates\\ws81_csproj_user.pyc'
p335
F1443317686.0
sS'c:\\marmalade\\7.10\\s3e\\makefile_builder\\plugins\\s3e_qmake.pyc'
p336
F1446052656.1569195
sS'c:\\marmalade\\7.10\\s3e\\makefile_builder\\templates\\win32_vcproj.pyc'
p337
F1443317676.0
sS'c:\\marmalade\\7.10\\s3e\\makefile_builder\\templates\\vc14_androidnative_vcxproj.pyc'
p338
F1443317580.0
sS'c:\\marmalade\\7.10\\s3e\\makefile_builder\\plugins\\s3e_xcode.pyc'
p339
F1446052656.1934426
sS'c:\\marmalade\\7.10\\s3e\\makefile_builder\\plugins\\s3e_xcode.py'
p340
F1443314056.0
sS'c:\\marmalade\\7.10\\s3e\\makefile_builder\\templates\\MainWindow.xib'
p341
F1443314056.0
sS'c:\\marmalade\\7.10\\s3e\\makefile_builder\\plugins'
p342
F1446052656.1919422
sS'c:\\marmalade\\7.10\\s3e\\makefile_builder\\templates\\win8_csproj.pyc'
p343
F1443317710.0
sS'c:\\marmalade\\7.10\\s3e\\makefile_builder\\plugins\\s3e_web.pyc'
p344
F1443317636.0
sS'c:\\marmalade\\7.10\\s3e\\makefile_builder\\templates\\make.py'
p345
F1443314056.0
sS'c:\\marmalade\\7.10\\s3e\\makefile_builder\\plugins\\s3e_ws8.pyc'
p346
F1443317684.0
sS'c:\\marmalade\\7.10\\s3e\\makefile_builder\\deployment.pyc'
p347
F1443317652.0
sS'c:\\marmalade\\7.10\\s3e\\makefile_builder\\plugins\\XcodeEmitter.py'
p348
F1443314056.0
sS'c:\\marmalade\\7.10\\s3e\\makefile_builder\\plugins\\vc6_utils.pyc'
p349
F1443317682.0
sS'c:\\marmalade\\7.10\\s3e\\makefile_builder\\plugins\\SConsEmitter.pyc'
p350
F1443317608.0
sS'c:\\marmalade\\7.10\\s3e\\makefile_builder\\templates\\ws8_csproj.pyc'
p351
F1443317670.0
sS'c:\\marmalade\\7.10\\s3e\\makefile_builder\\plugins\\java.pyc'
p352
F1443317626.0
sS'c:\\marmalade\\7.10\\s3e\\makefile_builder\\plugins\\osx_xcode.pyc'
p353
F1443317590.0
sS'c:\\marmalade\\7.10\\s3e\\makefile_builder\\templates\\vc14_androidnative_sln.pyc'
p354
F1443317622.0
sS'c:\\marmalade\\7.10\\s3e\\makefile_builder\\templates\\scons.pyc'
p355
F1443317700.0
sS'c:\\marmalade\\7.10\\s3e\\makefile_builder\\mkb_main.pyc'
p356
F1443317632.0
sS'c:\\marmalade\\7.10\\s3e\\makefile_builder\\plugins\\iphone.pyc'
p357
F1443317654.0
sccopy_reg
_reconstructor
p358
(cmkb_main
MkbFile
p359
c__builtin__
object
p360
Ntp361
Rp362
(dp363
g5
(lp364
sS'target_name'
p365
S'Stage1'
p366
sS'current_file'
p367
g143
sS'package_path'
p368
(lp369
sS'post_build'
p370
(lp371
(lp372
S'c:/marmalade/7.10/s3e/tools'
p373
aS'C:\\Marmalade\\7.10\\s3e\\python\\python.exe .\\process_map.py "$(TargetPath)"'
p374
aa(S'c:\\marmalade\\7.10\\s3e\\bin'
p375
S'"s3e_plink" -l "$(TargetPath)" '
p376
g182
tp377
asS'librarys'
p378
(lp379
g358
(cmkb_main
Library
p380
g360
Ntp381
Rp382
(dp383
S'name'
p384
S'vc12_compat.lib'
p385
sS'expand_name'
p386
I00
sS'include_spec_rvct_objs'
p387
(lp388
sS'include_all_objs'
p389
I00
sS'share_arm'
p390
I00
sS'arch'
p391
S'x86'
p392
sS'nodebug'
p393
I00
sg43
Nsbag358
(g380
g360
Ntp394
Rp395
(dp396
g384
S'iwutil'
p397
sg386
I01
sg387
(lp398
sg389
Nsg390
Nsg391
Nsg393
I00
sg43
Nsbag358
(g380
g360
Ntp399
Rp400
(dp401
g384
S'jpeg'
p402
sg386
I01
sg387
g398
sg389
Nsg390
Nsg391
Nsg393
I00
sg43
Nsbag358
(g380
g360
Ntp403
Rp404
(dp405
g384
S'z'
p406
sg386
I01
sg387
g398
sg389
Nsg390
Nsg391
Nsg393
I00
sg43
Nsbag358
(g380
g360
Ntp407
Rp408
(dp409
g384
S'png'
p410
sg386
I01
sg387
g398
sg389
Nsg390
Nsg391
Nsg393
I00
sg43
Nsbag358
(g380
g360
Ntp411
Rp412
(dp413
g384
S'iw2d'
p414
sg386
I01
sg387
g398
sg389
Nsg390
Nsg391
Nsg393
I00
sg43
Nsbag358
(g380
g360
Ntp415
Rp416
(dp417
g384
S'ATI_Compress_MT_VC7.lib'
p418
sg386
I00
sg387
g398
sg389
Nsg390
Nsg391
S'x86'
p419
sg393
I00
sg43
Nsbag358
(g380
g360
Ntp420
Rp421
(dp422
g384
S'iwgx'
p423
sg386
I01
sg387
g398
sg389
Nsg390
Nsg391
Nsg393
I00
sg43
Nsbag358
(g380
g360
Ntp424
Rp425
(dp426
g384
S'iwgl'
p427
sg386
I01
sg387
g398
sg389
Nsg390
Nsg391
Nsg393
I00
sg43
Nsbag358
(g380
g360
Ntp428
Rp429
(dp430
g384
S'iwgeom'
p431
sg386
I01
sg387
g398
sg389
Nsg390
Nsg391
Nsg393
I00
sg43
Nsbag358
(g380
g360
Ntp432
Rp433
(dp434
g384
S'iwresmanager'
p435
sg386
I01
sg387
g398
sg389
Nsg390
Nsg391
Nsg393
I00
sg43
Nsbag358
(g380
g360
Ntp436
Rp437
(dp438
g384
S'iwgxfont'
p439
sg386
I01
sg387
g398
sg389
Nsg390
Nsg391
Nsg393
I00
sg43
Nsbag358
(g380
g360
Ntp440
Rp441
(dp442
g384
S'tiniconv'
p443
sg386
I01
sg387
g398
sg389
Nsg390
Nsg391
Nsg393
I00
sg43
Nsbag358
(g380
g360
Ntp444
Rp445
(dp446
g384
S's3e_cpp'
p447
sg386
I01
sg387
g388
sg389
I00
sg390
I00
sg391
Nsg393
I00
sg43
Nsbag358
(g380
g360
Ntp448
Rp449
(dp450
g384
S's3e_vc14'
p451
sg386
I01
sg387
(lp452
S'iwcrt.o'
p453
asg389
I00
sg390
I00
sg391
S'x86'
p454
sg393
I00
sg43
Nsbag358
(g380
g360
Ntp455
Rp456
(dp457
g384
S's3e'
p458
sg386
I01
sg387
(lp459
g453
asg389
I00
sg390
I00
sg391
S'!x86'
p460
sg393
I00
sg43
Nsbag358
(g380
g360
Ntp461
Rp462
(dp463
g384
g59
sg386
I01
sg387
g388
sg389
I00
sg390
I00
sg391
S'x86'
p464
sg393
I01
sg43
Nsbag358
(g380
g360
Ntp465
Rp466
(dp467
g384
g59
sg386
I01
sg387
g388
sg389
I00
sg390
I00
sg391
S'!x86'
p468
sg393
I01
sg43
Nsbag358
(g380
g360
Ntp469
Rp470
(dp471
g384
S'stdc++'
p472
sg386
I00
sg387
g388
sg389
I00
sg390
I00
sg391
S'mips'
p473
sg393
I00
sg43
Nsbag358
(g380
g360
Ntp474
Rp475
(dp476
g384
S'c'
p477
sg386
I00
sg387
g388
sg389
I00
sg390
I00
sg391
S'mips'
p478
sg393
I00
sg43
Nsbag358
(g380
g360
Ntp479
Rp480
(dp481
g384
S'm'
p482
sg386
I00
sg387
g388
sg389
I00
sg390
I00
sg391
S'mips'
p483
sg393
I00
sg43
Nsbag358
(g380
g360
Ntp484
Rp485
(dp486
g384
S'gcc'
p487
sg386
I00
sg387
g388
sg389
I00
sg390
I00
sg391
S'mips'
p488
sg393
I00
sg43
Nsbag358
(g380
g360
Ntp489
Rp490
(dp491
g384
g487
sg386
I00
sg387
g388
sg389
I00
sg390
I00
sg391
S'naclx86_64'
p492
sg393
I00
sg43
Nsbag358
(g380
g360
Ntp493
Rp494
(dp495
g384
S'gcc_eh'
p496
sg386
I00
sg387
g388
sg389
I00
sg390
I00
sg391
S'naclx86_64'
p497
sg393
I00
sg43
Nsbag358
(g380
g360
Ntp498
Rp499
(dp500
g384
g477
sg386
I00
sg387
g388
sg389
I00
sg390
I00
sg391
S'naclx86_64'
p501
sg393
I00
sg43
Nsbag358
(g380
g360
Ntp502
Rp503
(dp504
g384
g482
sg386
I00
sg387
g388
sg389
I00
sg390
I00
sg391
S'naclx86_64'
p505
sg393
I00
sg43
Nsbag358
(g380
g360
Ntp506
Rp507
(dp508
g384
S'supc++'
p509
sg386
I00
sg387
g388
sg389
I00
sg390
I00
sg391
S'naclx86_64'
p510
sg393
I00
sg43
Nsbag358
(g380
g360
Ntp511
Rp512
(dp513
g384
S'supc++'
p514
sg386
I00
sg387
g388
sg389
I00
sg390
I00
sg391
S'gcc_x86_android'
p515
sg393
I00
sg43
Nsbag358
(g380
g360
Ntp516
Rp517
(dp518
g384
g477
sg386
I00
sg387
g388
sg389
I00
sg390
I00
sg391
S'gcc_x86_android'
p519
sg393
I00
sg43
Nsbag358
(g380
g360
Ntp520
Rp521
(dp522
g384
g482
sg386
I00
sg387
g388
sg389
I00
sg390
I00
sg391
S'gcc_x86_android'
p523
sg393
I00
sg43
Nsbag358
(g380
g360
Ntp524
Rp525
(dp526
g384
g487
sg386
I00
sg387
g388
sg389
I00
sg390
I00
sg391
S'gcc_x86_android'
p527
sg393
I00
sg43
Nsbag358
(g380
g360
Ntp528
Rp529
(dp530
g384
S'dl'
p531
sg386
I00
sg387
g388
sg389
I00
sg390
I00
sg391
S'gcc_x86_android'
p532
sg393
I00
sg43
Nsbag358
(g380
g360
Ntp533
Rp534
(dp535
g384
S'supc++'
p536
sg386
I00
sg387
g388
sg389
I00
sg390
I00
sg391
S'gcc_arm_android'
p537
sg393
I00
sg43
Nsbag358
(g380
g360
Ntp538
Rp539
(dp540
g384
g477
sg386
I00
sg387
g388
sg389
I00
sg390
I00
sg391
S'gcc_arm_android'
p541
sg393
I00
sg43
Nsbag358
(g380
g360
Ntp542
Rp543
(dp544
g384
g482
sg386
I00
sg387
g388
sg389
I00
sg390
I00
sg391
S'gcc_arm_android'
p545
sg393
I00
sg43
Nsbag358
(g380
g360
Ntp546
Rp547
(dp548
g384
g487
sg386
I00
sg387
g388
sg389
I00
sg390
I00
sg391
S'gcc_arm_android'
p549
sg393
I00
sg43
Nsbag358
(g380
g360
Ntp550
Rp551
(dp552
g384
g531
sg386
I00
sg387
g388
sg389
I00
sg390
I00
sg391
S'gcc_arm_android'
p553
sg393
I00
sg43
NsbasS'library_paths'
p554
(lp555
g358
(cmkb_main
LibraryPath
p556
g360
Ntp557
Rp558
(dp559
S'expand_path'
p560
I01
sg384
S'c:/marmalade/7.10/modules/iwutil'
p561
sbag358
(g556
g360
Ntp562
Rp563
(dp564
g560
I01
sg384
S'c:/marmalade/7.10/modules/third_party/libjpeg'
p565
sbag358
(g556
g360
Ntp566
Rp567
(dp568
g560
I01
sg384
S'c:/marmalade/7.10/modules/third_party/zlib'
p569
sbag358
(g556
g360
Ntp570
Rp571
(dp572
g560
I01
sg384
S'c:/marmalade/7.10/modules/third_party/libpng'
p573
sbag358
(g556
g360
Ntp574
Rp575
(dp576
g560
I01
sg384
S'c:/marmalade/7.10/modules/iw2d'
p577
sbag358
(g556
g360
Ntp578
Rp579
(dp580
g560
I00
sg384
S'c:/marmalade/7.10/modules/iwgx/atitools'
p581
sbag358
(g556
g360
Ntp582
Rp583
(dp584
g560
I01
sg384
S'c:/marmalade/7.10/modules/iwgx'
p585
sbag358
(g556
g360
Ntp586
Rp587
(dp588
g560
I01
sg384
S'c:/marmalade/7.10/modules/iwgl'
p589
sbag358
(g556
g360
Ntp590
Rp591
(dp592
g560
I01
sg384
S'c:/marmalade/7.10/modules/iwgeom'
p593
sbag358
(g556
g360
Ntp594
Rp595
(dp596
g560
I01
sg384
S'c:/marmalade/7.10/modules/iwresmanager'
p597
sbag358
(g556
g360
Ntp598
Rp599
(dp600
g560
I01
sg384
S'c:/marmalade/7.10/modules/iwgxfont'
p601
sbag358
(g556
g360
Ntp602
Rp603
(dp604
g560
I01
sg384
S'c:/marmalade/7.10/modules/third_party/tiniconv'
p605
sbag358
(g556
g360
Ntp606
Rp607
(dp608
g560
I01
sg384
S'c:/marmalade/7.10/s3e'
p609
sbasS'macros'
p610
(dp611
S'IW_TRACE_CHANNEL_AMAZONADS'
p612
S'1'
p613
sS'IW_USE_CALLSTACK'
p614
NsS'IW_PLATFORM_S3E'
p615
NsS'I3D_PLATFORM_S3E'
p616
NsS'__S3E__'
p617
NsS'IW_TRACE_CHANNEL_AMAZONADS_VERBOSE'
p618
S'2'
p619
sS'IW_MKF_LIBJPEG'
p620
NsS'I3D_OS_S3E'
p621
NsS'IW_MKF_PVRTEXTOOL'
p622
NsS'IW_MKF_AMAZON_ADS_IOS_SDK'
p623
NsS'IW_MKF_TINICONV'
p624
NsS'IW_APP_VERSION'
p625
S'"1.0"'
p626
sS'IW_MKF_IWRESMANAGER'
p627
NsS'IW_MKF_FREELICENSE'
p628
NsS'IW_MKF_S3EAMAZONADS'
p629
NsS'IW_MKF_IWUTIL'
p630
NsS'IW_MKF_IWGEOM'
p631
NsS'IW_MKF_AMAZON_ADS_ANDROID_SDK'
p632
NsS'IW_ASSERTION_CHANNEL_2D'
p633
g613
sS'IW_APP_NAME'
p634
S'"Stage1"'
p635
sS'IW_MKF_S3E_DEFAULT'
p636
NsS'IW_MKF_IWGXFONT'
p637
NsS'IW_MKF_ZLIB'
p638
NsS'IW_MKF_IWGX'
p639
NsS'IW_ASSERTION_CHANNEL_AMAZONADS'
p640
g613
sS'IW_USE_ASSERTIONS'
p641
NsS'_CRT_SECURE_NO_DEPRECATE'
p642
NsS'IW_MKF_IWGL'
p643
NsS'IW_MKF_LIBPNG'
p644
NsS'IW_DEBUG'
p645
NsS'IW_USE_TRACING'
p646
NsS'IW_TRACE_CHANNEL_PVRTEXTOOL'
p647
g613
sS'IW_SDK'
p648
NsS'S3E_INCLUDE_LEGACY'
p649
NsS'IW_TRACE_CHANNEL_PVRTEXTOOL_VERBOSE'
p650
g619
sS'IW_MKF_IW2D'
p651
NsS'IW_ASSERTION_CHANNEL_PVRTEXTOOL'
p652
g613
ssS'done_warnings'
p653
(dp654
sS'subprojects'
p655
(dp656
g211
S'zlib'
p657
sg221
S'tiniconv'
p658
sg206
S's3e-default.mkf'
p659
sg219
S'PVRTexTool'
p660
sg218
S'iwresmanager'
p661
sg213
S'amazon-ads-ios-sdk'
p662
sg217
S'iwgeom'
p663
sg212
S'amazon-ads-android-sdk'
p664
sg215
S'iwgx'
p665
sg210
S'libpng'
p666
sg208
S'iwutil'
p667
sg207
S's3eAmazonAds'
p668
sg209
S'libjpeg'
p669
sg220
S'iwgxfont'
p670
sg216
S'iwgl'
p671
sg214
S'iw2d'
p672
ssS'deployments'
p673
(dp674
S'Default'
p675
g358
(cdeployment
Deployment
p676
g360
Ntp677
Rp678
(dp679
S'got_version'
p680
I0
sS'assets'
p681
g675
sS'mkb'
p682
g362
sS'target'
p683
Nsg391
(lp684
sS'options'
p685
(dp686
S'iphone-link-lib'
p687
(lp688
S's3eAmazonAds'
p689
asS'game-icf'
p690
NsS'android-tm'
p691
NsS'winmobile-icon32'
p692
NsS'ws8-logo-image150x150'
p693
NsS'wp81-logo-image150x150'
p694
NsS'win10-product-name'
p695
NsS'android-keystore'
p696
NsS'osx-ext-dll'
p697
(lp698
S'c:/marmalade/7.10/extensions/pvrtextool/lib/osx/libPVRTexTool.dylib'
p699
asS'iphone-provisioning-profile'
p700
NsS'win10-identity-name'
p701
NsS'ws8-splash-screen-image620x300'
p702
NsS'wp81-extra-pri'
p703
(lp704
sS'ws8-ext-capabilities'
p705
(lp706
sS'android-icon-hdpi'
p707
NsS'iphone-ipad-only'
p708
NsS'iphone-splash-full-orient'
p709
NsS'wp8-tile-fliptemplate-supports-large'
p710
NsS'iphone-show-status-bar'
p711
NsS'roku-requires-mkv'
p712
NsS'long-caption'
p713
NsS'android-pkgname'
p714
NsS'ws8-ext-native-only-dll'
p715
(lp716
sS'wp81-publisher-display-name'
p717
NsS'win10-logo-image150x150'
p718
NsS'blackberry-permissions-read-device-identifying-information'
p719
NsS'ws81-certificate-end-date'
p720
NsS'psp-dlgcontentid'
p721
NsS'android-version-code'
p722
NsS'win10-ext-uap-capabilities'
p723
(lp724
sS'iphone-minimum-ios-version'
p725
NsS'target-folder'
p726
NsS'tizen-dist1-CA-path'
p727
NsS'symbian-icon2-format'
p728
NsS'tizen-author-key'
p729
NsS'firefoxos-icon-128X128'
p730
NsS'iphone-region'
p731
NsS'uiq3-icon3-mask'
p732
NsS'brew-encoding'
p733
NsS'version'
p734
NsS'nds-initialcode'
p735
NsS'win10-ext-native-dll'
p736
(lp737
sS'iphone-persistent-wifi'
p738
NsS'psp-snd0'
p739
NsS'roku-icon-focus-hd'
p740
NsS'osx-appid'
p741
NsS'ws81-ext-native-only-dll'
p742
(lp743
sS'winmobile-install-folder'
p744
NsS'android-external-res'
p745
(lp746
sS'ws8-product-version'
p747
NsS'brew-priviledges'
p748
NsS'iphone-icon-ipad-search'
p749
NsS'iphone-icon-ipad'
p750
NsS'iphone-skip-icon-generation'
p751
NsS'nacl-icon-128X128'
p752
NsS'roku-hidden'
p753
NsS'psp-titlename'
p754
NsS'wp81-product-version'
p755
NsS'symbian-icon1-mask'
p756
NsS'psp-parentallevel'
p757
NsS'iphone-launch-storyboard'
p758
NsS'splashscreen-use-all'
p759
NsS'symbian-disable-ecompxl'
p760
NsS'splashscreen-auto-onblack'
p761
NsS'iphone-icon-dir'
p762
NsS'iphone-icon-extra'
p763
NsS'win32-ext-dll'
p764
(lp765
S'c:/marmalade/7.10/extensions/pvrtextool/lib/win32/PVRTexTool.dll'
p766
asS'iphone-development-key'
p767
NsS'winmobile-icon48'
p768
NsS'android-unsigned'
p769
NsS'osx-appstore-category'
p770
NsS'version-revision'
p771
NsS'roku-icon-focus-sd'
p772
NsS'ws81-product-version'
p773
NsS'winmobile-png90'
p774
NsS'iphone-icon-ipad-high-res'
p775
NsS'iphone-disable-ipad'
p776
NsS'win10-ext-sdk-ref'
p777
(lp778
sS'ws81-splash-screen-background'
p779
NsS'wp8-ext-capabilities'
p780
(lp781
sS'brew-icon-large'
p782
NsS'symbian-icon1-mask-black'
p783
NsS'ws8-extra-res'
p784
(lp785
sS'iphone-bundle-localisations'
p786
NsS'winmobile-png60'
p787
NsS'blackberry-permissions-access-shared'
p788
NsS'blackberry-author'
p789
NsS'android-icon-xxxhdpi'
p790
NsS'olddeploytoolstyle'
p791
NsS'android_icon_gallery'
p792
NsS'win10-distribution-pfx-password'
p793
NsS'wp81-splash-screen-background'
p794
NsS'wp8-exclude-720p'
p795
NsS'iphone-info-plist'
p796
NsS'ws81-ext-managed-dll'
p797
(lp798
sS'playbook-cskpass'
p799
NsS'win10-description'
p800
NsS'ws8-distribution-pfx-password'
p801
NsS'symbian-key'
p802
NsS'app-icf'
p803
NsS'blackberry-storepass'
p804
NsS'wp8-tile-fliptemplate-back-title'
p805
NsS'brew-compress-loader'
p806
NsS'iphone-testflight'
p807
NsS'win32-pref-windowposy'
p808
NsS'win32-pref-windowposx'
p809
NsS'roku-requires-audiometadata'
p810
NsS'wp8-exclude-low-mem'
p811
NsS'android-min-sdk-version'
p812
NsS'wp8-tile-fliptemplate-title'
p813
NsS'iphone-icon-ipad-search-high-res'
p814
NsS'iphone-link-libdir'
p815
(lp816
S'c:/marmalade/7.10/extensions/s3eamazonads/lib/iphone'
p817
asS'wp81-ext-capabilities'
p818
(lp819
sS'blackberry-permissions-read-geolocation'
p820
NsS'win10-splash-screen-image620x300'
p821
NsS'ws81-ext-device-capabilities'
p822
(lp823
sS'tizen-signed'
p824
NsS'android-extra-application-manifest'
p825
(lp826
S'c:/marmalade/7.10/extensions/s3eamazonads/source/android/ExtraAppManifests.xml'
p827
asS'android-x86'
p828
NsS'win10-extra-res'
p829
(lp830
sS'ws8-ext-native-dll'
p831
(lp832
sS'symbian-icon2-mask'
p833
NsS'iphone-launch-extra'
p834
NsS'webos-memory'
p835
NsS'android-keypass'
p836
NsS'name'
p837
NsS'uiq3-icon2-format'
p838
NsS'roku-splash-screen-sd'
p839
NsS'auto-derbh'
p840
NsS'roku-icon-side-sd'
p841
NsS'android-external-assets'
p842
(lp843
sS'nds-publicsavedatasize'
p844
NsS'splashscreen'
p845
NsS'wp8-product-id'
p846
NsS'iphone-icon-settings-high-res'
p847
NsS'android-manifest'
p848
NsS'ws81-splash-screen-image620x300'
p849
NsS'wp81-product-name'
p850
NsS's3e-compression'
p851
NsS'tizen-author-password'
p852
NsS'wp8-tile-fliptemplate-back-content'
p853
NsS'blackberry-extra-descriptor'
p854
(lp855
sS'android-java-source-version'
p856
NsS'symbian-icon1'
p857
NsS'symbian-icon2'
p858
NsS'nds-makercode'
p859
NsS'android-extra-styles-file'
p860
NsS'android-ext-target-sdk-version'
p861
(lp862
I17
asS'wp81-publisher-id'
p863
NsS'nds-bannertitle-jp'
p864
NsS'wp81-logo-image44x44'
p865
NsS'osx-sign-for-store'
p866
NsS'symbian7-uid'
p867
NsS'wp8-tile-fliptemplate-large-back-content'
p868
NsS'wp81-phone-publisher-id'
p869
NsS'nds-bannertitle-cn'
p870
NsS'iphone-distribution-key'
p871
NsS'win10-phone-publisher-id'
p872
NsS'android-icon-gallery'
p873
NsS'blackberry-keystore'
p874
NsS'iphone-nosign'
p875
NsS'caption'
p876
NsS'nacl-permissions'
p877
NsS'android-extra-manifest'
p878
(lp879
sS'wp81-ext-sdk-ref'
p880
(lp881
sS'android-icon-xxhdpi'
p882
NsS'version-minor'
p883
NsS'iphone-skip-launch-generation'
p884
NsS'iphone-link-libdirs'
p885
(lp886
sS'iphone-icon-large'
p887
NsS'symbian-keypwd'
p888
NsS'symbian8-uid'
p889
NsS'symbian-cert-key'
p890
NsS'winmobile-ampd-part-number'
p891
NsS'arch'
p892
NsS'nds-romheadertemplate'
p893
NsS'webos-icon'
p894
NsS'wp81-ext-device-capabilities'
p895
(lp896
sS'psp-dlgprotectdocument'
p897
NsS'ws8-splash-screen-background'
p898
NsS'android-icon-mdpi'
p899
NsS'android-sdk-build-tools-version'
p900
NsS'nds-icon'
p901
NsS'ws8-custom-manifest-fill'
p902
NsS'iphone-development-cert'
p903
NsS'symbian-icon2-mask-black'
p904
NsS'blackberry-phone-icon'
p905
NsS'iphone-enable-4inch-retina'
p906
NsS'ws8-custom-manifest'
p907
NsS'version-major'
p908
NsS'wp8-genre-isgame'
p909
NsS'uiq3-uid'
p910
NsS'iphone-splash-retina-generate'
p911
NsS'tizen-hw-acceleration'
p912
NsS'iphone_bundle_localisations'
p913
NsS'tizen-dist1-key'
p914
NsS'wp81-custom-manifest-fill'
p915
NsS'wp8-custom-manifest'
p916
NsS'nds-bannertitle-ge'
p917
NsS'iphone-sign-for-distribution'
p918
NsS'wp8-tile-fliptemplate-medium-back-image'
p919
NsS'wp8-publisher-id'
p920
NsS'icon'
p921
NsS'android-target-sdk-version'
p922
NsS'win10-ext-capabilities'
p923
(lp924
sS'wp8-exclude-wxga'
p925
NsS'wp81-identity-name'
p926
NsS'uiq3-icon2-mask'
p927
NsS'iphone-splashscreen-portrait'
p928
NsS'iphone-icon-high-res'
p929
NsS'ws81-distribution-pfx-password'
p930
NsS'playbook-author'
p931
NsS'wp8-custom-manifest-fill'
p932
NsS'linux-ext-lib'
p933
(lp934
sS'blackberry-permissions-access-internet'
p935
NsS'lgtv-use-drm'
p936
NsS'win10-splash-screen-image480x800'
p937
NsS'symbian-platsecflags'
p938
NsS'ws8-description'
p939
NsS'blackberry-playbook-icon'
p940
NsS'win10-distribution-cer'
p941
NsS'copyright'
p942
NsS'winmobile-cab-compress'
p943
NsS'win32-gles-directory'
p944
NsS'wp8-author'
p945
NsS'android-ext-min-sdk-version'
p946
(lp947
I4
asS'iphone-uiviewcontroller-based-status-bar'
p948
NsS'ws81-logo-image150x150'
p949
NsS'osx-signing-identity-app'
p950
NsS'tizen-project-url'
p951
NsS'symbian-icon-svg'
p952
NsS'android-aliasname'
p953
NsS'psp-dlgmanual'
p954
NsS'brew-uid'
p955
NsS'wp81-ext-native-only-dll'
p956
(lp957
sS'symbian-locationsupport'
p958
NsS'wp81-logo-image50x50'
p959
NsS'ws8-ext-managed-dll'
p960
(lp961
sS'nds-bannertitle-it'
p962
NsS'ws81-custom-manifest-fill'
p963
NsS'ws8-ext-sdk-manifest-part'
p964
(lp965
sS'uiq3-icon1-mask'
p966
NsS'winmobile-icon16'
p967
NsS'ws8-product-name'
p968
NsS'blackberry-cskpass'
p969
NsS'winmobile-start-menu-folder'
p970
NsS'brew-clsid'
p971
NsS'roku-requires-bluetooth'
p972
NsS'iphone-default-development-profile'
p973
NsS'ws8-ext-device-capabilities'
p974
(lp975
sS'blackberry-permissions-use-camera'
p976
NsS'ws81-extra-pri'
p977
(lp978
sS'iphone-prerendered-icon'
p979
NsS'iphone-appid'
p980
NsS'ws8-identity-name'
p981
NsS'tizen-dist2-CA-path'
p982
NsS'android-external-jars'
p983
(lp984
S'c:/marmalade/7.10/platform_libs/android/amazon-ads-android-sdk/third_party/lib/amazon-ads-5.5.149.jar'
p985
aS'c:/marmalade/7.10/extensions/s3eamazonads/lib/android/s3eAmazonAds.jar'
p986
asS'winmobile-icon64'
p987
NsS'blackberry-permissions-post-notification'
p988
NsS'winmobile-setup-dll'
p989
NsS'firefoxos-manifest'
p990
NsS'win8-winrt-extra-res'
p991
(lp992
sS'wp81-ext-sdk-manifest-part'
p993
(lp994
sS'symbian9-uid'
p995
NsS'iphone-icon-ipad-ios7'
p996
NsS'winmobile-trace-file'
p997
NsS'roku-splash-color'
p998
NsS'psp-appversion'
p999
NsS'android-java-target-version'
p1000
NsS'ws8-publisher-id'
p1001
NsS'win10-splash-screen-background'
p1002
NsS'win10-product-id'
p1003
NsS'win10-logo-image30x30'
p1004
NsS'winmobile-png45'
p1005
NsS'wp81-extra-res'
p1006
(lp1007
sS'android-storepass'
p1008
NsS'nacl-icon-16X16'
p1009
NsS'osx-signing-identity-inst'
p1010
NsS'android-custom-activity'
p1011
NsS'psp-discversion'
p1012
NsS'wp81-ext-managed-dll'
p1013
(lp1014
sS'nacl-clear-user-data'
p1015
NsS'psp-copyright'
p1016
NsS'win10-ext-managed-dll'
p1017
(lp1018
sS'win10-logo-image50x50'
p1019
NsS'embed-icf'
p1020
NsS'tizen-manifest'
p1021
NsS'osx-icon'
p1022
NsS'webos-appinfo'
p1023
NsS'psp-dlghealthwarning'
p1024
NsS'webos-appid'
p1025
NsS'roku-icon-side-hd'
p1026
NsS'iphone-icon-ipad-search-high-res-ios7'
p1027
NsS'iphone-extra-plist'
p1028
(lp1029
sS'ws81-ext-sdk-manifest-part'
p1030
(lp1031
sS'loader_name_prefix'
p1032
NsS'iphone-launch-dir'
p1033
NsS'nds-titlename'
p1034
NsS'ws81-logo-image50x50'
p1035
NsS'wp81-custom-manifest'
p1036
NsS'osx-entitlements-plist'
p1037
NsS'win10-product-version'
p1038
NsS'psp-dlgicon0'
p1039
NsS'winmobile-nouninstall'
p1040
NsS'psp-discid'
p1041
NsS'tizen-dist2-password'
p1042
NsS'android-supports-gl-texture'
p1043
(lp1044
sS'ws8-ext-sdk-ref'
p1045
(lp1046
sS'iphone-extra-string'
p1047
(lp1048
sS'version-string'
p1049
NsS'iphone-icon-high-res-ios7'
p1050
NsS'ws8-certificate-end-date'
p1051
NsS'nacl-skip-zip'
p1052
NsS'win10-custom-manifest'
p1053
NsS'tizen-so'
p1054
(lp1055
sS'win10-logo-image44x44'
p1056
NsS'win10-custom-manifest-fill'
p1057
NsS'wp8-tile-fliptemplate-small-image'
p1058
NsS'win10-certificate-end-date'
p1059
NsS'playbook-authorid'
p1060
NsS'win10-publisher-id'
p1061
NsS'iphone-signing-identity'
p1062
NsS'roku-persist-quota'
p1063
NsS'nds-bannertitle-fr'
p1064
NsS'ws8-distribution-pfx'
p1065
NsS'ws8-publisher-display-name'
p1066
NsS'brew-icon-small'
p1067
NsS'psp-dlgpic2'
p1068
NsS'psp-dlgpic0'
p1069
NsS'win10-phone-product-id'
p1070
NsS'psp-pic0'
p1071
NsS'psp-pic1'
p1072
NsS'win32-pref-windowtitle'
p1073
NsS'psp-icon0'
p1074
NsS'psp-icon1'
p1075
NsS'ws81-identity-name'
p1076
NsS'win10-distribution-pfx'
p1077
NsS'winmobile-icon'
p1078
NsS'iphone-no-splash'
p1079
NsS'iphone-splash'
p1080
NsS'iphone-app-fonts'
p1081
NsS'wp8-ext-native-dll'
p1082
(lp1083
sS'wp81-splash-screen-image480x800'
p1084
NsS'ws81-distribution-cer'
p1085
NsS'win10-ext-sdk-manifest-part'
p1086
(lp1087
sS'uiq3-icon2'
p1088
NsS'uiq3-icon3'
p1089
NsS'uiq3-icon1'
p1090
NsS'uiq3-icon1-format'
p1091
NsS'ws8-logo-image50x50'
p1092
NsS'iphone-info-plist-override'
p1093
NsS'symbian-run-on-install'
p1094
NsS'wp81-description'
p1095
NsS'ws81-publisher-display-name'
p1096
NsS'android-version-name'
p1097
NsS'firefoxos-xulrunner'
p1098
NsS'symbian-soundrecordsupport'
p1099
NsS'iphone-backgroundmode-audio'
p1100
NsS'nds-bannertitle-sp'
p1101
NsS'win10-extra-pri'
p1102
(lp1103
sS'psp-producer'
p1104
NsS'iphone-apple-wwdr-cert'
p1105
NsS'android-icon-nonstandard'
p1106
NsS'win32-pref-processtitle'
p1107
NsS'android-icon-xhdpi'
p1108
NsS'nds-bannertitle-hn'
p1109
NsS'tizen-dist2-key'
p1110
NsS'brew-depends'
p1111
NsS'ws81-custom-manifest'
p1112
NsS'iphone-allow-launch-rotation'
p1113
NsS'brew-mif'
p1114
NsS'iphone-icon-ipad-search-ios7'
p1115
NsS'brew-icon-medium'
p1116
NsS'iphone-bundle-url-name'
p1117
NsS'wp8-tile-fliptemplate-large-front-image'
p1118
NsS'tizen-dist2-CA-root-path'
p1119
NsS'ws81-description'
p1120
NsS'uiq3-icon3-format'
p1121
NsS'win10-publisher-display-name'
p1122
NsS'ws81-logo-image30x30'
p1123
NsS'win10-ext-device-capabilities'
p1124
(lp1125
sS'win8-phone-extra-res'
p1126
(lp1127
sS'iphone-signing-host'
p1128
NsS'tizen-icon'
p1129
NsS'osx-info-plist'
p1130
NsS'symbian-icon1-format'
p1131
NsS'ws81-distribution-pfx'
p1132
NsS'win32-aux-dll'
p1133
(lp1134
sS'blackberry-authorid'
p1135
NsS'ws81-publisher-id'
p1136
NsS'win8-store-extra-res'
p1137
(lp1138
sS'wp8-description'
p1139
NsS'iphone-link-opts'
p1140
(lp1141
S'-Fc:/marmalade/7.10/platform_libs/iphone/amazon-ads-ios-sdk/third_party/Ads -framework AmazonAd'
p1142
aS'-weak_framework AdSupport -weak_framework CoreLocation -weak_framework SystemConfiguration'
p1143
aS'-weak_framework CoreTelephony -weak_framework MediaPlayer'
p1144
aS'-weak_framework EventKit -weak_framework EventKitUI'
p1145
asS'ws81-ext-sdk-ref'
p1146
(lp1147
sS'roku-splash-min-time'
p1148
NsS'wp8-tile-fliptemplate-medium-front-image'
p1149
NsS'iphone-disable-launch-images'
p1150
NsS'android-sdk-platform-version'
p1151
NsS'provider'
p1152
NsS'playbook-keystore'
p1153
NsS'tizen-appid'
p1154
NsS'wp8-extra-res'
p1155
(lp1156
sS'symbian-osexecsupport'
p1157
NsS'android-install-location'
p1158
NsS'nds-privatesavedatasize'
p1159
NsS'iphone-disable-testflight'
p1160
NsS'playbook-storepass'
p1161
NsS'android-icon-ldpi'
p1162
NsS'manufacturer'
p1163
NsS'itunes-artwork'
p1164
NsS'iphone-extra-sections'
p1165
NsS'ws81-product-name'
p1166
NsS'ws81-ext-native-dll'
p1167
(lp1168
sS'ws8-extra-pri'
p1169
(lp1170
sS'win32-icon'
p1171
NsS'ws8-logo-image30x30'
p1172
NsS'wp8-ext-managed-dll'
p1173
(lp1174
sS'iphone-splashscreen-landscape'
p1175
NsS'symbian-maxheapsize'
p1176
NsS'android-extra-packages'
p1177
(lp1178
sS'priv-sign-key'
p1179
NsS'networking'
p1180
NsS'android-icon'
p1181
NsS'iphone-icon-settings'
p1182
NsS'nacl-manifest'
p1183
NsS'wp81-phone-product-id'
p1184
NsS'firefoxos-icon-60X60'
p1185
NsS'iphone-distribution-cert'
p1186
NsS'android_extra_strings'
p1187
NsS'nds-bannertitle-en'
p1188
NsS'blackberry-permissions-record-audio'
p1189
NsS'android-so'
p1190
(lp1191
S'c:/marmalade/7.10/extensions/s3eamazonads/lib/android/libs3eAmazonAds.so'
p1192
asS'wp8-higher-mem'
p1193
NsS'wp8-ext-sdk-ref'
p1194
(lp1195
sS'wp8-fast-resume-mode'
p1196
NsS'roku-splash-screen-hd'
p1197
NsS'iphone-bundle-url-schemes'
p1198
NsS'roku-screensaver-private'
p1199
NsS'osx-extra-res'
p1200
(lp1201
sS'ws81-extra-res'
p1202
(lp1203
sS'playbook-icon'
p1204
NsS'uid'
p1205
NsS'pkguid-as-uid'
p1206
NsS'wp81-ext-native-dll'
p1207
(lp1208
sS'tizen-dist1-password'
p1209
NsS'roku-screensaver-title'
p1210
NsS'osx-minimum-osx-version'
p1211
NsS'symbian-cert'
p1212
NsS'iphone-icon'
p1213
NsS'ws81-ext-capabilities'
p1214
(lp1215
sS'ws8-distribution-cer'
p1216
NsS'playbook-access-shared'
p1217
NsS'iphone-icon-ipad-high-res-ios7'
p1218
NsS'iphone-link-libs'
p1219
(lp1220
sS'wp8-exclude-wvga'
p1221
NsS'assets'
p1222
NsS'wp8-tile-fliptemplate-large-back-image'
p1223
NsS'pub-sign-key'
p1224
NsS'nacl-legacy-ext'
p1225
NsS'android-extra-strings'
p1226
(lp1227
sS'tizen-author-CA-path'
p1228
Nssg384
g675
sbssS'platform'
p1229
S'S3E'
p1230
sg75
S'1.0'
p1231
sS'arcade_platform'
p1232
g4
sS'extensions'
p1233
(dp1234
sS'source_groups_tree'
p1235
(dp1236
S'(libpng)'
p1237
(dp1238
S'h'
p1239
(dp1240
S'c:/marmalade/7.10/modules/third_party/libpng/h/png.h'
p1241
(lp1242
I1
a(dp1243
asS'c:/marmalade/7.10/modules/third_party/libpng/h/pngconf.h'
p1244
(lp1245
I1
ag1243
assS'c:/marmalade/7.10/modules/third_party/libpng/libpng.mkf'
p1246
(lp1247
I1
a(dp1248
assS'(amazon-ads-android-sdk)'
p1249
(dp1250
S'c:/marmalade/7.10/platform_libs/android/amazon-ads-android-sdk/amazon-ads-android-sdk.mkf'
p1251
(lp1252
I1
a(dp1253
assS'(tiniconv)'
p1254
(dp1255
S'c:/marmalade/7.10/modules/third_party/tiniconv/source/tiniconv.h'
p1256
(lp1257
I1
a(dp1258
asS'c:/marmalade/7.10/modules/third_party/tiniconv/source/tiniconv_int.h'
p1259
(lp1260
I1
ag1258
asS'c:/marmalade/7.10/modules/third_party/tiniconv/tiniconv.mkf'
p1261
(lp1262
I1
a(dp1263
assS'd:/Marmalade/Stage1/Stage1.cpp'
p1264
(lp1265
I1
a(dp1266
asS'(amazon-ads-ios-sdk)'
p1267
(dp1268
S'c:/marmalade/7.10/platform_libs/iphone/amazon-ads-ios-sdk/amazon-ads-ios-sdk.mkf'
p1269
(lp1270
I1
a(dp1271
assS'Extensions'
p1272
(dp1273
S's3eAmazonAds'
p1274
(dp1275
S'interface'
p1276
(dp1277
S'c:/marmalade/7.10/extensions/s3eamazonads/interface/s3eAmazonAds.defines.txt'
p1278
(lp1279
I1
a(dp1280
asS'c:/marmalade/7.10/extensions/s3eamazonads/interface/s3eAmazonAds_interface.cpp'
p1281
(lp1282
I1
ag1280
assS'c:/marmalade/7.10/extensions/s3eamazonads/s3eamazonads.mkf'
p1283
(lp1284
I1
a(dp1285
asS'c:/marmalade/7.10/extensions/s3eamazonads/h/s3eAmazonAds.h'
p1286
(lp1287
I1
ag1280
assS'PVRTexTool'
p1288
(dp1289
S'interface'
p1290
(dp1291
S'c:/marmalade/7.10/extensions/pvrtextool/interface/PVRTexTool_interface.cpp'
p1292
(lp1293
I1
a(dp1294
asS'c:/marmalade/7.10/extensions/pvrtextool/interface/PVRTexTool.defines.txt'
p1295
(lp1296
I1
ag1294
assS'c:/marmalade/7.10/extensions/pvrtextool/h/PVRTexTool.h'
p1297
(lp1298
I1
ag1294
asS'c:/marmalade/7.10/extensions/pvrtextool/pvrtextool.mkf'
p1299
(lp1300
I1
a(dp1301
asssS'(s3e-default)'
p1302
(dp1303
S'c:/marmalade/7.10/s3e/s3e-default.mkf'
p1304
(lp1305
I1
a(dp1306
assS"'Marmalade Studio'"
p1307
(dp1308
S'iwgl'
p1309
(dp1310
S'c:/marmalade/7.10/modules/iwgl/iwgl.mkf'
p1311
(lp1312
I1
a(dp1313
asS'c:/marmalade/7.10/modules/iwgl/h/IwGL.h'
p1314
(lp1315
I1
a(dp1316
asS'c:/marmalade/7.10/modules/iwgl/docs/iwgl.config.txt'
p1317
(lp1318
I1
ag1316
asS'c:/marmalade/7.10/modules/iwgl/h/IwGLExt.h'
p1319
(lp1320
I1
ag1316
assS'iw2d'
p1321
(dp1322
S'c:/marmalade/7.10/modules/iw2d/iw2d.mkf'
p1323
(lp1324
I1
a(dp1325
asS'c:/marmalade/7.10/modules/iw2d/docs/iw2d_public.defines.txt'
p1326
(lp1327
I1
a(dp1328
asS'c:/marmalade/7.10/modules/iw2d/h/Iw2D.h'
p1329
(lp1330
I1
ag1328
asS'c:/marmalade/7.10/modules/iw2d/docs/iw2d.config.txt'
p1331
(lp1332
I1
ag1328
assS'iwgxfont'
p1333
(dp1334
S'c:/marmalade/7.10/modules/iwgxfont/h/IwGxFont.h'
p1335
(lp1336
I1
a(dp1337
asS'c:/marmalade/7.10/modules/iwgxfont/h/IwGxFontPreparedData.h'
p1338
(lp1339
I1
ag1337
asS'c:/marmalade/7.10/modules/iwgxfont/iwgxfont.mkf'
p1340
(lp1341
I1
a(dp1342
asS'c:/marmalade/7.10/modules/iwgxfont/docs/iwgxfont.config.txt'
p1343
(lp1344
I1
ag1337
asS'c:/marmalade/7.10/modules/iwgxfont/h/IwGxFontState.h'
p1345
(lp1346
I1
ag1337
asS'c:/marmalade/7.10/modules/iwgxfont/docs/iwgxfont_public.defines.txt'
p1347
(lp1348
I1
ag1337
asS'c:/marmalade/7.10/modules/iwgxfont/h/IwGxFontContainer.h'
p1349
(lp1350
I1
ag1337
asS'c:/marmalade/7.10/modules/iwgxfont/h/IwGxFontGlyph.h'
p1351
(lp1352
I1
ag1337
asS'c:/marmalade/7.10/modules/iwgxfont/h/IwGxFontTypes.h'
p1353
(lp1354
I1
ag1337
assS'iwgeom'
p1355
(dp1356
S'c:/marmalade/7.10/modules/iwgeom/h/IwGeomQuat.h'
p1357
(lp1358
I1
a(dp1359
asS'c:/marmalade/7.10/modules/iwgeom/h/IwGeomMat2D.h.tpl'
p1360
(lp1361
I1
ag1359
asS'c:/marmalade/7.10/modules/iwgeom/h/IwGeomIntersect.h'
p1362
(lp1363
I1
ag1359
asS'c:/marmalade/7.10/modules/iwgeom/h/IwGeomQuat.h.tpl'
p1364
(lp1365
I1
ag1359
asS'c:/marmalade/7.10/modules/iwgeom/h/IwGeomVec.h.tpl'
p1366
(lp1367
I1
ag1359
asS'c:/marmalade/7.10/modules/iwgeom/docs/iwgeom.config.txt'
p1368
(lp1369
I1
ag1359
asS'c:/marmalade/7.10/modules/iwgeom/h/IwGeomFBBox.h'
p1370
(lp1371
I1
ag1359
asS'c:/marmalade/7.10/modules/iwgeom/iwgeom.mkf'
p1372
(lp1373
I1
a(dp1374
asS'c:/marmalade/7.10/modules/iwgeom/h/IwGeomFSphere.h'
p1375
(lp1376
I1
ag1359
asS'c:/marmalade/7.10/modules/iwgeom/h/IwGeomSVec4.h'
p1377
(lp1378
I1
ag1359
asS'c:/marmalade/7.10/modules/iwgeom/h/IwGeomPlane.h'
p1379
(lp1380
I1
ag1359
asS'c:/marmalade/7.10/modules/iwgeom/h/IwGeomSVec3.h'
p1381
(lp1382
I1
ag1359
asS'c:/marmalade/7.10/modules/iwgeom/h/IwGeomVec4.h'
p1383
(lp1384
I1
ag1359
asS'c:/marmalade/7.10/modules/iwgeom/h/IwGeom.h'
p1385
(lp1386
I1
ag1359
asS'c:/marmalade/7.10/modules/iwgeom/h/IwGeomVec3.h'
p1387
(lp1388
I1
ag1359
asS'c:/marmalade/7.10/modules/iwgeom/h/IwGeomMat.h.tpl'
p1389
(lp1390
I1
ag1359
asS'c:/marmalade/7.10/modules/iwgeom/h/IwGeomFQuat.h'
p1391
(lp1392
I1
ag1359
asS'c:/marmalade/7.10/modules/iwgeom/h/IwGeomSphere.h'
p1393
(lp1394
I1
ag1359
asS'c:/marmalade/7.10/modules/iwgeom/h/IwGeomLegacy.h'
p1395
(lp1396
I1
ag1359
asS'c:/marmalade/7.10/modules/iwgeom/h/IwGeomVec2.h'
p1397
(lp1398
I1
ag1359
asS'c:/marmalade/7.10/modules/iwgeom/h/IwGeomFIntersect.h'
p1399
(lp1400
I1
ag1359
asS'c:/marmalade/7.10/modules/iwgeom/h/IwGeomFPlane.h'
p1401
(lp1402
I1
ag1359
asS'c:/marmalade/7.10/modules/iwgeom/h/IwGeomSQuat.h'
p1403
(lp1404
I1
ag1359
asS'c:/marmalade/7.10/modules/iwgeom/h/IwGeomSVec2.h'
p1405
(lp1406
I1
ag1359
asS'c:/marmalade/7.10/modules/iwgeom/h/IwGeomBBox.h'
p1407
(lp1408
I1
ag1359
asS'c:/marmalade/7.10/modules/iwgeom/h/IwGeomFMat2D.h'
p1409
(lp1410
I1
ag1359
asS'c:/marmalade/7.10/modules/iwgeom/h/IwGeomVec.h'
p1411
(lp1412
I1
ag1359
asS'c:/marmalade/7.10/modules/iwgeom/h/IwGeomMenu.h'
p1413
(lp1414
I1
ag1359
asS'c:/marmalade/7.10/modules/iwgeom/h/IwGeomFVec2.h'
p1415
(lp1416
I1
ag1359
asS'c:/marmalade/7.10/modules/iwgeom/h/IwGeomFMat.h'
p1417
(lp1418
I1
ag1359
asS'c:/marmalade/7.10/modules/iwgeom/h/IwGeomCore.h'
p1419
(lp1420
I1
ag1359
asS'c:/marmalade/7.10/modules/iwgeom/h/IwGeomFVec3.h'
p1421
(lp1422
I1
ag1359
asS'c:/marmalade/7.10/modules/iwgeom/h/IwGeomMat2D.h'
p1423
(lp1424
I1
ag1359
asS'c:/marmalade/7.10/modules/iwgeom/h/IwGeomMat.h'
p1425
(lp1426
I1
ag1359
asS'c:/marmalade/7.10/modules/iwgeom/h/IwGeomFVec4.h'
p1427
(lp1428
I1
ag1359
asS'c:/marmalade/7.10/modules/iwgeom/h/IwGeomSqrt.h'
p1429
(lp1430
I1
ag1359
assS'iwresmanager'
p1431
(dp1432
S'c:/marmalade/7.10/modules/iwresmanager/h/IwResHandler.h'
p1433
(lp1434
I1
a(dp1435
asS'c:/marmalade/7.10/modules/iwresmanager/docs/iwresmanager.config.txt'
p1436
(lp1437
I1
ag1435
asS'c:/marmalade/7.10/modules/iwresmanager/h/IwResHandlerImage.h'
p1438
(lp1439
I1
ag1435
asS'c:/marmalade/7.10/modules/iwresmanager/h/IwResHandlerITX.h'
p1440
(lp1441
I1
ag1435
asS'c:/marmalade/7.10/modules/iwresmanager/h/IwResManager.h'
p1442
(lp1443
I1
ag1435
asS'c:/marmalade/7.10/modules/iwresmanager/h/IwResSerialise.h'
p1444
(lp1445
I1
ag1435
asS'c:/marmalade/7.10/modules/iwresmanager/iwresmanager.mkf'
p1446
(lp1447
I1
a(dp1448
asS'c:/marmalade/7.10/modules/iwresmanager/h/IwResManagerClass.h'
p1449
(lp1450
I1
ag1435
asS'c:/marmalade/7.10/modules/iwresmanager/h/IwResGroup.h'
p1451
(lp1452
I1
ag1435
asS'c:/marmalade/7.10/modules/iwresmanager/h/IwResHandlerGROUP.h'
p1453
(lp1454
I1
ag1435
assS'iwgx'
p1455
(dp1456
S'c:/marmalade/7.10/modules/iwgx/h/IwGxPrint.h'
p1457
(lp1458
I1
a(dp1459
asS'c:/marmalade/7.10/modules/iwgx/h/IwGxError.h'
p1460
(lp1461
I1
ag1459
asS'c:/marmalade/7.10/modules/iwgx/h/IwGxSurface.h'
p1462
(lp1463
I1
ag1459
asS'c:/marmalade/7.10/modules/iwgx/h/IwGxTransformSW.h'
p1464
(lp1465
I1
ag1459
asS'c:/marmalade/7.10/modules/iwgx/h/IwGxDebug.h'
p1466
(lp1467
I1
ag1459
asS'c:/marmalade/7.10/modules/iwgx/h/IwClip.h'
p1468
(lp1469
I1
ag1459
asS'c:/marmalade/7.10/modules/iwgx/docs/iwgx.config.txt'
p1470
(lp1471
I1
ag1459
asS'c:/marmalade/7.10/modules/iwgx/h/IwColour.h'
p1472
(lp1473
I1
ag1459
asS'c:/marmalade/7.10/modules/iwgx/h/IwGxTypes.h'
p1474
(lp1475
I1
ag1459
asS'c:/marmalade/7.10/modules/iwgx/h/IwGx.h'
p1476
(lp1477
I1
ag1459
asS'c:/marmalade/7.10/modules/iwgx/h/IwDebugPrim.h'
p1478
(lp1479
I1
ag1459
asS'c:/marmalade/7.10/modules/iwgx/h/IwGxMetrics.h'
p1480
(lp1481
I1
ag1459
asS'c:/marmalade/7.10/modules/iwgx/iwgx.mkf'
p1482
(lp1483
I1
a(dp1484
asS'c:/marmalade/7.10/modules/iwgx/h/IwClip.inl'
p1485
(lp1486
I1
ag1459
asS'c:/marmalade/7.10/modules/iwgx/h/IwMatAnim.h'
p1487
(lp1488
I1
ag1459
asS'c:/marmalade/7.10/modules/iwgx/h/IwGxState.h'
p1489
(lp1490
I1
ag1459
asS'c:/marmalade/7.10/modules/iwgx/h/IwTexture.h'
p1491
(lp1492
I1
ag1459
asS'c:/marmalade/7.10/modules/iwgx/h/IwGxStream.h'
p1493
(lp1494
I1
ag1459
asS'c:/marmalade/7.10/modules/iwgx/h/IwTPage.h'
p1495
(lp1496
I1
ag1459
asS'c:/marmalade/7.10/modules/iwgx/h/IwResHandlerMTL.h'
p1497
(lp1498
I1
ag1459
asS'c:/marmalade/7.10/modules/iwgx/h/IwMaterial.h'
p1499
(lp1500
I1
ag1459
asS'c:/marmalade/7.10/modules/iwgx/h/IwGxFuncTable.h'
p1501
(lp1502
I1
ag1459
asS'c:/marmalade/7.10/modules/iwgx/h/IwFColour.h'
p1503
(lp1504
I1
ag1459
asS'c:/marmalade/7.10/modules/iwgx/docs/iwgx_public.defines.txt'
p1505
(lp1506
I1
ag1459
asS'c:/marmalade/7.10/modules/iwgx/h/IwGxShaderTechnique.h'
p1507
(lp1508
I1
ag1459
assS'iwutil'
p1509
(dp1510
S'c:/marmalade/7.10/modules/iwutil/h/IwDivTable.h'
p1511
(lp1512
I1
a(dp1513
asS'c:/marmalade/7.10/modules/iwutil/h/IwPath.h'
p1514
(lp1515
I1
ag1513
asS'c:/marmalade/7.10/modules/iwutil/h/IwFile.h'
p1516
(lp1517
I1
ag1513
asS'c:/marmalade/7.10/modules/iwutil/h/IwImage.h'
p1518
(lp1519
I1
ag1513
asS'c:/marmalade/7.10/modules/iwutil/h/IwMenu.h'
p1520
(lp1521
I1
ag1513
asS'c:/marmalade/7.10/modules/iwutil/h/IwArray.h'
p1522
(lp1523
I1
ag1513
asS'c:/marmalade/7.10/modules/iwutil/h/IwMemBucketHelpers.h'
p1524
(lp1525
I1
ag1513
asS'c:/marmalade/7.10/modules/iwutil/h/IwClassFactory.h'
p1526
(lp1527
I1
ag1513
asS'c:/marmalade/7.10/modules/iwutil/iwutil.mkf'
p1528
(lp1529
I1
a(dp1530
asS'c:/marmalade/7.10/modules/iwutil/h/IwDivide.h'
p1531
(lp1532
I1
ag1513
asS'c:/marmalade/7.10/modules/iwutil/h/IwMemory.h'
p1533
(lp1534
I1
ag1513
asS'c:/marmalade/7.10/modules/iwutil/h/IwManagedList.h'
p1535
(lp1536
I1
ag1513
asS'c:/marmalade/7.10/modules/iwutil/h/IwUtil.h'
p1537
(lp1538
I1
ag1513
asS'c:/marmalade/7.10/modules/iwutil/h/IwFibre.h'
p1539
(lp1540
I1
ag1513
asS'c:/marmalade/7.10/modules/iwutil/h/IwBuffer.h'
p1541
(lp1542
I1
ag1513
asS'c:/marmalade/7.10/modules/iwutil/h/IwHashString.h'
p1543
(lp1544
I1
ag1513
asS'c:/marmalade/7.10/modules/iwutil/h/IwSingleton.h'
p1545
(lp1546
I1
ag1513
asS'c:/marmalade/7.10/modules/iwutil/h/IwSerialise.h'
p1547
(lp1548
I1
ag1513
asS'c:/marmalade/7.10/modules/iwutil/h/IwMath.h'
p1549
(lp1550
I1
ag1513
asS'c:/marmalade/7.10/modules/iwutil/h/IwTypes.h'
p1551
(lp1552
I1
ag1513
asS'c:/marmalade/7.10/modules/iwutil/h/IwTextParser.h'
p1553
(lp1554
I1
ag1513
asS'c:/marmalade/7.10/modules/iwutil/h/IwOptimiseSpeed.h'
p1555
(lp1556
I1
ag1513
asS'c:/marmalade/7.10/modules/iwutil/h/IwKeymap.h'
p1557
(lp1558
I1
ag1513
asS'c:/marmalade/7.10/modules/iwutil/h/IwCore.h'
p1559
(lp1560
I1
ag1513
asS'c:/marmalade/7.10/modules/iwutil/h/IwAllocator.h'
p1561
(lp1562
I1
ag1513
asS'c:/marmalade/7.10/modules/iwutil/h/IwChar.h'
p1563
(lp1564
I1
ag1513
asS'c:/marmalade/7.10/modules/iwutil/h/IwOptimiseThumb.h'
p1565
(lp1566
I1
ag1513
asS'c:/marmalade/7.10/modules/iwutil/h/IwAutoFile.h'
p1567
(lp1568
I1
ag1513
asS'c:/marmalade/7.10/modules/iwutil/h/IwManaged.h'
p1569
(lp1570
I1
ag1513
asS'c:/marmalade/7.10/modules/iwutil/h/IwOptimiseARM.h'
p1571
(lp1572
I1
ag1513
asS'c:/marmalade/7.10/modules/iwutil/h/IwTextParserITX.h'
p1573
(lp1574
I1
ag1513
asS'c:/marmalade/7.10/modules/iwutil/h/IwList.h'
p1575
(lp1576
I1
ag1513
asS'c:/marmalade/7.10/modules/iwutil/h/IwUncopyable.h'
p1577
(lp1578
I1
ag1513
asS'c:/marmalade/7.10/modules/iwutil/h/IwRandom.h'
p1579
(lp1580
I1
ag1513
asS'c:/marmalade/7.10/modules/iwutil/h/IwProfileMenu.h'
p1581
(lp1582
I1
ag1513
asS'c:/marmalade/7.10/modules/iwutil/h/IwDebug.h'
p1583
(lp1584
I1
ag1513
asS'c:/marmalade/7.10/modules/iwutil/h/IwTextParseable.h'
p1585
(lp1586
I1
ag1513
asS'c:/marmalade/7.10/modules/iwutil/h/IwResource.h'
p1587
(lp1588
I1
ag1513
asS'c:/marmalade/7.10/modules/iwutil/h/IwOptimiseSize.h'
p1589
(lp1590
I1
ag1513
asS'c:/marmalade/7.10/modules/iwutil/h/IwVariableBitField.h'
p1591
(lp1592
I1
ag1513
asS'c:/marmalade/7.10/modules/iwutil/h/IwCopyingPtr.h'
p1593
(lp1594
I1
ag1513
asS'c:/marmalade/7.10/modules/iwutil/docs/iwutil.config.txt'
p1595
(lp1596
I1
ag1513
asS'c:/marmalade/7.10/modules/iwutil/h/IwUtilInitTerm.h'
p1597
(lp1598
I1
ag1513
asS'c:/marmalade/7.10/modules/iwutil/h/IwEvent.h'
p1599
(lp1600
I1
ag1513
asS'c:/marmalade/7.10/modules/iwutil/h/IwRuntime.h'
p1601
(lp1602
I1
ag1513
asS'c:/marmalade/7.10/modules/iwutil/h/IwUTF8.h'
p1603
(lp1604
I1
ag1513
asS'c:/marmalade/7.10/modules/iwutil/h/IwImageHelper.h'
p1605
(lp1606
I1
ag1513
asS'c:/marmalade/7.10/modules/iwutil/h/IwMemManagerDL.h'
p1607
(lp1608
I1
ag1513
asS'c:/marmalade/7.10/modules/iwutil/h/IwMemBucket.h'
p1609
(lp1610
I1
ag1513
asS'c:/marmalade/7.10/modules/iwutil/h/IwString.h'
p1611
(lp1612
I1
ag1513
asssS'(zlib)'
p1613
(dp1614
g1239
(dp1615
S'c:/marmalade/7.10/modules/third_party/zlib/h/zconf.h'
p1616
(lp1617
I1
a(dp1618
asS'c:/marmalade/7.10/modules/third_party/zlib/h/zlib.h'
p1619
(lp1620
I1
ag1618
assS'c:/marmalade/7.10/modules/third_party/zlib/zlib.mkf'
p1621
(lp1622
I1
a(dp1623
assS'(libjpeg)'
p1624
(dp1625
g1239
(dp1626
S'c:/marmalade/7.10/modules/third_party/libjpeg/h/jpeglib.h'
p1627
(lp1628
I1
a(dp1629
asS'c:/marmalade/7.10/modules/third_party/libjpeg/h/jdhuff.h'
p1630
(lp1631
I1
ag1629
asS'c:/marmalade/7.10/modules/third_party/libjpeg/h/transupp.h'
p1632
(lp1633
I1
ag1629
asS'c:/marmalade/7.10/modules/third_party/libjpeg/h/cdjpeg.h'
p1634
(lp1635
I1
ag1629
asS'c:/marmalade/7.10/modules/third_party/libjpeg/h/jerror.h'
p1636
(lp1637
I1
ag1629
asS'c:/marmalade/7.10/modules/third_party/libjpeg/h/jconfig.h'
p1638
(lp1639
I1
ag1629
asS'c:/marmalade/7.10/modules/third_party/libjpeg/h/jmorecfg.h'
p1640
(lp1641
I1
ag1629
asS'c:/marmalade/7.10/modules/third_party/libjpeg/h/jdct.h'
p1642
(lp1643
I1
ag1629
asS'c:/marmalade/7.10/modules/third_party/libjpeg/h/cderror.h'
p1644
(lp1645
I1
ag1629
asS'c:/marmalade/7.10/modules/third_party/libjpeg/h/jmemsys.h'
p1646
(lp1647
I1
ag1629
asS'c:/marmalade/7.10/modules/third_party/libjpeg/h/jchuff.h'
p1648
(lp1649
I1
ag1629
asS'c:/marmalade/7.10/modules/third_party/libjpeg/h/jpegint.h'
p1650
(lp1651
I1
ag1629
asS'c:/marmalade/7.10/modules/third_party/libjpeg/h/jinclude.h'
p1652
(lp1653
I1
ag1629
asS'c:/marmalade/7.10/modules/third_party/libjpeg/h/jversion.h'
p1654
(lp1655
I1
ag1629
assS'c:/marmalade/7.10/modules/third_party/libjpeg/libjpeg.mkf'
p1656
(lp1657
I1
a(dp1658
asssS'files'
p1659
(dp1660
S'IwGxFontPreparedData.h'
p1661
g358
(cmkb_main
File
p1662
g360
Ntp1663
Rp1664
(dp1665
S'flags'
p1666
g1337
sS'group'
p1667
(lp1668
S"'Marmalade Studio'"
p1669
ag1333
asg384
g1338
sbsS'iterator'
p1670
g358
(g1662
g360
Ntp1671
Rp1672
(dp1673
g1666
(dp1674
sg1667
(lp1675
S"'Marmalade System (S3E)'"
p1676
aS'stdc headers'
p1677
aS'c++'
p1678
asg384
S'c:/marmalade/7.10/s3e/h/std/c++/iterator'
p1679
sbsS'IwGL.h'
p1680
g358
(g1662
g360
Ntp1681
Rp1682
(dp1683
g1666
g1316
sg1667
(lp1684
S"'Marmalade Studio'"
p1685
ag1309
asg384
g1314
sbsS's3e.h'
p1686
g358
(g1662
g360
Ntp1687
Rp1688
(dp1689
g1666
g1674
sg1667
(lp1690
g1676
asg384
S'c:/marmalade/7.10/s3e/h/s3e.h'
p1691
sbsS'errno.h'
p1692
g358
(g1662
g360
Ntp1693
Rp1694
(dp1695
g1666
g1674
sg1667
(lp1696
g1676
aS'stdc headers'
p1697
asg384
S'c:/marmalade/7.10/s3e/h/std/errno.h'
p1698
sbsS'IwSingleton.h'
p1699
g358
(g1662
g360
Ntp1700
Rp1701
(dp1702
g1666
g1513
sg1667
(lp1703
S"'Marmalade Studio'"
p1704
ag1509
asg384
g1545
sbsS'dlfcn.h'
p1705
g358
(g1662
g360
Ntp1706
Rp1707
(dp1708
g1666
g1674
sg1667
g1696
sg384
S'c:/marmalade/7.10/s3e/h/std/dlfcn.h'
p1709
sbsS'stdio_streambuf'
p1710
g358
(g1662
g360
Ntp1711
Rp1712
(dp1713
g1666
g1674
sg1667
g1675
sg384
S'c:/marmalade/7.10/s3e/h/std/c++/stdio_streambuf'
p1714
sbsS'sched.h'
p1715
g358
(g1662
g360
Ntp1716
Rp1717
(dp1718
g1666
g1674
sg1667
g1696
sg384
S'c:/marmalade/7.10/s3e/h/std/sched.h'
p1719
sbsS'IwGeomFMat2D.h'
p1720
g358
(g1662
g360
Ntp1721
Rp1722
(dp1723
g1666
g1359
sg1667
(lp1724
S"'Marmalade Studio'"
p1725
ag1355
asg384
g1409
sbsS's3eExt.h'
p1726
g358
(g1662
g360
Ntp1727
Rp1728
(dp1729
g1666
g1674
sg1667
g1690
sg384
S'c:/marmalade/7.10/s3e/h/s3eExt.h'
p1730
sbsS'grp.h'
p1731
g358
(g1662
g360
Ntp1732
Rp1733
(dp1734
g1666
g1674
sg1667
g1696
sg384
S'c:/marmalade/7.10/s3e/h/std/grp.h'
p1735
sbsS'list'
p1736
g358
(g1662
g360
Ntp1737
Rp1738
(dp1739
g1666
g1674
sg1667
g1675
sg384
S'c:/marmalade/7.10/s3e/h/std/c++/list'
p1740
sbsS'IwGeomMat.h.tpl'
p1741
g358
(g1662
g360
Ntp1742
Rp1743
(dp1744
g1666
g1359
sg1667
g1724
sg384
g1389
sbsS'istream'
p1745
g358
(g1662
g360
Ntp1746
Rp1747
(dp1748
g1666
g1674
sg1667
g1675
sg384
S'c:/marmalade/7.10/s3e/h/std/c++/istream'
p1749
sbsS'jpeglib.h'
p1750
g358
(g1662
g360
Ntp1751
Rp1752
(dp1753
g1666
g1629
sg1667
(lp1754
g1624
ag1239
asg384
g1627
sbsS'iw2d_public.defines.txt'
p1755
g358
(g1662
g360
Ntp1756
Rp1757
(dp1758
g1666
g1328
sg1667
(lp1759
S"'Marmalade Studio'"
p1760
ag1321
asg384
g1326
sbsS'iostream.h'
p1761
g358
(g1662
g360
Ntp1762
Rp1763
(dp1764
g1666
g1674
sg1667
g1675
sg384
S'c:/marmalade/7.10/s3e/h/std/c++/iostream.h'
p1765
sbsS'string'
p1766
g358
(g1662
g360
Ntp1767
Rp1768
(dp1769
g1666
g1674
sg1667
g1675
sg384
S'c:/marmalade/7.10/s3e/h/std/c++/string'
p1770
sbsS'IwMemory.h'
p1771
g358
(g1662
g360
Ntp1772
Rp1773
(dp1774
g1666
g1513
sg1667
g1703
sg384
g1533
sbsS'IwGeomPlane.h'
p1775
g358
(g1662
g360
Ntp1776
Rp1777
(dp1778
g1666
g1359
sg1667
g1724
sg384
g1379
sbsS'iw2d.config.txt'
p1779
g358
(g1662
g360
Ntp1780
Rp1781
(dp1782
g1666
g1328
sg1667
g1759
sg384
g1331
sbsS'iomanip'
p1783
g358
(g1662
g360
Ntp1784
Rp1785
(dp1786
g1666
g1674
sg1667
g1675
sg384
S'c:/marmalade/7.10/s3e/h/std/c++/iomanip'
p1787
sbsS'iwgeom.mkf'
p1788
g358
(g1662
g360
Ntp1789
Rp1790
(dp1791
g1666
g1374
sg1667
g1724
sg384
g1372
sbsS'IwGxError.h'
p1792
g358
(g1662
g360
Ntp1793
Rp1794
(dp1795
g1666
g1459
sg1667
(lp1796
S"'Marmalade Studio'"
p1797
ag1455
asg384
g1460
sbsS'IwGeom.h'
p1798
g358
(g1662
g360
Ntp1799
Rp1800
(dp1801
g1666
g1359
sg1667
g1724
sg384
g1385
sbsS'IwGeomVec4.h'
p1802
g358
(g1662
g360
Ntp1803
Rp1804
(dp1805
g1666
g1359
sg1667
g1724
sg384
g1383
sbsS'dir.h'
p1806
g358
(g1662
g360
Ntp1807
Rp1808
(dp1809
g1666
g1674
sg1667
(lp1810
g1676
aS'stdc headers'
p1811
aS'sys'
p1812
asg384
S'c:/marmalade/7.10/s3e/h/std/sys/dir.h'
p1813
sbsS'locale.h'
p1814
g358
(g1662
g360
Ntp1815
Rp1816
(dp1817
g1666
g1674
sg1667
g1696
sg384
S'c:/marmalade/7.10/s3e/h/std/locale.h'
p1818
sbsS'vector'
p1819
g358
(g1662
g360
Ntp1820
Rp1821
(dp1822
g1666
g1674
sg1667
g1675
sg384
S'c:/marmalade/7.10/s3e/h/std/c++/vector'
p1823
sbsS'IwManaged.h'
p1824
g358
(g1662
g360
Ntp1825
Rp1826
(dp1827
g1666
g1513
sg1667
g1703
sg384
g1569
sbsS's3eCompass.h'
p1828
g358
(g1662
g360
Ntp1829
Rp1830
(dp1831
g1666
g1674
sg1667
g1690
sg384
S'c:/marmalade/7.10/s3e/h/s3eCompass.h'
p1832
sbsS'cderror.h'
p1833
g358
(g1662
g360
Ntp1834
Rp1835
(dp1836
g1666
g1629
sg1667
g1754
sg384
g1644
sbsS'climits'
p1837
g358
(g1662
g360
Ntp1838
Rp1839
(dp1840
g1666
g1674
sg1667
g1675
sg384
S'c:/marmalade/7.10/s3e/h/std/c++/climits'
p1841
sbsS's3eVibra.h'
p1842
g358
(g1662
g360
Ntp1843
Rp1844
(dp1845
g1666
g1674
sg1667
g1690
sg384
S'c:/marmalade/7.10/s3e/h/s3eVibra.h'
p1846
sbsS'jversion.h'
p1847
g358
(g1662
g360
Ntp1848
Rp1849
(dp1850
g1666
g1629
sg1667
g1754
sg384
g1654
sbsS'fnmatch.h'
p1851
g358
(g1662
g360
Ntp1852
Rp1853
(dp1854
g1666
g1674
sg1667
g1696
sg384
S'c:/marmalade/7.10/s3e/h/std/fnmatch.h'
p1855
sbsS'IwGxState.h'
p1856
g358
(g1662
g360
Ntp1857
Rp1858
(dp1859
g1666
g1459
sg1667
g1796
sg384
g1489
sbsS's3eAudio.h'
p1860
g358
(g1662
g360
Ntp1861
Rp1862
(dp1863
g1666
g1674
sg1667
g1690
sg384
S'c:/marmalade/7.10/s3e/h/s3eAudio.h'
p1864
sbsS's3eSurface.h'
p1865
g358
(g1662
g360
Ntp1866
Rp1867
(dp1868
g1666
g1674
sg1667
g1690
sg384
S'c:/marmalade/7.10/s3e/h/s3eSurface.h'
p1869
sbsS'new'
p1870
g358
(g1662
g360
Ntp1871
Rp1872
(dp1873
g1666
g1674
sg1667
g1675
sg384
S'c:/marmalade/7.10/s3e/h/std/c++/new'
p1874
sbsS's3eWindow.h'
p1875
g358
(g1662
g360
Ntp1876
Rp1877
(dp1878
g1666
g1674
sg1667
(lp1879
g1676
aS'Extensions'
p1880
asg384
S'c:/marmalade/7.10/s3e/h/ext/s3eWindow.h'
p1881
sbsS'IwBuffer.h'
p1882
g358
(g1662
g360
Ntp1883
Rp1884
(dp1885
g1666
g1513
sg1667
g1703
sg384
g1541
sbsS'IwGeomQuat.h.tpl'
p1886
g358
(g1662
g360
Ntp1887
Rp1888
(dp1889
g1666
g1359
sg1667
g1724
sg384
g1364
sbsS's3eOSExec.h'
p1890
g358
(g1662
g360
Ntp1891
Rp1892
(dp1893
g1666
g1674
sg1667
g1879
sg384
S'c:/marmalade/7.10/s3e/h/ext/s3eOSExec.h'
p1894
sbsS'IwGxTransformSW.h'
p1895
g358
(g1662
g360
Ntp1896
Rp1897
(dp1898
g1666
g1459
sg1667
g1796
sg384
g1464
sbsS'IwGxMetrics.h'
p1899
g358
(g1662
g360
Ntp1900
Rp1901
(dp1902
g1666
g1459
sg1667
g1796
sg384
g1480
sbsS'iwgxfont.config.txt'
p1903
g358
(g1662
g360
Ntp1904
Rp1905
(dp1906
g1666
g1337
sg1667
g1668
sg384
g1343
sbsS'gl2platform.h'
p1907
g358
(g1662
g360
Ntp1908
Rp1909
(dp1910
g1666
g1674
sg1667
(lp1911
g1676
aS'GL'
p1912
aS'GLES 2.0'
p1913
asg384
S'c:/marmalade/7.10/s3e/h/GLES2/gl2platform.h'
p1914
sbsS'IwResManagerClass.h'
p1915
g358
(g1662
g360
Ntp1916
Rp1917
(dp1918
g1666
g1435
sg1667
(lp1919
g1307
ag1431
asg384
g1449
sbsS'queue'
p1920
g358
(g1662
g360
Ntp1921
Rp1922
(dp1923
g1666
g1674
sg1667
g1675
sg384
S'c:/marmalade/7.10/s3e/h/std/c++/queue'
p1924
sbsS'time_1.h'
p1925
g358
(g1662
g360
Ntp1926
Rp1927
(dp1928
g1666
g1674
sg1667
g1810
sg384
S'c:/marmalade/7.10/s3e/h/std/sys/time.h'
p1929
sbsS'Iw2D.h'
p1930
g358
(g1662
g360
Ntp1931
Rp1932
(dp1933
g1666
g1328
sg1667
g1759
sg384
g1329
sbsS'IwGeomVec2.h'
p1934
g358
(g1662
g360
Ntp1935
Rp1936
(dp1937
g1666
g1359
sg1667
g1724
sg384
g1397
sbsS's3eDevice.h'
p1938
g358
(g1662
g360
Ntp1939
Rp1940
(dp1941
g1666
g1674
sg1667
g1690
sg384
S'c:/marmalade/7.10/s3e/h/s3eDevice.h'
p1942
sbsS'malloc.h'
p1943
g358
(g1662
g360
Ntp1944
Rp1945
(dp1946
g1666
g1674
sg1667
g1696
sg384
S'c:/marmalade/7.10/s3e/h/std/malloc.h'
p1947
sbsS'stdarg.h'
p1948
g358
(g1662
g360
Ntp1949
Rp1950
(dp1951
g1666
g1674
sg1667
g1696
sg384
S'c:/marmalade/7.10/s3e/h/std/stdarg.h'
p1952
sbsS'IwGeomCore.h'
p1953
g358
(g1662
g360
Ntp1954
Rp1955
(dp1956
g1666
g1359
sg1667
g1724
sg384
g1419
sbsS'endian.h'
p1957
g358
(g1662
g360
Ntp1958
Rp1959
(dp1960
g1666
g1674
sg1667
g1696
sg384
S'c:/marmalade/7.10/s3e/h/std/endian.h'
p1961
sbsS'gl3ext.h'
p1962
g358
(g1662
g360
Ntp1963
Rp1964
(dp1965
g1666
g1674
sg1667
(lp1966
g1676
aS'GL'
p1967
aS'GLES 3.0'
p1968
asg384
S'c:/marmalade/7.10/s3e/h/GLES3/gl3ext.h'
p1969
sbsS'glob.h'
p1970
g358
(g1662
g360
Ntp1971
Rp1972
(dp1973
g1666
g1674
sg1667
g1696
sg384
S'c:/marmalade/7.10/s3e/h/std/glob.h'
p1974
sbsS'fstream'
p1975
g358
(g1662
g360
Ntp1976
Rp1977
(dp1978
g1666
g1674
sg1667
g1675
sg384
S'c:/marmalade/7.10/s3e/h/std/c++/fstream'
p1979
sbsS's3eCamera.h'
p1980
g358
(g1662
g360
Ntp1981
Rp1982
(dp1983
g1666
g1674
sg1667
g1690
sg384
S'c:/marmalade/7.10/s3e/h/s3eCamera.h'
p1984
sbsS'jconfig.h'
p1985
g358
(g1662
g360
Ntp1986
Rp1987
(dp1988
g1666
g1629
sg1667
g1754
sg384
g1638
sbsS'memory'
p1989
g358
(g1662
g360
Ntp1990
Rp1991
(dp1992
g1666
g1674
sg1667
g1675
sg384
S'c:/marmalade/7.10/s3e/h/std/c++/memory'
p1993
sbsS'egl.h'
p1994
g358
(g1662
g360
Ntp1995
Rp1996
(dp1997
g1666
g1674
sg1667
(lp1998
g1676
aS'GL'
p1999
aS'EGL'
p2000
asg384
S'c:/marmalade/7.10/s3e/h/EGL/egl.h'
p2001
sbsS'IwClip.inl'
p2002
g358
(g1662
g360
Ntp2003
Rp2004
(dp2005
g1666
g1459
sg1667
g1796
sg384
g1485
sbsS'IwMemManagerDL.h'
p2006
g358
(g1662
g360
Ntp2007
Rp2008
(dp2009
g1666
g1513
sg1667
g1703
sg384
g1607
sbsS'deque'
p2010
g358
(g1662
g360
Ntp2011
Rp2012
(dp2013
g1666
g1674
sg1667
g1675
sg384
S'c:/marmalade/7.10/s3e/h/std/c++/deque'
p2014
sbsS'IwString.h'
p2015
g358
(g1662
g360
Ntp2016
Rp2017
(dp2018
g1666
g1513
sg1667
g1703
sg384
g1611
sbsS'cwchar'
p2019
g358
(g1662
g360
Ntp2020
Rp2021
(dp2022
g1666
g1674
sg1667
g1675
sg384
S'c:/marmalade/7.10/s3e/h/std/c++/cwchar'
p2023
sbsS'iwutil.mkf'
p2024
g358
(g1662
g360
Ntp2025
Rp2026
(dp2027
g1666
g1530
sg1667
g1703
sg384
g1528
sbsS'csignal'
p2028
g358
(g1662
g360
Ntp2029
Rp2030
(dp2031
g1666
g1674
sg1667
g1675
sg384
S'c:/marmalade/7.10/s3e/h/std/c++/csignal'
p2032
sbsS'float.h'
p2033
g358
(g1662
g360
Ntp2034
Rp2035
(dp2036
g1666
g1674
sg1667
g1696
sg384
S'c:/marmalade/7.10/s3e/h/std/float.h'
p2037
sbsS'pthread_alloc'
p2038
g358
(g1662
g360
Ntp2039
Rp2040
(dp2041
g1666
g1674
sg1667
g1675
sg384
S'c:/marmalade/7.10/s3e/h/std/c++/pthread_alloc'
p2042
sbsS'getopt.h'
p2043
g358
(g1662
g360
Ntp2044
Rp2045
(dp2046
g1666
g1674
sg1667
g1696
sg384
S'c:/marmalade/7.10/s3e/h/std/getopt.h'
p2047
sbsS'IwOptimiseARM.h'
p2048
g358
(g1662
g360
Ntp2049
Rp2050
(dp2051
g1666
g1513
sg1667
g1703
sg384
g1571
sbsS'times.h'
p2052
g358
(g1662
g360
Ntp2053
Rp2054
(dp2055
g1666
g1674
sg1667
g1810
sg384
S'c:/marmalade/7.10/s3e/h/std/sys/times.h'
p2056
sbsS'IwGeomFSphere.h'
p2057
g358
(g1662
g360
Ntp2058
Rp2059
(dp2060
g1666
g1359
sg1667
g1724
sg384
g1375
sbsS'amazon-ads-android-sdk.mkf'
p2061
g358
(g1662
g360
Ntp2062
Rp2063
(dp2064
g1666
g1253
sg1667
(lp2065
g1249
asg384
g1251
sbsS'IwTypes.h'
p2066
g358
(g1662
g360
Ntp2067
Rp2068
(dp2069
g1666
g1513
sg1667
g1703
sg384
g1551
sbsS'unistd.h'
p2070
g358
(g1662
g360
Ntp2071
Rp2072
(dp2073
g1666
g1674
sg1667
g1696
sg384
S'c:/marmalade/7.10/s3e/h/std/unistd.h'
p2074
sbsS's3eCompression.h'
p2075
g358
(g1662
g360
Ntp2076
Rp2077
(dp2078
g1666
g1674
sg1667
g1690
sg384
S'c:/marmalade/7.10/s3e/h/s3eCompression.h'
p2079
sbsS'langinfo.h'
p2080
g358
(g1662
g360
Ntp2081
Rp2082
(dp2083
g1666
g1674
sg1667
g1696
sg384
S'c:/marmalade/7.10/s3e/h/std/langinfo.h'
p2084
sbsS's3edebugHeap.h'
p2085
g358
(g1662
g360
Ntp2086
Rp2087
(dp2088
g1666
g1674
sg1667
g1879
sg384
S'c:/marmalade/7.10/s3e/h/ext/s3edebugHeap.h'
p2089
sbsS'AirplayVersion.h'
p2090
g358
(g1662
g360
Ntp2091
Rp2092
(dp2093
g1666
g1674
sg1667
g1690
sg384
S'c:/marmalade/7.10/s3e/h/AirplayVersion.h'
p2094
sbsS'gl2extimg.h'
p2095
g358
(g1662
g360
Ntp2096
Rp2097
(dp2098
g1666
g1674
sg1667
g1911
sg384
S'c:/marmalade/7.10/s3e/h/GLES2/gl2extimg.h'
p2099
sbsS'app.config.txt'
p2100
g358
(g1662
g360
Ntp2101
Rp2102
(dp2103
g1666
(dp2104
sg1667
g4
sg384
S'd:/Marmalade/Stage1/data/app.config.txt'
p2105
sbsS'IwGeomSqrt.h'
p2106
g358
(g1662
g360
Ntp2107
Rp2108
(dp2109
g1666
g1359
sg1667
g1724
sg384
g1429
sbsS'tiniconv_int.h'
p2110
g358
(g1662
g360
Ntp2111
Rp2112
(dp2113
g1666
g1258
sg1667
(lp2114
g1254
asg384
g1259
sbsS'syslog.h'
p2115
g358
(g1662
g360
Ntp2116
Rp2117
(dp2118
g1666
g1674
sg1667
g1696
sg384
S'c:/marmalade/7.10/s3e/h/std/syslog.h'
p2119
sbsS'IwGxFontTypes.h'
p2120
g358
(g1662
g360
Ntp2121
Rp2122
(dp2123
g1666
g1337
sg1667
g1668
sg384
g1353
sbsS'IwGeomFIntersect.h'
p2124
g358
(g1662
g360
Ntp2125
Rp2126
(dp2127
g1666
g1359
sg1667
g1724
sg384
g1399
sbsS'hash_map'
p2128
g358
(g1662
g360
Ntp2129
Rp2130
(dp2131
g1666
g1674
sg1667
g1675
sg384
S'c:/marmalade/7.10/s3e/h/std/c++/hash_map'
p2132
sbsS's3e.mkf'
p2133
g358
(g1662
g360
Ntp2134
Rp2135
(dp2136
g1666
(dp2137
sg1667
g1690
sg384
S'c:/marmalade/7.10/s3e/s3e.mkf'
p2138
sbsS'IwGeomMat2D.h.tpl'
p2139
g358
(g1662
g360
Ntp2140
Rp2141
(dp2142
g1666
g1359
sg1667
g1724
sg384
g1360
sbsS's3eOSReadString.h'
p2143
g358
(g1662
g360
Ntp2144
Rp2145
(dp2146
g1666
g1674
sg1667
g1879
sg384
S'c:/marmalade/7.10/s3e/h/ext/s3eOSReadString.h'
p2147
sbsS'map'
p2148
g358
(g1662
g360
Ntp2149
Rp2150
(dp2151
g1666
g1674
sg1667
g1675
sg384
S'c:/marmalade/7.10/s3e/h/std/c++/map'
p2152
sbsS'IwOptimiseSpeed.h'
p2153
g358
(g1662
g360
Ntp2154
Rp2155
(dp2156
g1666
g1513
sg1667
g1703
sg384
g1555
sbsS'msl_string.h'
p2157
g358
(g1662
g360
Ntp2158
Rp2159
(dp2160
g1666
g1674
sg1667
g1675
sg384
S'c:/marmalade/7.10/s3e/h/std/c++/msl_string.h'
p2161
sbsS'select.h'
p2162
g358
(g1662
g360
Ntp2163
Rp2164
(dp2165
g1666
g1674
sg1667
g1810
sg384
S'c:/marmalade/7.10/s3e/h/std/sys/select.h'
p2166
sbsS'zlib.mkf'
p2167
g358
(g1662
g360
Ntp2168
Rp2169
(dp2170
g1666
g1623
sg1667
(lp2171
g1613
asg384
g1621
sbsS'signal.h'
p2172
g358
(g1662
g360
Ntp2173
Rp2174
(dp2175
g1666
g1674
sg1667
g1696
sg384
S'c:/marmalade/7.10/s3e/h/std/signal.h'
p2176
sbsS'sigcontext.h'
p2177
g358
(g1662
g360
Ntp2178
Rp2179
(dp2180
g1666
g1674
sg1667
g1696
sg384
S'c:/marmalade/7.10/s3e/h/std/sigcontext.h'
p2181
sbsS'libpng.mkf'
p2182
g358
(g1662
g360
Ntp2183
Rp2184
(dp2185
g1666
g1248
sg1667
(lp2186
g1237
asg384
g1246
sbsS's3eClipboard.h'
p2187
g358
(g1662
g360
Ntp2188
Rp2189
(dp2190
g1666
g1674
sg1667
g1690
sg384
S'c:/marmalade/7.10/s3e/h/s3eClipboard.h'
p2191
sbsS'IwGxFuncTable.h'
p2192
g358
(g1662
g360
Ntp2193
Rp2194
(dp2195
g1666
g1459
sg1667
g1796
sg384
g1501
sbsS'IwResHandlerGROUP.h'
p2196
g358
(g1662
g360
Ntp2197
Rp2198
(dp2199
g1666
g1435
sg1667
g1919
sg384
g1453
sbsS's3eDebug.h'
p2200
g358
(g1662
g360
Ntp2201
Rp2202
(dp2203
g1666
g1674
sg1667
g1690
sg384
S'c:/marmalade/7.10/s3e/h/s3eDebug.h'
p2204
sbsS'socket.h'
p2205
g358
(g1662
g360
Ntp2206
Rp2207
(dp2208
g1666
g1674
sg1667
g1810
sg384
S'c:/marmalade/7.10/s3e/h/std/sys/socket.h'
p2209
sbsS'glext.h'
p2210
g358
(g1662
g360
Ntp2211
Rp2212
(dp2213
g1666
g1674
sg1667
(lp2214
g1676
aS'GL'
p2215
aS'GLES 1.x'
p2216
asg384
S'c:/marmalade/7.10/s3e/h/GLES/glext.h'
p2217
sbsS'typeinfo.h'
p2218
g358
(g1662
g360
Ntp2219
Rp2220
(dp2221
g1666
g1674
sg1667
g1675
sg384
S'c:/marmalade/7.10/s3e/h/std/c++/typeinfo.h'
p2222
sbsS'typeinfo'
p2223
g358
(g1662
g360
Ntp2224
Rp2225
(dp2226
g1666
g1674
sg1667
g1675
sg384
S'c:/marmalade/7.10/s3e/h/std/c++/typeinfo'
p2227
sbsS'fstream.h'
p2228
g358
(g1662
g360
Ntp2229
Rp2230
(dp2231
g1666
g1674
sg1667
g1675
sg384
S'c:/marmalade/7.10/s3e/h/std/c++/fstream.h'
p2232
sbsS's3ePointer.h'
p2233
g358
(g1662
g360
Ntp2234
Rp2235
(dp2236
g1666
g1674
sg1667
g1690
sg384
S'c:/marmalade/7.10/s3e/h/s3ePointer.h'
p2237
sbsS'IwMemBucket.h'
p2238
g358
(g1662
g360
Ntp2239
Rp2240
(dp2241
g1666
g1513
sg1667
g1703
sg384
g1609
sbsS'PVRTexTool.h'
p2242
g358
(g1662
g360
Ntp2243
Rp2244
(dp2245
g1666
g1294
sg1667
(lp2246
S'Extensions'
p2247
ag1288
asg384
g1297
sbsS's3eGL.h'
p2248
g358
(g1662
g360
Ntp2249
Rp2250
(dp2251
g1666
g1674
sg1667
g1690
sg384
S'c:/marmalade/7.10/s3e/h/s3eGL.h'
p2252
sbsS'IwGeomFVec2.h'
p2253
g358
(g1662
g360
Ntp2254
Rp2255
(dp2256
g1666
g1359
sg1667
g1724
sg384
g1415
sbsS'IwGeomSVec4.h'
p2257
g358
(g1662
g360
Ntp2258
Rp2259
(dp2260
g1666
g1359
sg1667
g1724
sg384
g1377
sbsS'poll.h'
p2261
g358
(g1662
g360
Ntp2262
Rp2263
(dp2264
g1666
g1674
sg1667
g1696
sg384
S'c:/marmalade/7.10/s3e/h/std/poll.h'
p2265
sbsS'IwMatAnim.h'
p2266
g358
(g1662
g360
Ntp2267
Rp2268
(dp2269
g1666
g1459
sg1667
g1796
sg384
g1487
sbsS'PVRTexTool.defines.txt'
p2270
g358
(g1662
g360
Ntp2271
Rp2272
(dp2273
g1666
g1294
sg1667
(lp2274
g2247
ag1288
ag1290
asg384
g1295
sbsS'IwGx.h'
p2275
g358
(g1662
g360
Ntp2276
Rp2277
(dp2278
g1666
g1459
sg1667
g1796
sg384
g1476
sbsS'valarray'
p2279
g358
(g1662
g360
Ntp2280
Rp2281
(dp2282
g1666
g1674
sg1667
g1675
sg384
S'c:/marmalade/7.10/s3e/h/std/c++/valarray'
p2283
sbsS'iosfwd'
p2284
g358
(g1662
g360
Ntp2285
Rp2286
(dp2287
g1666
g1674
sg1667
g1675
sg384
S'c:/marmalade/7.10/s3e/h/std/c++/iosfwd'
p2288
sbsS'gl2.h'
p2289
g358
(g1662
g360
Ntp2290
Rp2291
(dp2292
g1666
g1674
sg1667
g1911
sg384
S'c:/marmalade/7.10/s3e/h/GLES2/gl2.h'
p2293
sbsS'jpegint.h'
p2294
g358
(g1662
g360
Ntp2295
Rp2296
(dp2297
g1666
g1629
sg1667
g1754
sg384
g1650
sbsS'stdiostream.h'
p2298
g358
(g1662
g360
Ntp2299
Rp2300
(dp2301
g1666
g1674
sg1667
g1675
sg384
S'c:/marmalade/7.10/s3e/h/std/c++/stdiostream.h'
p2302
sbsS'mem.h'
p2303
g358
(g1662
g360
Ntp2304
Rp2305
(dp2306
g1666
g1674
sg1667
g1675
sg384
S'c:/marmalade/7.10/s3e/h/std/c++/mem.h'
p2307
sbsS'jerror.h'
p2308
g358
(g1662
g360
Ntp2309
Rp2310
(dp2311
g1666
g1629
sg1667
g1754
sg384
g1636
sbsS'zconf.h'
p2312
g358
(g1662
g360
Ntp2313
Rp2314
(dp2315
g1666
g1618
sg1667
(lp2316
g1613
ag1239
asg384
g1616
sbsS's3e.config.txt'
p2317
g358
(g1662
g360
Ntp2318
Rp2319
(dp2320
g1666
g1674
sg1667
g1690
sg384
S'c:/marmalade/7.10/s3e/s3e.config.txt'
p2321
sbsS'numeric'
p2322
g358
(g1662
g360
Ntp2323
Rp2324
(dp2325
g1666
g1674
sg1667
g1675
sg384
S'c:/marmalade/7.10/s3e/h/std/c++/numeric'
p2326
sbsS'utime.h'
p2327
g358
(g1662
g360
Ntp2328
Rp2329
(dp2330
g1666
g1674
sg1667
g1696
sg384
S'c:/marmalade/7.10/s3e/h/std/utime.h'
p2331
sbsS'jdhuff.h'
p2332
g358
(g1662
g360
Ntp2333
Rp2334
(dp2335
g1666
g1629
sg1667
g1754
sg384
g1630
sbsS'IwGxStream.h'
p2336
g358
(g1662
g360
Ntp2337
Rp2338
(dp2339
g1666
g1459
sg1667
g1796
sg384
g1493
sbsS'IwImage.h'
p2340
g358
(g1662
g360
Ntp2341
Rp2342
(dp2343
g1666
g1513
sg1667
g1703
sg384
g1518
sbsS's3eImagePicker.h'
p2344
g358
(g1662
g360
Ntp2345
Rp2346
(dp2347
g1666
g1674
sg1667
g1879
sg384
S'c:/marmalade/7.10/s3e/h/ext/s3eImagePicker.h'
p2348
sbsS'IwTextParserITX.h'
p2349
g358
(g1662
g360
Ntp2350
Rp2351
(dp2352
g1666
g1513
sg1667
g1703
sg384
g1573
sbsS'stdlib.h'
p2353
g358
(g1662
g360
Ntp2354
Rp2355
(dp2356
g1666
g1674
sg1667
g1696
sg384
S'c:/marmalade/7.10/s3e/h/std/stdlib.h'
p2357
sbsS'IwCopyingPtr.h'
p2358
g358
(g1662
g360
Ntp2359
Rp2360
(dp2361
g1666
g1513
sg1667
g1703
sg384
g1593
sbsS'iostream'
p2362
g358
(g1662
g360
Ntp2363
Rp2364
(dp2365
g1666
g1674
sg1667
g1675
sg384
S'c:/marmalade/7.10/s3e/h/std/c++/iostream'
p2366
sbsS'png.h'
p2367
g358
(g1662
g360
Ntp2368
Rp2369
(dp2370
g1666
g1243
sg1667
(lp2371
g1237
ag1239
asg384
g1241
sbsS'stddef.h'
p2372
g358
(g1662
g360
Ntp2373
Rp2374
(dp2375
g1666
g1674
sg1667
g1696
sg384
S'c:/marmalade/7.10/s3e/h/std/stddef.h'
p2376
sbsS'setjmp_win32.h'
p2377
g358
(g1662
g360
Ntp2378
Rp2379
(dp2380
g1666
g1674
sg1667
g1696
sg384
S'c:/marmalade/7.10/s3e/h/std/setjmp_win32.h'
p2381
sbsS'IwGxPrint.h'
p2382
g358
(g1662
g360
Ntp2383
Rp2384
(dp2385
g1666
g1459
sg1667
g1796
sg384
g1457
sbsS'iwgx_public.defines.txt'
p2386
g358
(g1662
g360
Ntp2387
Rp2388
(dp2389
g1666
g1459
sg1667
g1796
sg384
g1505
sbsS'streambuf.h'
p2390
g358
(g1662
g360
Ntp2391
Rp2392
(dp2393
g1666
g1674
sg1667
g1675
sg384
S'c:/marmalade/7.10/s3e/h/std/c++/streambuf.h'
p2394
sbsS'IwGeomFPlane.h'
p2395
g358
(g1662
g360
Ntp2396
Rp2397
(dp2398
g1666
g1359
sg1667
g1724
sg384
g1401
sbsS'wchar.h'
p2399
g358
(g1662
g360
Ntp2400
Rp2401
(dp2402
g1666
g1674
sg1667
g1696
sg384
S'c:/marmalade/7.10/s3e/h/std/wchar.h'
p2403
sbsS's3eCameraCapture.h'
p2404
g358
(g1662
g360
Ntp2405
Rp2406
(dp2407
g1666
g1674
sg1667
g1879
sg384
S'c:/marmalade/7.10/s3e/h/ext/s3eCameraCapture.h'
p2408
sbsS'eglext.h'
p2409
g358
(g1662
g360
Ntp2410
Rp2411
(dp2412
g1666
g1674
sg1667
g1998
sg384
S'c:/marmalade/7.10/s3e/h/EGL/eglext.h'
p2413
sbsS'IwResHandlerImage.h'
p2414
g358
(g1662
g360
Ntp2415
Rp2416
(dp2417
g1666
g1435
sg1667
g1919
sg384
g1438
sbsS'strstream.h'
p2418
g358
(g1662
g360
Ntp2419
Rp2420
(dp2421
g1666
g1674
sg1667
g1675
sg384
S'c:/marmalade/7.10/s3e/h/std/c++/strstream.h'
p2422
sbsS'tiniconv.h'
p2423
g358
(g1662
g360
Ntp2424
Rp2425
(dp2426
g1666
g1258
sg1667
g2114
sg384
g1256
sbsS'IwGLExt.h'
p2427
g358
(g1662
g360
Ntp2428
Rp2429
(dp2430
g1666
g1316
sg1667
g1684
sg384
g1319
sbsS'app.icf'
p2431
g358
(g1662
g360
Ntp2432
Rp2433
(dp2434
g1666
(dp2435
sg1667
g4
sg384
S'd:/Marmalade/Stage1/data/app.icf'
p2436
sbsS'IwClassFactory.h'
p2437
g358
(g1662
g360
Ntp2438
Rp2439
(dp2440
g1666
g1513
sg1667
g1703
sg384
g1526
sbsS'file.h'
p2441
g358
(g1662
g360
Ntp2442
Rp2443
(dp2444
g1666
g1674
sg1667
g1810
sg384
S'c:/marmalade/7.10/s3e/h/std/sys/file.h'
p2445
sbsS'cstring'
p2446
g358
(g1662
g360
Ntp2447
Rp2448
(dp2449
g1666
g1674
sg1667
g1675
sg384
S'c:/marmalade/7.10/s3e/h/std/c++/cstring'
p2450
sbsS'iwutil.config.txt'
p2451
g358
(g1662
g360
Ntp2452
Rp2453
(dp2454
g1666
g1513
sg1667
g1703
sg384
g1595
sbsS's3eSMS.h'
p2455
g358
(g1662
g360
Ntp2456
Rp2457
(dp2458
g1666
g1674
sg1667
g1879
sg384
S'c:/marmalade/7.10/s3e/h/ext/s3eSMS.h'
p2459
sbsS'limits.h'
p2460
g358
(g1662
g360
Ntp2461
Rp2462
(dp2463
g1666
g1674
sg1667
g1696
sg384
S'c:/marmalade/7.10/s3e/h/std/limits.h'
p2464
sbsS'iwgl.config.txt'
p2465
g358
(g1662
g360
Ntp2466
Rp2467
(dp2468
g1666
g1316
sg1667
g1684
sg384
g1317
sbsS'IwMaterial.h'
p2469
g358
(g1662
g360
Ntp2470
Rp2471
(dp2472
g1666
g1459
sg1667
g1796
sg384
g1499
sbsS'amazon-ads-ios-sdk.mkf'
p2473
g358
(g1662
g360
Ntp2474
Rp2475
(dp2476
g1666
g1271
sg1667
(lp2477
g1267
asg384
g1269
sbsS'PVRTexTool_interface.cpp'
p2478
g358
(g1662
g360
Ntp2479
Rp2480
(dp2481
g1666
g1294
sg1667
g2274
sg384
g1292
sbsS'IwGxSurface.h'
p2482
g358
(g1662
g360
Ntp2483
Rp2484
(dp2485
g1666
g1459
sg1667
g1796
sg384
g1462
sbsS's3eSocket.h'
p2486
g358
(g1662
g360
Ntp2487
Rp2488
(dp2489
g1666
g1674
sg1667
g1690
sg384
S'c:/marmalade/7.10/s3e/h/s3eSocket.h'
p2490
sbsS'IwAutoFile.h'
p2491
g358
(g1662
g360
Ntp2492
Rp2493
(dp2494
g1666
g1513
sg1667
g1703
sg384
g1567
sbsS'ipc.h'
p2495
g358
(g1662
g360
Ntp2496
Rp2497
(dp2498
g1666
g1674
sg1667
g1810
sg384
S'c:/marmalade/7.10/s3e/h/std/sys/ipc.h'
p2499
sbsS'poll_1.h'
p2500
g358
(g1662
g360
Ntp2501
Rp2502
(dp2503
g1666
g1674
sg1667
g1810
sg384
S'c:/marmalade/7.10/s3e/h/std/sys/poll.h'
p2504
sbsS's3eThread.h'
p2505
g358
(g1662
g360
Ntp2506
Rp2507
(dp2508
g1666
g1674
sg1667
g1690
sg384
S'c:/marmalade/7.10/s3e/h/s3eThread.h'
p2509
sbsS'ucontext.h'
p2510
g358
(g1662
g360
Ntp2511
Rp2512
(dp2513
g1666
g1674
sg1667
g1696
sg384
S'c:/marmalade/7.10/s3e/h/std/ucontext.h'
p2514
sbsS'time.h'
p2515
g358
(g1662
g360
Ntp2516
Rp2517
(dp2518
g1666
g1674
sg1667
g1696
sg384
S'c:/marmalade/7.10/s3e/h/std/time.h'
p2519
sbsS'jchuff.h'
p2520
g358
(g1662
g360
Ntp2521
Rp2522
(dp2523
g1666
g1629
sg1667
g1754
sg384
g1648
sbsS's3eSoundRecord.h'
p2524
g358
(g1662
g360
Ntp2525
Rp2526
(dp2527
g1666
g1674
sg1667
g1690
sg384
S'c:/marmalade/7.10/s3e/h/s3eSoundRecord.h'
p2528
sbsS'IwFibre.h'
p2529
g358
(g1662
g360
Ntp2530
Rp2531
(dp2532
g1666
g1513
sg1667
g1703
sg384
g1539
sbsS's3eVersion.h'
p2533
g358
(g1662
g360
Ntp2534
Rp2535
(dp2536
g1666
g1674
sg1667
g1690
sg384
S'c:/marmalade/7.10/s3e/h/s3eVersion.h'
p2537
sbsS'IwGxFontGlyph.h'
p2538
g358
(g1662
g360
Ntp2539
Rp2540
(dp2541
g1666
g1337
sg1667
g1668
sg384
g1351
sbsS's3eTypes.h'
p2542
g358
(g1662
g360
Ntp2543
Rp2544
(dp2545
g1666
g1674
sg1667
g1690
sg384
S'c:/marmalade/7.10/s3e/h/s3eTypes.h'
p2546
sbsS'signal_2.h'
p2547
g358
(g1662
g360
Ntp2548
Rp2549
(dp2550
g1666
g1674
sg1667
g1675
sg384
S'c:/marmalade/7.10/s3e/h/std/c++/signal.h'
p2551
sbsS'termios.h'
p2552
g358
(g1662
g360
Ntp2553
Rp2554
(dp2555
g1666
g1674
sg1667
g1696
sg384
S'c:/marmalade/7.10/s3e/h/std/termios.h'
p2556
sbsS's3eAmazonAds_interface.cpp'
p2557
g358
(g1662
g360
Ntp2558
Rp2559
(dp2560
g1666
g1280
sg1667
(lp2561
g1272
ag1274
ag1276
asg384
g1281
sbsS'slist'
p2562
g358
(g1662
g360
Ntp2563
Rp2564
(dp2565
g1666
g1674
sg1667
g1675
sg384
S'c:/marmalade/7.10/s3e/h/std/c++/slist'
p2566
sbsS'cstdlib'
p2567
g358
(g1662
g360
Ntp2568
Rp2569
(dp2570
g1666
g1674
sg1667
g1675
sg384
S'c:/marmalade/7.10/s3e/h/std/c++/cstdlib'
p2571
sbsS's3eLocation.h'
p2572
g358
(g1662
g360
Ntp2573
Rp2574
(dp2575
g1666
g1674
sg1667
g1690
sg384
S'c:/marmalade/7.10/s3e/h/s3eLocation.h'
p2576
sbsS'IwMemBucketHelpers.h'
p2577
g358
(g1662
g360
Ntp2578
Rp2579
(dp2580
g1666
g1513
sg1667
g1703
sg384
g1524
sbsS's3eHash.h'
p2581
g358
(g1662
g360
Ntp2582
Rp2583
(dp2584
g1666
g1674
sg1667
g1690
sg384
S'c:/marmalade/7.10/s3e/h/s3eHash.h'
p2585
sbsS'IwGeomFMat.h'
p2586
g358
(g1662
g360
Ntp2587
Rp2588
(dp2589
g1666
g1359
sg1667
g1724
sg384
g1417
sbsS'type_traits.h'
p2590
g358
(g1662
g360
Ntp2591
Rp2592
(dp2593
g1666
g1674
sg1667
g1675
sg384
S'c:/marmalade/7.10/s3e/h/std/c++/type_traits.h'
p2594
sbsS's3eAtomic.h'
p2595
g358
(g1662
g360
Ntp2596
Rp2597
(dp2598
g1666
g1674
sg1667
g1690
sg384
S'c:/marmalade/7.10/s3e/h/s3eAtomic.h'
p2599
sbsS'IwMenu.h'
p2600
g358
(g1662
g360
Ntp2601
Rp2602
(dp2603
g1666
g1513
sg1667
g1703
sg384
g1520
sbsS'IwResHandlerITX.h'
p2604
g358
(g1662
g360
Ntp2605
Rp2606
(dp2607
g1666
g1435
sg1667
g1919
sg384
g1440
sbsS'IwArray.h'
p2608
g358
(g1662
g360
Ntp2609
Rp2610
(dp2611
g1666
g1513
sg1667
g1703
sg384
g1522
sbsS'IwUTF8.h'
p2612
g358
(g1662
g360
Ntp2613
Rp2614
(dp2615
g1666
g1513
sg1667
g1703
sg384
g1603
sbsS'math_rvct.h'
p2616
g358
(g1662
g360
Ntp2617
Rp2618
(dp2619
g1666
g1674
sg1667
g1696
sg384
S'c:/marmalade/7.10/s3e/h/std/math_rvct.h'
p2620
sbsS'IwUtil.h'
p2621
g358
(g1662
g360
Ntp2622
Rp2623
(dp2624
g1666
g1513
sg1667
g1703
sg384
g1537
sbsS'IwFColour.h'
p2625
g358
(g1662
g360
Ntp2626
Rp2627
(dp2628
g1666
g1459
sg1667
g1796
sg384
g1503
sbsS's3eamazonads.mkf'
p2629
g358
(g1662
g360
Ntp2630
Rp2631
(dp2632
g1666
g1285
sg1667
(lp2633
g1272
ag1274
asg384
g1283
sbsS'wctype.h'
p2634
g358
(g1662
g360
Ntp2635
Rp2636
(dp2637
g1666
g1674
sg1667
g1696
sg384
S'c:/marmalade/7.10/s3e/h/std/wctype.h'
p2638
sbsS'cstddef'
p2639
g358
(g1662
g360
Ntp2640
Rp2641
(dp2642
g1666
g1674
sg1667
g1675
sg384
S'c:/marmalade/7.10/s3e/h/std/c++/cstddef'
p2643
sbsS'assert.h'
p2644
g358
(g1662
g360
Ntp2645
Rp2646
(dp2647
g1666
g1674
sg1667
g1696
sg384
S'c:/marmalade/7.10/s3e/h/std/assert.h'
p2648
sbsS'mman.h'
p2649
g358
(g1662
g360
Ntp2650
Rp2651
(dp2652
g1666
g1674
sg1667
g1810
sg384
S'c:/marmalade/7.10/s3e/h/std/sys/mman.h'
p2653
sbsS'IwRandom.h'
p2654
g358
(g1662
g360
Ntp2655
Rp2656
(dp2657
g1666
g1513
sg1667
g1703
sg384
g1579
sbsS'libgen.h'
p2658
g358
(g1662
g360
Ntp2659
Rp2660
(dp2661
g1666
g1674
sg1667
g1696
sg384
S'c:/marmalade/7.10/s3e/h/std/libgen.h'
p2662
sbsS'utsname.h'
p2663
g358
(g1662
g360
Ntp2664
Rp2665
(dp2666
g1666
g1674
sg1667
g1810
sg384
S'c:/marmalade/7.10/s3e/h/std/sys/utsname.h'
p2667
sbsS'wait.h'
p2668
g358
(g1662
g360
Ntp2669
Rp2670
(dp2671
g1666
g1674
sg1667
g1810
sg384
S'c:/marmalade/7.10/s3e/h/std/sys/wait.h'
p2672
sbsS'param.h'
p2673
g358
(g1662
g360
Ntp2674
Rp2675
(dp2676
g1666
g1674
sg1667
g1810
sg384
S'c:/marmalade/7.10/s3e/h/std/sys/param.h'
p2677
sbsS'IwDivide.h'
p2678
g358
(g1662
g360
Ntp2679
Rp2680
(dp2681
g1666
g1513
sg1667
g1703
sg384
g1531
sbsS'IwResManager.h'
p2682
g358
(g1662
g360
Ntp2683
Rp2684
(dp2685
g1666
g1435
sg1667
g1919
sg384
g1442
sbsS'ostream'
p2686
g358
(g1662
g360
Ntp2687
Rp2688
(dp2689
g1666
g1674
sg1667
g1675
sg384
S'c:/marmalade/7.10/s3e/h/std/c++/ostream'
p2690
sbsS'cwctype'
p2691
g358
(g1662
g360
Ntp2692
Rp2693
(dp2694
g1666
g1674
sg1667
g1675
sg384
S'c:/marmalade/7.10/s3e/h/std/c++/cwctype'
p2695
sbsS'set'
p2696
g358
(g1662
g360
Ntp2697
Rp2698
(dp2699
g1666
g1674
sg1667
g1675
sg384
S'c:/marmalade/7.10/s3e/h/std/c++/set'
p2700
sbsS'IwGeomSQuat.h'
p2701
g358
(g1662
g360
Ntp2702
Rp2703
(dp2704
g1666
g1359
sg1667
g1724
sg384
g1403
sbsS'locale'
p2705
g358
(g1662
g360
Ntp2706
Rp2707
(dp2708
g1666
g1674
sg1667
g1675
sg384
S'c:/marmalade/7.10/s3e/h/std/c++/locale'
p2709
sbsS'cstdio'
p2710
g358
(g1662
g360
Ntp2711
Rp2712
(dp2713
g1666
g1674
sg1667
g1675
sg384
S'c:/marmalade/7.10/s3e/h/std/c++/cstdio'
p2714
sbsS'cdjpeg.h'
p2715
g358
(g1662
g360
Ntp2716
Rp2717
(dp2718
g1666
g1629
sg1667
g1754
sg384
g1634
sbsS'IwList.h'
p2719
g358
(g1662
g360
Ntp2720
Rp2721
(dp2722
g1666
g1513
sg1667
g1703
sg384
g1575
sbsS'inttypes.h'
p2723
g358
(g1662
g360
Ntp2724
Rp2725
(dp2726
g1666
g1674
sg1667
g1696
sg384
S'c:/marmalade/7.10/s3e/h/std/inttypes.h'
p2727
sbsS'dirent.h'
p2728
g358
(g1662
g360
Ntp2729
Rp2730
(dp2731
g1666
g1674
sg1667
g1696
sg384
S'c:/marmalade/7.10/s3e/h/std/dirent.h'
p2732
sbsS'IwGeomVec3.h'
p2733
g358
(g1662
g360
Ntp2734
Rp2735
(dp2736
g1666
g1359
sg1667
g1724
sg384
g1387
sbsS'transupp.h'
p2737
g358
(g1662
g360
Ntp2738
Rp2739
(dp2740
g1666
g1629
sg1667
g1754
sg384
g1632
sbsS'IwMath.h'
p2741
g358
(g1662
g360
Ntp2742
Rp2743
(dp2744
g1666
g1513
sg1667
g1703
sg384
g1549
sbsS'IwGeomQuat.h'
p2745
g358
(g1662
g360
Ntp2746
Rp2747
(dp2748
g1666
g1359
sg1667
g1724
sg384
g1357
sbsS'glplatform.h'
p2749
g358
(g1662
g360
Ntp2750
Rp2751
(dp2752
g1666
g1674
sg1667
g2214
sg384
S'c:/marmalade/7.10/s3e/h/GLES/glplatform.h'
p2753
sbsS's3e-default.mkf'
p2754
g358
(g1662
g360
Ntp2755
Rp2756
(dp2757
g1666
g1306
sg1667
(lp2758
g1302
asg384
g1304
sbsS'bitset'
p2759
g358
(g1662
g360
Ntp2760
Rp2761
(dp2762
g1666
g1674
sg1667
g1675
sg384
S'c:/marmalade/7.10/s3e/h/std/c++/bitset'
p2763
sbsS'alloca.h'
p2764
g358
(g1662
g360
Ntp2765
Rp2766
(dp2767
g1666
g1674
sg1667
g1696
sg384
S'c:/marmalade/7.10/s3e/h/std/alloca.h'
p2768
sbsS'IwResHandler.h'
p2769
g358
(g1662
g360
Ntp2770
Rp2771
(dp2772
g1666
g1435
sg1667
g1919
sg384
g1433
sbsS'IwResHandlerMTL.h'
p2773
g358
(g1662
g360
Ntp2774
Rp2775
(dp2776
g1666
g1459
sg1667
g1796
sg384
g1497
sbsS'IwRuntime.h'
p2777
g358
(g1662
g360
Ntp2778
Rp2779
(dp2780
g1666
g1513
sg1667
g1703
sg384
g1601
sbsS'limits'
p2781
g358
(g1662
g360
Ntp2782
Rp2783
(dp2784
g1666
g1674
sg1667
g1675
sg384
S'c:/marmalade/7.10/s3e/h/std/c++/limits'
p2785
sbsS'IwGeomBBox.h'
p2786
g358
(g1662
g360
Ntp2787
Rp2788
(dp2789
g1666
g1359
sg1667
g1724
sg384
g1407
sbsS's3eContacts.h'
p2790
g358
(g1662
g360
Ntp2791
Rp2792
(dp2793
g1666
g1674
sg1667
g1690
sg384
S'c:/marmalade/7.10/s3e/h/s3eContacts.h'
p2794
sbsS's3eLicense.h'
p2795
g358
(g1662
g360
Ntp2796
Rp2797
(dp2798
g1666
g1674
sg1667
g1690
sg384
S'c:/marmalade/7.10/s3e/h/s3eLicense.h'
p2799
sbsS'iwgx.config.txt'
p2800
g358
(g1662
g360
Ntp2801
Rp2802
(dp2803
g1666
g1459
sg1667
g1796
sg384
g1470
sbsS'IwTextParser.h'
p2804
g358
(g1662
g360
Ntp2805
Rp2806
(dp2807
g1666
g1513
sg1667
g1703
sg384
g1553
sbsS's3eTimer.h'
p2808
g358
(g1662
g360
Ntp2809
Rp2810
(dp2811
g1666
g1674
sg1667
g1690
sg384
S'c:/marmalade/7.10/s3e/h/s3eTimer.h'
p2812
sbsS'IwGeomVec.h'
p2813
g358
(g1662
g360
Ntp2814
Rp2815
(dp2816
g1666
g1359
sg1667
g1724
sg384
g1411
sbsS'IwSerialise.h'
p2817
g358
(g1662
g360
Ntp2818
Rp2819
(dp2820
g1666
g1513
sg1667
g1703
sg384
g1547
sbsS'cstdarg'
p2821
g358
(g1662
g360
Ntp2822
Rp2823
(dp2824
g1666
g1674
sg1667
g1675
sg384
S'c:/marmalade/7.10/s3e/h/std/c++/cstdarg'
p2825
sbsS'gl2ext.h'
p2826
g358
(g1662
g360
Ntp2827
Rp2828
(dp2829
g1666
g1674
sg1667
g1911
sg384
S'c:/marmalade/7.10/s3e/h/GLES2/gl2ext.h'
p2830
sbsS'IwChar.h'
p2831
g358
(g1662
g360
Ntp2832
Rp2833
(dp2834
g1666
g1513
sg1667
g1703
sg384
g1563
sbsS's3eSound.h'
p2835
g358
(g1662
g360
Ntp2836
Rp2837
(dp2838
g1666
g1674
sg1667
g1690
sg384
S'c:/marmalade/7.10/s3e/h/s3eSound.h'
p2839
sbsS'IwOptimiseThumb.h'
p2840
g358
(g1662
g360
Ntp2841
Rp2842
(dp2843
g1666
g1513
sg1667
g1703
sg384
g1565
sbsS'exception.h'
p2844
g358
(g1662
g360
Ntp2845
Rp2846
(dp2847
g1666
g1674
sg1667
g1675
sg384
S'c:/marmalade/7.10/s3e/h/std/c++/exception.h'
p2848
sbsS'iwgeom.config.txt'
p2849
g358
(g1662
g360
Ntp2850
Rp2851
(dp2852
g1666
g1359
sg1667
g1724
sg384
g1368
sbsS'gl31.h'
p2853
g358
(g1662
g360
Ntp2854
Rp2855
(dp2856
g1666
g1674
sg1667
g1966
sg384
S'c:/marmalade/7.10/s3e/h/GLES3/gl31.h'
p2857
sbsS'gl.h'
p2858
g358
(g1662
g360
Ntp2859
Rp2860
(dp2861
g1666
g1674
sg1667
g2214
sg384
S'c:/marmalade/7.10/s3e/h/GLES/gl.h'
p2862
sbsS'zlib.h'
p2863
g358
(g1662
g360
Ntp2864
Rp2865
(dp2866
g1666
g1618
sg1667
g2316
sg384
g1619
sbsS'temp_defines_release.h'
p2867
g358
(g1662
g360
Ntp2868
Rp2869
(dp2870
g1666
(lp2871
sg1667
(lp2872
S"'generated files'"
p2873
asg384
S'd:/Marmalade/Stage1/build_stage1_vc14/temp_defines_release.h'
p2874
sbsS'iwgl.mkf'
p2875
g358
(g1662
g360
Ntp2876
Rp2877
(dp2878
g1666
g1313
sg1667
g1684
sg384
g1311
sbsS'IwColour.h'
p2879
g358
(g1662
g360
Ntp2880
Rp2881
(dp2882
g1666
g1459
sg1667
g1796
sg384
g1472
sbsS's3eLibrary.h'
p2883
g358
(g1662
g360
Ntp2884
Rp2885
(dp2886
g1666
g1674
sg1667
g1879
sg384
S'c:/marmalade/7.10/s3e/h/ext/s3eLibrary.h'
p2887
sbsS'types.h'
p2888
g358
(g1662
g360
Ntp2889
Rp2890
(dp2891
g1666
g1674
sg1667
g1810
sg384
S'c:/marmalade/7.10/s3e/h/std/sys/types.h'
p2892
sbsS'ifaddrs.h'
p2893
g358
(g1662
g360
Ntp2894
Rp2895
(dp2896
g1666
g1674
sg1667
g1696
sg384
S'c:/marmalade/7.10/s3e/h/std/ifaddrs.h'
p2897
sbsS'strstream'
p2898
g358
(g1662
g360
Ntp2899
Rp2900
(dp2901
g1666
g1674
sg1667
g1675
sg384
S'c:/marmalade/7.10/s3e/h/std/c++/strstream'
p2902
sbsS'Stage1.cpp'
p2903
g358
(g1662
g360
Ntp2904
Rp2905
(dp2906
g1666
g1266
sg1667
(lp2907
sg384
g1264
sbsS'exception'
p2908
g358
(g1662
g360
Ntp2909
Rp2910
(dp2911
g1666
g1674
sg1667
g1675
sg384
S'c:/marmalade/7.10/s3e/h/std/c++/exception'
p2912
sbsS's3eAmazonAds.defines.txt'
p2913
g358
(g1662
g360
Ntp2914
Rp2915
(dp2916
g1666
g1280
sg1667
g2561
sg384
g1278
sbsS'rlocks.h'
p2917
g358
(g1662
g360
Ntp2918
Rp2919
(dp2920
g1666
g1674
sg1667
g1675
sg384
S'c:/marmalade/7.10/s3e/h/std/c++/rlocks.h'
p2921
sbsS'ioctl.h'
p2922
g358
(g1662
g360
Ntp2923
Rp2924
(dp2925
g1666
g1674
sg1667
g1810
sg384
S'c:/marmalade/7.10/s3e/h/std/sys/ioctl.h'
p2926
sbsS'rope'
p2927
g358
(g1662
g360
Ntp2928
Rp2929
(dp2930
g1666
g1674
sg1667
g1675
sg384
S'c:/marmalade/7.10/s3e/h/std/c++/rope'
p2931
sbsS'jinclude.h'
p2932
g358
(g1662
g360
Ntp2933
Rp2934
(dp2935
g1666
g1629
sg1667
g1754
sg384
g1652
sbsS'IwEvent.h'
p2936
g358
(g1662
g360
Ntp2937
Rp2938
(dp2939
g1666
g1513
sg1667
g1703
sg384
g1599
sbsS'IwOptimiseSize.h'
p2940
g358
(g1662
g360
Ntp2941
Rp2942
(dp2943
g1666
g1513
sg1667
g1703
sg384
g1589
sbsS'iwgxfont_public.defines.txt'
p2944
g358
(g1662
g360
Ntp2945
Rp2946
(dp2947
g1666
g1337
sg1667
g1668
sg384
g1347
sbsS'iconv.h'
p2948
g358
(g1662
g360
Ntp2949
Rp2950
(dp2951
g1666
g1674
sg1667
g1696
sg384
S'c:/marmalade/7.10/s3e/h/std/iconv.h'
p2952
sbsS'sendfile.h'
p2953
g358
(g1662
g360
Ntp2954
Rp2955
(dp2956
g1666
g1674
sg1667
g1810
sg384
S'c:/marmalade/7.10/s3e/h/std/sys/sendfile.h'
p2957
sbsS'IwGeomSphere.h'
p2958
g358
(g1662
g360
Ntp2959
Rp2960
(dp2961
g1666
g1359
sg1667
g1724
sg384
g1393
sbsS'tiniconv.mkf'
p2962
g358
(g1662
g360
Ntp2963
Rp2964
(dp2965
g1666
g1263
sg1667
g2114
sg384
g1261
sbsS'jdct.h'
p2966
g358
(g1662
g360
Ntp2967
Rp2968
(dp2969
g1666
g1629
sg1667
g1754
sg384
g1642
sbsS'cctype'
p2970
g358
(g1662
g360
Ntp2971
Rp2972
(dp2973
g1666
g1674
sg1667
g1675
sg384
S'c:/marmalade/7.10/s3e/h/std/c++/cctype'
p2974
sbsS's3eConfig.h'
p2975
g358
(g1662
g360
Ntp2976
Rp2977
(dp2978
g1666
g1674
sg1667
g1690
sg384
S'c:/marmalade/7.10/s3e/h/s3eConfig.h'
p2979
sbsS'IwHashString.h'
p2980
g358
(g1662
g360
Ntp2981
Rp2982
(dp2983
g1666
g1513
sg1667
g1703
sg384
g1543
sbsS'stat.h'
p2984
g358
(g1662
g360
Ntp2985
Rp2986
(dp2987
g1666
g1674
sg1667
g1810
sg384
S'c:/marmalade/7.10/s3e/h/std/sys/stat.h'
p2988
sbsS'byteswap.h'
p2989
g358
(g1662
g360
Ntp2990
Rp2991
(dp2992
g1666
g1674
sg1667
g1696
sg384
S'c:/marmalade/7.10/s3e/h/std/byteswap.h'
p2993
sbsS'iwresmanager.mkf'
p2994
g358
(g1662
g360
Ntp2995
Rp2996
(dp2997
g1666
g1448
sg1667
g1919
sg384
g1446
sbsS'IwUtilInitTerm.h'
p2998
g358
(g1662
g360
Ntp2999
Rp3000
(dp3001
g1666
g1513
sg1667
g1703
sg384
g1597
sbsS'pthread_1.h'
p3002
g358
(g1662
g360
Ntp3003
Rp3004
(dp3005
g1666
g1674
sg1667
g1675
sg384
S'c:/marmalade/7.10/s3e/h/std/c++/pthread.h'
p3006
sbsS'iw2d.mkf'
p3007
g358
(g1662
g360
Ntp3008
Rp3009
(dp3010
g1666
g1325
sg1667
g1759
sg384
g1323
sbsS'complex'
p3011
g358
(g1662
g360
Ntp3012
Rp3013
(dp3014
g1666
g1674
sg1667
g1675
sg384
S'c:/marmalade/7.10/s3e/h/std/c++/complex'
p3015
sbsS's3e.icf'
p3016
g358
(g1662
g360
Ntp3017
Rp3018
(dp3019
g1666
g1674
sg1667
g1690
sg384
S'c:/marmalade/7.10/s3e/s3e.icf'
p3020
sbsS'IwVariableBitField.h'
p3021
g358
(g1662
g360
Ntp3022
Rp3023
(dp3024
g1666
g1513
sg1667
g1703
sg384
g1591
sbsS'sem.h'
p3025
g358
(g1662
g360
Ntp3026
Rp3027
(dp3028
g1666
g1674
sg1667
g1810
sg384
S'c:/marmalade/7.10/s3e/h/std/sys/sem.h'
p3029
sbsS'IwGxFontState.h'
p3030
g358
(g1662
g360
Ntp3031
Rp3032
(dp3033
g1666
g1337
sg1667
g1668
sg384
g1345
sbsS'stdio.h'
p3034
g358
(g1662
g360
Ntp3035
Rp3036
(dp3037
g1666
g1674
sg1667
g1696
sg384
S'c:/marmalade/7.10/s3e/h/std/stdio.h'
p3038
sbsS'jmemsys.h'
p3039
g358
(g1662
g360
Ntp3040
Rp3041
(dp3042
g1666
g1629
sg1667
g1754
sg384
g1646
sbsS'ios'
p3043
g358
(g1662
g360
Ntp3044
Rp3045
(dp3046
g1666
g1674
sg1667
g1675
sg384
S'c:/marmalade/7.10/s3e/h/std/c++/ios'
p3047
sbsS'IwGeomFVec4.h'
p3048
g358
(g1662
g360
Ntp3049
Rp3050
(dp3051
g1666
g1359
sg1667
g1724
sg384
g1427
sbsS'stack'
p3052
g358
(g1662
g360
Ntp3053
Rp3054
(dp3055
g1666
g1674
sg1667
g1675
sg384
S'c:/marmalade/7.10/s3e/h/std/c++/stack'
p3056
sbsS'new.h'
p3057
g358
(g1662
g360
Ntp3058
Rp3059
(dp3060
g1666
g1674
sg1667
g1675
sg384
S'c:/marmalade/7.10/s3e/h/std/c++/new.h'
p3061
sbsS's3eAmazonAds.h'
p3062
g358
(g1662
g360
Ntp3063
Rp3064
(dp3065
g1666
g1280
sg1667
g2633
sg384
g1286
sbsS's3eEMail.h'
p3066
g358
(g1662
g360
Ntp3067
Rp3068
(dp3069
g1666
g1674
sg1667
g1879
sg384
S'c:/marmalade/7.10/s3e/h/ext/s3eEMail.h'
p3070
sbsS's3eVideo.h'
p3071
g358
(g1662
g360
Ntp3072
Rp3073
(dp3074
g1666
g1674
sg1667
g1690
sg384
S'c:/marmalade/7.10/s3e/h/s3eVideo.h'
p3075
sbsS'pngconf.h'
p3076
g358
(g1662
g360
Ntp3077
Rp3078
(dp3079
g1666
g1243
sg1667
g2371
sg384
g1244
sbsS'pwd.h'
p3080
g358
(g1662
g360
Ntp3081
Rp3082
(dp3083
g1666
g1674
sg1667
g1696
sg384
S'c:/marmalade/7.10/s3e/h/std/pwd.h'
p3084
sbsS'gl3.h'
p3085
g358
(g1662
g360
Ntp3086
Rp3087
(dp3088
g1666
g1674
sg1667
g1966
sg384
S'c:/marmalade/7.10/s3e/h/GLES3/gl3.h'
p3089
sbsS'IwClip.h'
p3090
g358
(g1662
g360
Ntp3091
Rp3092
(dp3093
g1666
g1459
sg1667
g1796
sg384
g1468
sbsS'iwresmanager.config.txt'
p3094
g358
(g1662
g360
Ntp3095
Rp3096
(dp3097
g1666
g1435
sg1667
g1919
sg384
g1436
sbsS'IwGxShaderTechnique.h'
p3098
g358
(g1662
g360
Ntp3099
Rp3100
(dp3101
g1666
g1459
sg1667
g1796
sg384
g1507
sbsS'IwCore.h'
p3102
g358
(g1662
g360
Ntp3103
Rp3104
(dp3105
g1666
g1513
sg1667
g1703
sg384
g1559
sbsS'cfloat'
p3106
g358
(g1662
g360
Ntp3107
Rp3108
(dp3109
g1666
g1674
sg1667
g1675
sg384
S'c:/marmalade/7.10/s3e/h/std/c++/cfloat'
p3110
sbsS'IwGeomMat2D.h'
p3111
g358
(g1662
g360
Ntp3112
Rp3113
(dp3114
g1666
g1359
sg1667
g1724
sg384
g1423
sbsS'IwAllocator.h'
p3115
g358
(g1662
g360
Ntp3116
Rp3117
(dp3118
g1666
g1513
sg1667
g1703
sg384
g1561
sbsS'IwPath.h'
p3119
g358
(g1662
g360
Ntp3120
Rp3121
(dp3122
g1666
g1513
sg1667
g1703
sg384
g1514
sbsS'iwgxfont.mkf'
p3123
g358
(g1662
g360
Ntp3124
Rp3125
(dp3126
g1666
g1342
sg1667
g1668
sg384
g1340
sbsS'IwTexture.h'
p3127
g358
(g1662
g360
Ntp3128
Rp3129
(dp3130
g1666
g1459
sg1667
g1796
sg384
g1491
sbsS'IwGeomVec.h.tpl'
p3131
g358
(g1662
g360
Ntp3132
Rp3133
(dp3134
g1666
g1359
sg1667
g1724
sg384
g1366
sbsS's3eAccelerometer.h'
p3135
g358
(g1662
g360
Ntp3136
Rp3137
(dp3138
g1666
g1674
sg1667
g1690
sg384
S'c:/marmalade/7.10/s3e/h/s3eAccelerometer.h'
p3139
sbsS'setjmp.h'
p3140
g358
(g1662
g360
Ntp3141
Rp3142
(dp3143
g1666
g1674
sg1667
g1696
sg384
S'c:/marmalade/7.10/s3e/h/std/setjmp.h'
p3144
sbsS'IwFile.h'
p3145
g358
(g1662
g360
Ntp3146
Rp3147
(dp3148
g1666
g1513
sg1667
g1703
sg384
g1516
sbsS'IwTextParseable.h'
p3149
g358
(g1662
g360
Ntp3150
Rp3151
(dp3152
g1666
g1513
sg1667
g1703
sg384
g1585
sbsS'istream.h'
p3153
g358
(g1662
g360
Ntp3154
Rp3155
(dp3156
g1666
g1674
sg1667
g1675
sg384
S'c:/marmalade/7.10/s3e/h/std/c++/istream.h'
p3157
sbsS'stdint.h'
p3158
g358
(g1662
g360
Ntp3159
Rp3160
(dp3161
g1666
g1674
sg1667
g1696
sg384
S'c:/marmalade/7.10/s3e/h/std/stdint.h'
p3162
sbsS'semaphore.h'
p3163
g358
(g1662
g360
Ntp3164
Rp3165
(dp3166
g1666
g1674
sg1667
g1696
sg384
S'c:/marmalade/7.10/s3e/h/std/semaphore.h'
p3167
sbsS'ctime'
p3168
g358
(g1662
g360
Ntp3169
Rp3170
(dp3171
g1666
g1674
sg1667
g1675
sg384
S'c:/marmalade/7.10/s3e/h/std/c++/ctime'
p3172
sbsS'sstream'
p3173
g358
(g1662
g360
Ntp3174
Rp3175
(dp3176
g1666
g1674
sg1667
g1675
sg384
S'c:/marmalade/7.10/s3e/h/std/c++/sstream'
p3177
sbsS'IwGeomFBBox.h'
p3178
g358
(g1662
g360
Ntp3179
Rp3180
(dp3181
g1666
g1359
sg1667
g1724
sg384
g1370
sbsS'IwDebugPrim.h'
p3182
g358
(g1662
g360
Ntp3183
Rp3184
(dp3185
g1666
g1459
sg1667
g1796
sg384
g1478
sbsS'IwGxFontContainer.h'
p3186
g358
(g1662
g360
Ntp3187
Rp3188
(dp3189
g1666
g1337
sg1667
g1668
sg384
g1349
sbsS'IwGeomSVec3.h'
p3190
g358
(g1662
g360
Ntp3191
Rp3192
(dp3193
g1666
g1359
sg1667
g1724
sg384
g1381
sbsS'cassert'
p3194
g358
(g1662
g360
Ntp3195
Rp3196
(dp3197
g1666
g1674
sg1667
g1675
sg384
S'c:/marmalade/7.10/s3e/h/std/c++/cassert'
p3198
sbsS'IwGeomFVec3.h'
p3199
g358
(g1662
g360
Ntp3200
Rp3201
(dp3202
g1666
g1359
sg1667
g1724
sg384
g1421
sbsS'streambuf'
p3203
g358
(g1662
g360
Ntp3204
Rp3205
(dp3206
g1666
g1674
sg1667
g1675
sg384
S'c:/marmalade/7.10/s3e/h/std/c++/streambuf'
p3207
sbsS's3eMetrics.h'
p3208
g358
(g1662
g360
Ntp3209
Rp3210
(dp3211
g1666
g1674
sg1667
g1879
sg384
S'c:/marmalade/7.10/s3e/h/ext/s3eMetrics.h'
p3212
sbsS'IwGxFont.h'
p3213
g358
(g1662
g360
Ntp3214
Rp3215
(dp3216
g1666
g1337
sg1667
g1668
sg384
g1335
sbsS's3eSecureStorage.h'
p3217
g358
(g1662
g360
Ntp3218
Rp3219
(dp3220
g1666
g1674
sg1667
g1690
sg384
S'c:/marmalade/7.10/s3e/h/s3eSecureStorage.h'
p3221
sbsS'string.h'
p3222
g358
(g1662
g360
Ntp3223
Rp3224
(dp3225
g1666
g1674
sg1667
g1696
sg384
S'c:/marmalade/7.10/s3e/h/std/string.h'
p3226
sbsS'IwResource.h'
p3227
g358
(g1662
g360
Ntp3228
Rp3229
(dp3230
g1666
g1513
sg1667
g1703
sg384
g1587
sbsS'IwGeomSVec2.h'
p3231
g358
(g1662
g360
Ntp3232
Rp3233
(dp3234
g1666
g1359
sg1667
g1724
sg384
g1405
sbsS'libjpeg.mkf'
p3235
g358
(g1662
g360
Ntp3236
Rp3237
(dp3238
g1666
g1658
sg1667
(lp3239
g1624
asg384
g1656
sbsS'IwGxDebug.h'
p3240
g358
(g1662
g360
Ntp3241
Rp3242
(dp3243
g1666
g1459
sg1667
g1796
sg384
g1466
sbsS'pthread_types.h'
p3244
g358
(g1662
g360
Ntp3245
Rp3246
(dp3247
g1666
g1674
sg1667
g1696
sg384
S'c:/marmalade/7.10/s3e/h/std/pthread_types.h'
p3248
sbsS'iomanip.h'
p3249
g358
(g1662
g360
Ntp3250
Rp3251
(dp3252
g1666
g1674
sg1667
g1675
sg384
S'c:/marmalade/7.10/s3e/h/std/c++/iomanip.h'
p3253
sbsS'IwKeymap.h'
p3254
g358
(g1662
g360
Ntp3255
Rp3256
(dp3257
g1666
g1513
sg1667
g1703
sg384
g1557
sbsS'IwDebug.h'
p3258
g358
(g1662
g360
Ntp3259
Rp3260
(dp3261
g1666
g1513
sg1667
g1703
sg384
g1583
sbsS's3eIOSBackgroundAudio.h'
p3262
g358
(g1662
g360
Ntp3263
Rp3264
(dp3265
g1666
g1674
sg1667
g1879
sg384
S'c:/marmalade/7.10/s3e/h/ext/s3eIOSBackgroundAudio.h'
p3266
sbsS'IwGeomMenu.h'
p3267
g358
(g1662
g360
Ntp3268
Rp3269
(dp3270
g1666
g1359
sg1667
g1724
sg384
g1413
sbsS'IwDivTable.h'
p3271
g358
(g1662
g360
Ntp3272
Rp3273
(dp3274
g1666
g1513
sg1667
g1703
sg384
g1511
sbsS'ctype.h'
p3275
g358
(g1662
g360
Ntp3276
Rp3277
(dp3278
g1666
g1674
sg1667
g1696
sg384
S'c:/marmalade/7.10/s3e/h/std/ctype.h'
p3279
sbsS'IwGeomMat.h'
p3280
g358
(g1662
g360
Ntp3281
Rp3282
(dp3283
g1666
g1359
sg1667
g1724
sg384
g1425
sbsS'IwResGroup.h'
p3284
g358
(g1662
g360
Ntp3285
Rp3286
(dp3287
g1666
g1435
sg1667
g1919
sg384
g1451
sbsS'signal_1.h'
p3288
g358
(g1662
g360
Ntp3289
Rp3290
(dp3291
g1666
g1674
sg1667
g1810
sg384
S'c:/marmalade/7.10/s3e/h/std/sys/signal.h'
p3292
sbsS'functional'
p3293
g358
(g1662
g360
Ntp3294
Rp3295
(dp3296
g1666
g1674
sg1667
g1675
sg384
S'c:/marmalade/7.10/s3e/h/std/c++/functional'
p3297
sbsS'shm.h'
p3298
g358
(g1662
g360
Ntp3299
Rp3300
(dp3301
g1666
g1674
sg1667
g1810
sg384
S'c:/marmalade/7.10/s3e/h/std/sys/shm.h'
p3302
sbsS'IwManagedList.h'
p3303
g358
(g1662
g360
Ntp3304
Rp3305
(dp3306
g1666
g1513
sg1667
g1703
sg384
g1535
sbsS'prctl.h'
p3307
g358
(g1662
g360
Ntp3308
Rp3309
(dp3310
g1666
g1674
sg1667
g1810
sg384
S'c:/marmalade/7.10/s3e/h/std/sys/prctl.h'
p3311
sbsS'un.h'
p3312
g358
(g1662
g360
Ntp3313
Rp3314
(dp3315
g1666
g1674
sg1667
g1810
sg384
S'c:/marmalade/7.10/s3e/h/std/sys/un.h'
p3316
sbsS'temp_defines_debug.h'
p3317
g358
(g1662
g360
Ntp3318
Rp3319
(dp3320
g1666
(lp3321
sg1667
(lp3322
g2873
asg384
S'd:/Marmalade/Stage1/build_stage1_vc14/temp_defines_debug.h'
p3323
sbsS'utility'
p3324
g358
(g1662
g360
Ntp3325
Rp3326
(dp3327
g1666
g1674
sg1667
g1675
sg384
S'c:/marmalade/7.10/s3e/h/std/c++/utility'
p3328
sbsS'IwGeomLegacy.h'
p3329
g358
(g1662
g360
Ntp3330
Rp3331
(dp3332
g1666
g1359
sg1667
g1724
sg384
g1395
sbsS'IwTPage.h'
p3333
g358
(g1662
g360
Ntp3334
Rp3335
(dp3336
g1666
g1459
sg1667
g1796
sg384
g1495
sbsS'IwResSerialise.h'
p3337
g358
(g1662
g360
Ntp3338
Rp3339
(dp3340
g1666
g1435
sg1667
g1919
sg384
g1444
sbsS's3eCrypto.h'
p3341
g358
(g1662
g360
Ntp3342
Rp3343
(dp3344
g1666
g1674
sg1667
g1690
sg384
S'c:/marmalade/7.10/s3e/h/s3eCrypto.h'
p3345
sbsS's3eKeyboard.h'
p3346
g358
(g1662
g360
Ntp3347
Rp3348
(dp3349
g1666
g1674
sg1667
g1690
sg384
S'c:/marmalade/7.10/s3e/h/s3eKeyboard.h'
p3350
sbsS'fcntl.h'
p3351
g358
(g1662
g360
Ntp3352
Rp3353
(dp3354
g1666
g1674
sg1667
g1696
sg384
S'c:/marmalade/7.10/s3e/h/std/fcntl.h'
p3355
sbsS'memory.h'
p3356
g358
(g1662
g360
Ntp3357
Rp3358
(dp3359
g1666
g1674
sg1667
g1696
sg384
S'c:/marmalade/7.10/s3e/h/std/memory.h'
p3360
sbsS'pthread.h'
p3361
g358
(g1662
g360
Ntp3362
Rp3363
(dp3364
g1666
g1674
sg1667
g1696
sg384
S'c:/marmalade/7.10/s3e/h/std/pthread.h'
p3365
sbsS'IwGeomIntersect.h'
p3366
g358
(g1662
g360
Ntp3367
Rp3368
(dp3369
g1666
g1359
sg1667
g1724
sg384
g1362
sbsS'algorithm'
p3370
g358
(g1662
g360
Ntp3371
Rp3372
(dp3373
g1666
g1674
sg1667
g1675
sg384
S'c:/marmalade/7.10/s3e/h/std/c++/algorithm'
p3374
sbsS'egl_1.h'
p3375
g358
(g1662
g360
Ntp3376
Rp3377
(dp3378
g1666
g1674
sg1667
g2214
sg384
S'c:/marmalade/7.10/s3e/h/GLES/egl.h'
p3379
sbsS'ostream.h'
p3380
g358
(g1662
g360
Ntp3381
Rp3382
(dp3383
g1666
g1674
sg1667
g1675
sg384
S'c:/marmalade/7.10/s3e/h/std/c++/ostream.h'
p3384
sbsS'stl_user_config.h'
p3385
g358
(g1662
g360
Ntp3386
Rp3387
(dp3388
g1666
g1674
sg1667
g1675
sg384
S'c:/marmalade/7.10/s3e/h/std/c++/stl_user_config.h'
p3389
sbsS'iwgx.mkf'
p3390
g358
(g1662
g360
Ntp3391
Rp3392
(dp3393
g1666
g1484
sg1667
g1796
sg384
g1482
sbsS'IwProfileMenu.h'
p3394
g358
(g1662
g360
Ntp3395
Rp3396
(dp3397
g1666
g1513
sg1667
g1703
sg384
g1581
sbsS'MarmaladeVersion.h'
p3398
g358
(g1662
g360
Ntp3399
Rp3400
(dp3401
g1666
g1674
sg1667
g1690
sg384
S'c:/marmalade/7.10/s3e/h/MarmaladeVersion.h'
p3402
sbsS'gl3platform.h'
p3403
g358
(g1662
g360
Ntp3404
Rp3405
(dp3406
g1666
g1674
sg1667
g1966
sg384
S'c:/marmalade/7.10/s3e/h/GLES3/gl3platform.h'
p3407
sbsS'ios.h'
p3408
g358
(g1662
g360
Ntp3409
Rp3410
(dp3411
g1666
g1674
sg1667
g1675
sg384
S'c:/marmalade/7.10/s3e/h/std/c++/ios.h'
p3412
sbsS'IwImageHelper.h'
p3413
g358
(g1662
g360
Ntp3414
Rp3415
(dp3416
g1666
g1513
sg1667
g1703
sg384
g1605
sbsS'hash_set'
p3417
g358
(g1662
g360
Ntp3418
Rp3419
(dp3420
g1666
g1674
sg1667
g1675
sg384
S'c:/marmalade/7.10/s3e/h/std/c++/hash_set'
p3421
sbsS'IwGeomFQuat.h'
p3422
g358
(g1662
g360
Ntp3423
Rp3424
(dp3425
g1666
g1359
sg1667
g1724
sg384
g1391
sbsS'jmorecfg.h'
p3426
g358
(g1662
g360
Ntp3427
Rp3428
(dp3429
g1666
g1629
sg1667
g1754
sg384
g1640
sbsS'eglplatform.h'
p3430
g358
(g1662
g360
Ntp3431
Rp3432
(dp3433
g1666
g1674
sg1667
g1998
sg384
S'c:/marmalade/7.10/s3e/h/EGL/eglplatform.h'
p3434
sbsS'cmath'
p3435
g358
(g1662
g360
Ntp3436
Rp3437
(dp3438
g1666
g1674
sg1667
g1675
sg384
S'c:/marmalade/7.10/s3e/h/std/c++/cmath'
p3439
sbsS'math_gcc.h'
p3440
g358
(g1662
g360
Ntp3441
Rp3442
(dp3443
g1666
g1674
sg1667
g1696
sg384
S'c:/marmalade/7.10/s3e/h/std/math_gcc.h'
p3444
sbsS's3eMemory.h'
p3445
g358
(g1662
g360
Ntp3446
Rp3447
(dp3448
g1666
g1674
sg1667
g1690
sg384
S'c:/marmalade/7.10/s3e/h/s3eMemory.h'
p3449
sbsS'strings.h'
p3450
g358
(g1662
g360
Ntp3451
Rp3452
(dp3453
g1666
g1674
sg1667
g1696
sg384
S'c:/marmalade/7.10/s3e/h/std/strings.h'
p3454
sbsS's3eFile.h'
p3455
g358
(g1662
g360
Ntp3456
Rp3457
(dp3458
g1666
g1674
sg1667
g1690
sg384
S'c:/marmalade/7.10/s3e/h/s3eFile.h'
p3459
sbsS'IwGxTypes.h'
p3460
g358
(g1662
g360
Ntp3461
Rp3462
(dp3463
g1666
g1459
sg1667
g1796
sg384
g1474
sbsS'cerrno'
p3464
g358
(g1662
g360
Ntp3465
Rp3466
(dp3467
g1666
g1674
sg1667
g1675
sg384
S'c:/marmalade/7.10/s3e/h/std/c++/cerrno'
p3468
sbsS'resource.h'
p3469
g358
(g1662
g360
Ntp3470
Rp3471
(dp3472
g1666
g1674
sg1667
g1810
sg384
S'c:/marmalade/7.10/s3e/h/std/sys/resource.h'
p3473
sbsS'clocale'
p3474
g358
(g1662
g360
Ntp3475
Rp3476
(dp3477
g1666
g1674
sg1667
g1675
sg384
S'c:/marmalade/7.10/s3e/h/std/c++/clocale'
p3478
sbsS'pvrtextool.mkf'
p3479
g358
(g1662
g360
Ntp3480
Rp3481
(dp3482
g1666
g1301
sg1667
g2246
sg384
g1299
sbsS'csetjmp'
p3483
g358
(g1662
g360
Ntp3484
Rp3485
(dp3486
g1666
g1674
sg1667
g1675
sg384
S'c:/marmalade/7.10/s3e/h/std/c++/csetjmp'
p3487
sbsS'netdb.h'
p3488
g358
(g1662
g360
Ntp3489
Rp3490
(dp3491
g1666
g1674
sg1667
g1696
sg384
S'c:/marmalade/7.10/s3e/h/std/netdb.h'
p3492
sbsS's3eAndroidJNI.h'
p3493
g358
(g1662
g360
Ntp3494
Rp3495
(dp3496
g1666
g1674
sg1667
g1879
sg384
S'c:/marmalade/7.10/s3e/h/ext/s3eAndroidJNI.h'
p3497
sbsS'stdexcept'
p3498
g358
(g1662
g360
Ntp3499
Rp3500
(dp3501
g1666
g1674
sg1667
g1675
sg384
S'c:/marmalade/7.10/s3e/h/std/c++/stdexcept'
p3502
sbsS'math.h'
p3503
g358
(g1662
g360
Ntp3504
Rp3505
(dp3506
g1666
g1674
sg1667
g1696
sg384
S'c:/marmalade/7.10/s3e/h/std/math.h'
p3507
sbsS'stdbool.h'
p3508
g358
(g1662
g360
Ntp3509
Rp3510
(dp3511
g1666
g1674
sg1667
g1696
sg384
S'c:/marmalade/7.10/s3e/h/std/stdbool.h'
p3512
sbsS'uio.h'
p3513
g358
(g1662
g360
Ntp3514
Rp3515
(dp3516
g1666
g1674
sg1667
g1810
sg384
S'c:/marmalade/7.10/s3e/h/std/sys/uio.h'
p3517
sbsS'IwUncopyable.h'
p3518
g358
(g1662
g360
Ntp3519
Rp3520
(dp3521
g1666
g1513
sg1667
g1703
sg384
g1577
sbssS'juice_build_type'
p3522
g4
sS'tests'
p3523
(lp3524
sS'project_name'
p3525
g366
sS'root_file'
p3526
g143
sS'current_root'
p3527
S'd:/Marmalade/Stage1'
p3528
sS'dependencies'
p3529
(lp3530
sS'include_paths'
p3531
(lp3532
S'c:/marmalade/7.10/extensions/s3eamazonads/h'
p3533
aS'c:/marmalade/7.10/modules/iwutil/h'
p3534
aS'c:/marmalade/7.10/modules/third_party/libjpeg/h'
p3535
aS'c:/marmalade/7.10/modules/third_party/zlib/h'
p3536
aS'c:/marmalade/7.10/modules/third_party/libpng/h'
p3537
aS'c:/marmalade/7.10/modules/iw2d/h'
p3538
aS'c:/marmalade/7.10/modules/iwgx/h'
p3539
aS'c:/marmalade/7.10/modules/iwgl/h'
p3540
aS'c:/marmalade/7.10/modules/iwgeom/h'
p3541
aS'c:/marmalade/7.10/modules/iwresmanager/h'
p3542
aS'c:/marmalade/7.10/extensions/pvrtextool/h'
p3543
aS'c:/marmalade/7.10/modules/iwgxfont/h'
p3544
aS'c:/marmalade/7.10/modules/third_party/tiniconv/source'
p3545
aS'c:/marmalade/7.10/s3e/h'
p3546
aS'c:/marmalade/7.10/s3e/h/ext'
p3547
aS'c:/marmalade/7.10/s3e/h/std'
p3548
aS'c:/marmalade/7.10/s3e/h/std/c++'
p3549
aS'c:/marmalade/7.10/s3e/h/ext_legacy'
p3550
aS'c:/marmalade/7.10/s3e/h/legacy'
p3551
asS'weak_frameworks'
p3552
(lp3553
sS'extprojects'
p3554
(dp3555
sg681
(dp3556
g675
(lp3557
(S'd:/Marmalade/Stage1/data/textures'
p3558
S'textures'
p3559
I0
tp3560
assS'macro_types'
p3561
(dp3562
g612
I0
sg614
I1
sg615
I0
sg616
I0
sg617
I0
sg618
I0
sg620
I0
sg621
I0
sg622
I0
sg623
I0
sg624
I0
sg625
I0
sg627
I0
sg628
I0
sg629
I0
sg630
I0
sg631
I0
sg632
I0
sg633
I0
sg634
I0
sg636
I0
sg637
I0
sg638
I0
sg639
I0
sg640
I0
sg641
I1
sg642
I0
sg643
I0
sg644
I0
sg645
I01
sg646
I1
sg647
I0
sg648
I0
sg649
I0
sg650
I0
sg651
I0
sg652
I0
ssS'commands'
p3563
(lp3564
sg683
(g1230
S'VC14'
p3565
S'X86ARMAARCH64'
p3566
tp3567
sS'build_libs'
p3568
(dp3569
sg685
g0
sS'frameworks'
p3570
(lp3571
sS'environ'
p3572
(dp3573
S'NACL_ROOT'
p3574
S'c:\\marmalade\\7.10/tools/gcc/x86_64/nacl_windows'
p3575
ssS'target_name_debug'
p3576
g366
sS'builders'
p3577
(dp3578
g675
(dp3579
S'.S'
p3580
(dp3581
S'gcc_aarch64'
p3582
(lp3583
S'.obj'
p3584
aS'echo AARCH64 Assembling(GCC) ${SOURCE}...'
p3585
aS'c:/marmalade/7.10/s3e\\gcc\\win32\\aarch64\\bin\\aarch64-none-elf-gcc -c -o ${TARGET} ${SOURCE}'
p3586
asS'rvct'
p3587
(lp3588
g3584
aS'echo ARM Assembling(RVCT) ${SOURCE}...'
p3589
aS'c:/marmalade/7.10/s3e\\rvct\\bin\\armasm -o ${TARGET} ${SOURCE}'
p3590
asg487
(lp3591
g3584
aS'echo ARM Assembling(GCC) ${SOURCE}...'
p3592
aS'c:/marmalade/7.10/s3e\\gcc\\win32\\arm\\bin\\arm-none-eabi-gcc -c -o ${TARGET} ${SOURCE}'
p3593
asS'ppu'
p3594
(lp3595
S'.a'
p3596
aS'echo PPU Assembling(SNC) ${SOURCE}...'
p3597
aS'c:/marmalade/7.10/s3e\\rvct\\bin\\armasm -o ${TARGET} ${SOURCE}'
p3598
assS'.s'
p3599
g3581
sS'.vp'
p3600
(lp3601
NaS'"C:/Marmalade/7.10/s3e/python/python.exe" "c:/marmalade/7.10/modules/iwgx/tools/compile_shaders.py" ${SOURCE}'
p3602
asssS'extproject_names'
p3603
(lp3604
sbtp3605
.