((dp0
S'arm_dbg_args'
p1
S'-via:"d:\\Marmalade\\Stage1\\build_stage1_vc14\\Stage1_vc14_arm_debug.via" -qemu'
p2
sS'game-icf'
p3
S''
p4
sS'dist'
p5
NsS'csproj'
p6
g4
sS'module_path_append'
p7
NsS'tizen_x86_dbg_exe'
p8
S'c:\\marmalade\\7.10\\s3e\\makefile_builder\\tool_launcher.exe'
p9
sS'global_path'
p10
S'd:\\marmalade'
p11
sS'system_path'
p12
S'c:\\marmalade\\7.10\\s3e\\makefile_builder'
p13
sS'android_x86_dbg_args'
p14
S'../../tools/DeployTool/DeployTool.exe --dir "d:\\Marmalade\\Stage1\\build_stage1_vc14"'
p15
sS'aarch64-arch-mod'
p16
g4
sS'no-emit'
p17
NsS'androidnativedebug'
p18
NsS'arm-float-abi'
p19
g4
sS'arm_rel_rtsm_args'
p20
S'-via:"d:\\Marmalade\\Stage1\\build_stage1_vc14\\Stage1_vc14_arm_release.via" -qemu'
p21
sS'amd64'
p22
NsS'line-width'
p23
I80
sS'gcc_dbg_args'
p24
S'-via:"d:\\Marmalade\\Stage1\\build_stage1_vc14\\Stage1_vc14_gcc_debug.via" -qemu'
p25
sS'sim-release-loader'
p26
NsS'android-x86'
p27
NsS'x86_dbg_exe'
p28
S'c:/marmalade/7.10/s3e\\win32\\s3e_simulator_debug.exe'
p29
sS'jflags'
p30
NsS'nacl_x86_64_rel_args'
p31
g15
sS'release'
p32
NsS'no-make'
p33
NsS'xcode-x86-build-settings'
p34
g4
sS'optimise-size'
p35
NsS'fat'
p36
NsS'output-name-debug'
p37
g4
sS'arm-fpu'
p38
g4
sS'proj_name'
p39
S'Stage1_vc14'
p40
sS'rvct-version'
p41
S'none'
p42
sS'compiler'
p43
g4
sS'execute'
p44
NsS'compile-static'
p45
NsS'nacl_x86_64_rel_exe'
p46
g9
sS'msvc-project'
p47
NsS'buildenv'
p48
S'VC14'
p49
sS'quick'
p50
NsS'module_path'
p51
(lp52
S'd:/Marmalade/modules'
p53
asS'mkf_default'
p54
S's3e-default.mkf'
p55
sS'use-release-std-libs'
p56
NsS'using_perforce'
p57
I00
sS'tizen-x86'
p58
NsS'mips-s3e'
p59
NsS's3e-api-lib-name'
p60
S's3e_api_iwgl'
p61
sS'ios-no-pic'
p62
NsS'shared-arm-lib'
p63
NsS'arm-cpu'
p64
g4
sS'compile-thumb'
p65
NsS'no-ide'
p66
NsS'msvc-version'
p67
S'6.0'
p68
sS'arm'
p69
NsS'nacl_x86_64_dbg_exe'
p70
g9
sS'builddir'
p71
g4
sS'compile-debug-as-release'
p72
I0
sS'arm-arch'
p73
g4
sS'brief'
p74
NsS'dll'
p75
NsS'buildenv-toolset'
p76
g4
sS'version'
p77
NsS'aarch64-arch'
p78
g4
sS'ccache'
p79
I0
sS'offline'
p80
NsS'ios-version'
p81
g4
sS'hub_data'
p82
g4
sS'fake_vc_call'
p83
I01
sS'jobs'
p84
I0
sS'linkflags'
p85
NsS'gcc_aarch64_dbg_args'
p86
g15
sS'nacl_x86_64_dbg_args'
p87
g15
sS'debug'
p88
NsS'xcode-build-order'
p89
g4
sS'gcc_aarch64_rel_rtsm_args'
p90
S'-via:"d:\\Marmalade\\Stage1\\build_stage1_vc14\\Stage1_vc14_gcc_aarch64_release.via" -qemu'
p91
sS'gcc_rel_rtsm_args'
p92
S'-via:"d:\\Marmalade\\Stage1\\build_stage1_vc14\\Stage1_vc14_gcc_release.via" -qemu'
p93
sS'done_defaults'
p94
I1
sS'path'
p95
(lp96
S'c:/marmalade/7.10/tools/gcc/x86_64/nacl_windows/toolchain/win_x86_glibc/bin'
p97
asS's3e-data-dir'
p98
S'd:/Marmalade/Stage1\\data'
p99
sS'enable-exceptions'
p100
NsS'osx-dll'
p101
NsS'extension'
p102
g4
sS'no-vc6'
p103
NsS'aarch64'
p104
NsS'win32-console'
p105
NsS'dist-format'
p106
g4
sS's3e-force-arch'
p107
NsS'dump_defines'
p108
NsS'use-shared-std-libs'
p109
NsS'gcc-version'
p110
g4
sS'x86_dbg_args'
p111
S'-via:"d:\\Marmalade\\Stage1\\build_stage1_vc14\\Stage1_vc14_debug.via"'
p112
sS'nacl'
p113
NsS'tizen_x86_dbg_args'
p114
g15
sS'arm-debugger'
p115
g4
sS'use_temp_extension'
p116
NsS'verbose'
p117
I0
sS'log'
p118
NsS'no-strip'
p119
NsS'rebuild'
p120
NsS'mips_dbg_args'
p121
g15
sS'win32-simulator-dll'
p122
NsS'strict'
p123
NsS'xcode-aarch64-build-settings'
p124
g4
sS'enable-global-path'
p125
NsS'gcc_aarch64_rel_args'
p126
g15
sS'cflags'
p127
NsS'dist-dir'
p128
g4
sS'xcode-arm-build-settings'
p129
g4
sS'disable-runtime-checks'
p130
NsS'csprojSDKRefs'
p131
g4
sS'tizen_x86_rel_exe'
p132
g9
sS'builddirroot'
p133
g4
sS'distcc'
p134
NsS'external-compiler'
p135
NsS'stripflags'
p136
NsS'retry-build'
p137
S'0'
p138
sS'preinclude'
p139
NsS'using_sdk'
p140
I01
sS'nologo'
p141
NsS'warn-level'
p142
I2
sS'mips_dbg_exe'
p143
g9
sS'mkb_in'
p144
S'd:/Marmalade/Stage1/Stage1.mkb'
p145
sS'no-objc-arc'
p146
NsS'app-icf'
p147
NsS'arm_dbg_exe'
p148
S'c:/marmalade/7.10/s3e\\bin\\armdebug.exe'
p149
sS'mdev-first'
p150
NsS'csprojDLLRef'
p151
NsS'tizen_x86_rel_args'
p152
g15
sS'android_x86_dbg_exe'
p153
g9
sS'naclx86_64'
p154
NsS'test-config'
p155
g4
sS'list-targets'
p156
NsS'arm_rel_exe'
p157
g9
sS'arm_rel_args'
p158
g15
sS'makedeps'
p159
NsS'android_x86_rel_exe'
p160
g9
sS'default-buildenv'
p161
S'VC14'
p162
sS'x86_rel_exe'
p163
S'c:/marmalade/7.10/s3e\\win32\\s3e_simulator_release.exe'
p164
sS'preprocess-java'
p165
NsS'mips_rel_args'
p166
g15
sS'test-assets'
p167
g4
sS'lib'
p168
NsS'non-interactive'
p169
NsS'global_argv'
p170
(lp171
S'C:\\Marmalade\\7.10\\s3e\\makefile_builder\\mkb.py'
p172
aS'D:/Marmalade/Stage1/Stage1.mkb'
p173
aS'--buildenv=VC14'
p174
aS'--fake-vc-call'
p175
asS'make'
p176
NsS'optimise-speed'
p177
NsS'internal'
p178
NsS'enable-stdinc'
p179
NsS'defines'
p180
NsS'deploy-only'
p181
NsS'x86'
p182
NsS'deploy'
p183
g4
sS'objc-arc'
p184
NsS'x86_run_exe'
p185
S'c:/marmalade/7.10/s3e\\win32\\s3e_simulator_debug.exe'
p186
sS'cxxflags'
p187
NsS'x86_rel_args'
p188
S'-via:"d:\\Marmalade\\Stage1\\build_stage1_vc14\\Stage1_vc14_release.via"'
p189
sS'gcc_rel_args'
p190
g15
sS'mips'
p191
NsS'xcode-build-settings'
p192
g4
sS'csprojPostBuildActions'
p193
NsS'incredibuild'
p194
NsS'strict-compile'
p195
NsS'use-auto-subdirs'
p196
NsS'mips_rel_exe'
p197
g9
sS'android_x86_rel_args'
p198
g15
sS'no-distcc'
p199
NsS'deployargs'
p200
NsS'iosnativedebug'
p201
NsS'use_prebuilt'
p202
NsS'win-target-platform'
p203
g4
sS'mkf_in'
p204
(lp205
S'c:\\marmalade\\7.10\\s3e\\s3e-default.mkf'
p206
aS'c:\\marmalade\\7.10\\extensions\\s3eamazonads\\s3eamazonads.mkf'
p207
aS'c:\\marmalade\\7.10\\modules\\iwutil\\iwutil.mkf'
p208
aS'c:\\marmalade\\7.10\\modules\\third_party\\libjpeg\\libjpeg.mkf'
p209
aS'c:\\marmalade\\7.10\\modules\\third_party\\libpng\\libpng.mkf'
p210
aS'c:\\marmalade\\7.10\\modules\\third_party\\zlib\\zlib.mkf'
p211
aS'c:\\marmalade\\7.10\\platform_libs\\android\\amazon-ads-android-sdk\\amazon-ads-android-sdk.mkf'
p212
aS'c:\\marmalade\\7.10\\platform_libs\\iphone\\amazon-ads-ios-sdk\\amazon-ads-ios-sdk.mkf'
p213
aS'c:\\marmalade\\7.10\\modules\\iw2d\\iw2d.mkf'
p214
aS'c:\\marmalade\\7.10\\modules\\iwgx\\iwgx.mkf'
p215
aS'c:\\marmalade\\7.10\\modules\\iwgl\\iwgl.mkf'
p216
aS'c:\\marmalade\\7.10\\modules\\iwgeom\\iwgeom.mkf'
p217
aS'c:\\marmalade\\7.10\\modules\\iwresmanager\\iwresmanager.mkf'
p218
aS'c:\\marmalade\\7.10\\extensions\\pvrtextool\\pvrtextool.mkf'
p219
aS'c:\\marmalade\\7.10\\modules\\iwgxfont\\iwgxfont.mkf'
p220
aS'c:\\marmalade\\7.10\\modules\\third_party\\tiniconv\\tiniconv.mkf'
p221
aS'c:\\marmalade\\7.10\\modules\\iw2dscenegraph\\iw2dscenegraph.mkf'
p222
aS'c:\\marmalade\\7.10\\modules\\iw2dscenegraphcore\\iw2dscenegraphcore.mkf'
p223
aS'd:\\marmalade\\modules\\soundengine\\soundengine.mkf'
p224
asS'strict-mkb'
p225
NsS'executeargs'
p226
NsS'clean'
p227
NsS'no-asm'
p228
NsS'output-name'
p229
g4
sS'no-modules'
p230
NsS'find_define'
p231
g4
s(dp232
S'c:\\marmalade\\7.10\\s3e\\makefile_builder\\templates\\aarch64_linker_script'
p233
F1443314056.0
sS'c:\\marmalade\\7.10\\s3e\\makefile_builder\\plugins\\xcode4_schememanagement.py'
p234
F1443314056.0
sS'c:\\marmalade\\7.10\\s3e\\makefile_builder\\templates\\wp81_csproj.pyc'
p235
F1443317622.0
sS'c:\\marmalade\\7.10\\s3e\\makefile_builder\\plugins\\s3e_win10.pyc'
p236
F1443317622.0
sS'c:\\marmalade\\7.10\\s3e\\makefile_builder\\mkb_launcher.exe'
p237
F1443315030.0
sS'c:\\marmalade\\7.10\\s3e\\makefile_builder\\templates\\win8_ext_csproj.pyc'
p238
F1443317622.0
sS'c:\\marmalade\\7.10\\s3e\\makefile_builder\\templates\\ws8_ext_sln.pyc'
p239
F1443317588.0
sS'c:\\marmalade\\7.10\\s3e\\makefile_builder\\templates\\ws81_sln.pyc'
p240
F1443317680.0
sS'c:\\marmalade\\7.10\\s3e\\makefile_builder\\templates\\xcode4_DeployTool.xcscheme'
p241
F1443314058.0
sS'c:\\marmalade\\7.10\\s3e\\makefile_builder\\plugins\\linux_vc14.pyc'
p242
F1443317654.0
sS'c:\\marmalade\\7.10\\s3e\\makefile_builder\\templates\\ws81_vcxproj.pyc'
p243
F1443317670.0
sS'c:\\marmalade\\7.10\\s3e\\makefile_builder\\plugins\\MakeEmitter.pyc'
p244
F1443317622.0
sS'c:\\marmalade\\7.10\\s3e\\makefile_builder\\templates\\win8_sln.pyc'
p245
F1443317610.0
sS'c:\\marmalade\\7.10\\s3e\\makefile_builder\\templates\\wp8_ext_csproj.pyc'
p246
F1443317704.0
sS'c:\\marmalade\\7.10\\s3e\\makefile_builder\\templates\\ws8_ext_csproj.pyc'
p247
F1443317594.0
sS'c:\\marmalade\\7.10\\s3e\\makefile_builder\\plugins\\deploy.pyc'
p248
F1443317634.0
sS'c:\\marmalade\\7.10\\s3e\\makefile_builder\\mkb_upstream.pyc'
p249
F1443317644.0
sS'c:\\marmalade\\7.10\\s3e\\makefile_builder\\templates\\wp81_vcxproj.pyc'
p250
F1443317612.0
sS'c:\\marmalade\\7.10\\s3e\\makefile_builder\\templates\\vc14_androidnative_ext_sln.pyc'
p251
F1443317640.0
sS'c:\\marmalade\\7.10\\s3e\\makefile_builder\\tool_launcher.exe'
p252
F1443315032.0
sS'c:\\marmalade\\7.10\\s3e\\makefile_builder\\plugins\\wp81_wp81.pyc'
p253
F1443317580.0
sS'c:\\marmalade\\7.10\\s3e\\makefile_builder\\templates\\qmake_user.py'
p254
F1443314056.0
sS'c:\\marmalade\\7.10\\s3e\\makefile_builder\\templates\\template.opt'
p255
F1443314056.0
sS'c:\\marmalade\\7.10\\s3e\\makefile_builder\\templates\\ws8_csproj_user.pyc'
p256
F1443317586.0
sS'c:\\marmalade\\7.10\\s3e\\makefile_builder\\plugins\\osx_scons.pyc'
p257
F1443317596.0
sS'c:\\marmalade\\7.10\\s3e\\makefile_builder\\plugins\\s3e_make.pyc'
p258
F1443317570.0
sS'c:\\marmalade\\7.10\\s3e\\makefile_builder\\templates\\win32_vcxproj.pyc'
p259
F1443317682.0
sS'c:\\marmalade\\7.10\\s3e\\makefile_builder\\templates\\win32_vcxproj_filters.pyc'
p260
F1443317594.0
sS'c:\\marmalade\\7.10\\s3e\\makefile_builder\\templates\\win32_dsp.pyc'
p261
F1443317690.0
sS'c:\\marmalade\\7.10\\s3e\\makefile_builder\\plugins\\linux_scons.pyc'
p262
F1443317710.0
sS'c:\\marmalade\\7.10\\s3e\\makefile_builder\\templates\\ws8_sln.pyc'
p263
F1443317680.0
sS'c:\\marmalade\\7.10\\s3e\\makefile_builder\\templates\\mips_linker_script'
p264
F1443314056.0
sS'c:\\marmalade\\7.10\\s3e\\makefile_builder\\templates\\wp8_vcxproj.pyc'
p265
F1443317624.0
sS'c:\\marmalade\\7.10\\s3e\\makefile_builder\\docs'
p266
F1446019855.710399
sS'c:\\marmalade\\7.10\\s3e\\makefile_builder\\templates\\xcode4_arm.xcscheme'
p267
F1443314058.0
sS'c:\\marmalade\\7.10\\s3e\\makefile_builder\\mkb_option.pyc'
p268
F1443317578.0
sS'c:\\marmalade\\7.10\\s3e\\makefile_builder\\templates\\xcode.py'
p269
F1443314058.0
sS'c:\\marmalade\\7.10\\s3e\\makefile_builder\\templates\\ws81_ext_sln.pyc'
p270
F1443317604.0
sS'c:\\marmalade\\7.10\\s3e\\makefile_builder\\templates\\win10_csproj.pyc'
p271
F1443317704.0
sS'c:\\marmalade\\7.10\\s3e\\makefile_builder\\templates\\wp8_csproj_user.pyc'
p272
F1443317658.0
sS'c:\\marmalade\\7.10\\s3e\\makefile_builder\\plugins\\s3e_wp8.pyc'
p273
F1443317680.0
sS'c:\\marmalade\\7.10\\s3e\\makefile_builder\\templates\\qmake.py'
p274
F1443314056.0
sS'c:\\marmalade\\7.10\\s3e\\makefile_builder\\templates\\win32_dsw.pyc'
p275
F1443317576.0
sS'c:\\marmalade\\7.10\\s3e\\makefile_builder\\templates\\wp8_sln.pyc'
p276
F1443317596.0
sS'c:\\marmalade\\7.10\\s3e\\makefile_builder\\templates\\vc6_opt.pyc'
p277
F1443317684.0
sS'c:\\marmalade\\7.10\\s3e\\makefile_builder\\plugins\\win10_win10.pyc'
p278
F1443317686.0
sS'c:\\marmalade\\7.10\\s3e\\makefile_builder\\templates\\linker_script'
p279
F1443314056.0
sS'c:\\marmalade\\7.10\\s3e\\makefile_builder\\templates\\win10_ext_sln.pyc'
p280
F1443317588.0
sS'c:\\marmalade\\7.10\\s3e\\makefile_builder\\plugins\\Win8Emitter.pyc'
p281
F1443317652.0
sS'c:\\marmalade\\7.10\\s3e\\makefile_builder\\nacl.mkf'
p282
F1443314056.0
sS'c:\\marmalade\\7.10\\s3e\\makefile_builder\\templates\\win10_ext_csproj.pyc'
p283
F1443317582.0
sS'c:\\marmalade\\7.10\\s3e\\makefile_builder\\templates\\wp81_ext_sln.pyc'
p284
F1443317610.0
sS'c:\\marmalade\\7.10\\s3e\\makefile_builder\\plugins\\s3e_wp81.pyc'
p285
F1443317678.0
sS'c:\\marmalade\\7.10\\s3e\\makefile_builder\\templates\\win8_csproj_user.pyc'
p286
F1443317596.0
sS'c:\\marmalade\\7.10\\s3e\\makefile_builder\\docs\\deployment_options.txt'
p287
F1443314056.0
sS'c:\\marmalade\\7.10\\s3e\\makefile_builder\\plugins\\s3e_vc14_androidnative.pyc'
p288
F1443317612.0
sS'c:\\marmalade\\7.10\\s3e\\makefile_builder\\templates\\wp8_csproj.pyc'
p289
F1443317690.0
sS'c:\\marmalade\\7.10\\s3e\\makefile_builder\\plugins\\VisualStudioEmitter.pyc'
p290
F1443317624.0
sS'c:\\marmalade\\7.10\\s3e\\makefile_builder\\mkb.py'
p291
F1443314056.0
sS'c:\\marmalade\\7.10\\s3e\\makefile_builder\\mkb_globals.pyc'
p292
F1443317674.0
sS'c:\\marmalade\\7.10\\s3e\\makefile_builder\\templates\\win10_sln.pyc'
p293
F1443317688.0
sS'c:\\marmalade\\7.10\\s3e\\makefile_builder\\plugins\\null.pyc'
p294
F1443317640.0
sS'c:\\marmalade\\7.10\\s3e\\makefile_builder\\docs\\mkb.defines.txt'
p295
F1443314056.0
sS'c:\\marmalade\\7.10\\s3e\\makefile_builder\\templates\\vc7_suo.pyc'
p296
F1443317678.0
sS'c:\\marmalade\\7.10\\s3e\\makefile_builder\\plugins\\S3EEmitter.pyc'
p297
F1443317686.0
sS'c:\\marmalade\\7.10\\s3e\\makefile_builder\\templates\\ws81_ext_csproj.pyc'
p298
F1443317660.0
sS'c:\\marmalade\\7.10\\s3e\\makefile_builder\\templates\\win8_vcxproj.pyc'
p299
F1443317706.0
sS'c:\\marmalade\\7.10\\s3e\\makefile_builder\\plugins\\s3e_vc6.pyc'
p300
F1443317594.0
sS'c:\\marmalade\\7.10\\s3e\\makefile_builder\\templates\\vc10_user.pyc'
p301
F1443317674.0
sS'c:\\marmalade\\7.10\\s3e\\makefile_builder\\docs\\deprecated.options.txt'
p302
F1443314056.0
sS'c:\\marmalade\\7.10\\s3e\\makefile_builder\\docs\\deprecated.defines.txt'
p303
F1443314056.0
sS'c:\\marmalade\\7.10\\s3e\\makefile_builder\\templates\\wp81_sln.pyc'
p304
F1443317634.0
sS'c:\\marmalade\\7.10\\s3e\\makefile_builder\\templates\\rvct_linker_script'
p305
F1443314056.0
sS'c:\\marmalade\\7.10\\s3e\\makefile_builder\\templates\\win10_vcxproj.pyc'
p306
F1443317618.0
sS'c:\\marmalade\\7.10\\s3e\\makefile_builder\\templates\\vc14_androidproj.pyc'
p307
F1443317640.0
sS'c:\\marmalade\\7.10\\s3e\\makefile_builder\\plugins\\XcodeEmitter.pyc'
p308
F1446052656.065168
sS'c:\\marmalade\\7.10\\s3e\\makefile_builder\\plugins\\s3e_scons.pyc'
p309
F1443317644.0
sS'c:\\marmalade\\7.10\\s3e\\makefile_builder\\templates\\win32_sln.pyc'
p310
F1443317704.0
sS'c:\\marmalade\\7.10\\s3e\\makefile_builder\\templates\\wp81_ext_csproj.pyc'
p311
F1443317684.0
sS'c:\\marmalade\\7.10\\s3e\\makefile_builder\\templates\\wp81_csproj_user.pyc'
p312
F1443317632.0
sS'c:\\marmalade\\7.10\\s3e\\makefile_builder\\plugins\\win8_utils.pyc'
p313
F1443317686.0
sS'c:\\marmalade\\7.10\\s3e\\makefile_builder\\plugins\\win32_vc6.pyc'
p314
F1443317604.0
sS'c:\\marmalade\\7.10\\s3e\\makefile_builder\\plugins\\ws8_ws8.pyc'
p315
F1443317676.0
sS'c:\\marmalade\\7.10\\s3e\\makefile_builder\\templates\\ws81_csproj.pyc'
p316
F1443317608.0
sS'c:\\marmalade\\7.10\\s3e\\makefile_builder\\plugins\\s3e_qmake.py'
p317
F1443314056.0
sS'c:\\marmalade\\7.10\\s3e\\makefile_builder\\plugins\\Emitter.pyc'
p318
F1443317632.0
sS'c:\\marmalade\\7.10\\s3e\\makefile_builder\\plugins\\wp8_wp8.pyc'
p319
F1443317650.0
sS'c:\\marmalade\\7.10\\s3e\\makefile_builder\\plugins\\s3e_win8.pyc'
p320
F1443317610.0
sS'c:\\marmalade\\7.10\\s3e\\makefile_builder\\templates\\gdb_start.txt'
p321
F1443314056.0
sS'c:\\marmalade\\7.10\\s3e\\makefile_builder\\templates\\Info.plist'
p322
F1443314056.0
sS'c:\\marmalade\\7.10\\s3e\\makefile_builder\\plugins\\vc7_utils.pyc'
p323
F1443317620.0
sS'c:\\marmalade\\7.10\\s3e\\makefile_builder\\templates\\vc8_user.pyc'
p324
F1443317650.0
sS'c:\\marmalade\\7.10\\s3e\\makefile_builder\\plugins\\s3e_ws81.pyc'
p325
F1443317688.0
sS'c:\\marmalade\\7.10\\s3e\\makefile_builder\\templates\\win10_csproj_user.pyc'
p326
F1443317618.0
sS'c:\\marmalade\\7.10\\s3e\\makefile_builder\\templates\\xcode_pbxuser.py'
p327
F1443314058.0
sS'c:\\marmalade\\7.10\\s3e\\makefile_builder\\mkb_parser.pyc'
p328
F1443317612.0
sS'c:\\marmalade\\7.10\\s3e\\makefile_builder\\templates\\ws8_vcxproj.pyc'
p329
F1443317696.0
sS'c:\\marmalade\\7.10\\s3e\\makefile_builder\\plugins\\xcode4_schememanagement.pyc'
p330
F1446052656.0711737
sS'c:\\marmalade\\7.10\\s3e\\makefile_builder\\templates'
p331
F1446019856.4123716
sS'c:\\marmalade\\7.10\\s3e\\makefile_builder\\templates\\xcode4.xcscheme'
p332
F1443314058.0
sS'c:\\marmalade\\7.10\\s3e\\makefile_builder\\plugins\\ws81_ws81.pyc'
p333
F1443317638.0
sS'c:\\marmalade\\7.10\\s3e\\makefile_builder\\docs\\parse_options.pyc'
p334
F1443317690.0
sS'c:\\marmalade\\7.10\\s3e\\makefile_builder\\templates\\template.suo'
p335
F1443314056.0
sS'c:\\marmalade\\7.10\\s3e\\makefile_builder\\docs\\options.txt'
p336
F1443314056.0
sS'c:\\marmalade\\7.10\\s3e\\makefile_builder\\mkb_util.pyc'
p337
F1443317616.0
sS'c:\\marmalade\\7.10\\s3e\\makefile_builder\\templates\\ws81_csproj_user.pyc'
p338
F1443317686.0
sS'c:\\marmalade\\7.10\\s3e\\makefile_builder\\plugins\\s3e_qmake.pyc'
p339
F1446052656.1569195
sS'c:\\marmalade\\7.10\\s3e\\makefile_builder\\templates\\win32_vcproj.pyc'
p340
F1443317676.0
sS'c:\\marmalade\\7.10\\s3e\\makefile_builder\\templates\\vc14_androidnative_vcxproj.pyc'
p341
F1443317580.0
sS'c:\\marmalade\\7.10\\s3e\\makefile_builder\\plugins\\s3e_xcode.pyc'
p342
F1446052656.1934426
sS'c:\\marmalade\\7.10\\s3e\\makefile_builder\\plugins\\s3e_xcode.py'
p343
F1443314056.0
sS'c:\\marmalade\\7.10\\s3e\\makefile_builder\\templates\\MainWindow.xib'
p344
F1443314056.0
sS'c:\\marmalade\\7.10\\s3e\\makefile_builder\\plugins'
p345
F1446052656.1919422
sS'c:\\marmalade\\7.10\\s3e\\makefile_builder\\templates\\win8_csproj.pyc'
p346
F1443317710.0
sS'c:\\marmalade\\7.10\\s3e\\makefile_builder\\plugins\\s3e_web.pyc'
p347
F1443317636.0
sS'c:\\marmalade\\7.10\\s3e\\makefile_builder\\templates\\make.py'
p348
F1443314056.0
sS'c:\\marmalade\\7.10\\s3e\\makefile_builder\\plugins\\s3e_ws8.pyc'
p349
F1443317684.0
sS'c:\\marmalade\\7.10\\s3e\\makefile_builder\\deployment.pyc'
p350
F1443317652.0
sS'c:\\marmalade\\7.10\\s3e\\makefile_builder\\plugins\\XcodeEmitter.py'
p351
F1443314056.0
sS'c:\\marmalade\\7.10\\s3e\\makefile_builder\\plugins\\vc6_utils.pyc'
p352
F1443317682.0
sS'c:\\marmalade\\7.10\\s3e\\makefile_builder\\plugins\\SConsEmitter.pyc'
p353
F1443317608.0
sS'c:\\marmalade\\7.10\\s3e\\makefile_builder\\templates\\ws8_csproj.pyc'
p354
F1443317670.0
sS'c:\\marmalade\\7.10\\s3e\\makefile_builder\\plugins\\java.pyc'
p355
F1443317626.0
sS'c:\\marmalade\\7.10\\s3e\\makefile_builder\\plugins\\osx_xcode.pyc'
p356
F1443317590.0
sS'c:\\marmalade\\7.10\\s3e\\makefile_builder\\templates\\vc14_androidnative_sln.pyc'
p357
F1443317622.0
sS'c:\\marmalade\\7.10\\s3e\\makefile_builder\\templates\\scons.pyc'
p358
F1443317700.0
sS'c:\\marmalade\\7.10\\s3e\\makefile_builder\\mkb_main.pyc'
p359
F1443317632.0
sS'c:\\marmalade\\7.10\\s3e\\makefile_builder\\plugins\\iphone.pyc'
p360
F1443317654.0
sccopy_reg
_reconstructor
p361
(cmkb_main
MkbFile
p362
c__builtin__
object
p363
Ntp364
Rp365
(dp366
g5
(lp367
sS'target_name'
p368
S'Stage1'
p369
sS'current_file'
p370
g145
sS'package_path'
p371
(lp372
sS'post_build'
p373
(lp374
(lp375
S'c:/marmalade/7.10/s3e/tools'
p376
aS'C:\\Marmalade\\7.10\\s3e\\python\\python.exe .\\process_map.py "$(TargetPath)"'
p377
aa(S'c:\\marmalade\\7.10\\s3e\\bin'
p378
S'"s3e_plink" -l "$(TargetPath)" '
p379
g182
tp380
asS'librarys'
p381
(lp382
g361
(cmkb_main
Library
p383
g363
Ntp384
Rp385
(dp386
S'name'
p387
S'vc12_compat.lib'
p388
sS'expand_name'
p389
I00
sS'include_spec_rvct_objs'
p390
(lp391
sS'include_all_objs'
p392
I00
sS'share_arm'
p393
I00
sS'arch'
p394
S'x86'
p395
sS'nodebug'
p396
I00
sg43
Nsbag361
(g383
g363
Ntp397
Rp398
(dp399
g387
S'iwutil'
p400
sg389
I01
sg390
(lp401
sg392
Nsg393
Nsg394
Nsg396
I00
sg43
Nsbag361
(g383
g363
Ntp402
Rp403
(dp404
g387
S'jpeg'
p405
sg389
I01
sg390
g401
sg392
Nsg393
Nsg394
Nsg396
I00
sg43
Nsbag361
(g383
g363
Ntp406
Rp407
(dp408
g387
S'z'
p409
sg389
I01
sg390
g401
sg392
Nsg393
Nsg394
Nsg396
I00
sg43
Nsbag361
(g383
g363
Ntp410
Rp411
(dp412
g387
S'png'
p413
sg389
I01
sg390
g401
sg392
Nsg393
Nsg394
Nsg396
I00
sg43
Nsbag361
(g383
g363
Ntp414
Rp415
(dp416
g387
S'iw2d'
p417
sg389
I01
sg390
g401
sg392
Nsg393
Nsg394
Nsg396
I00
sg43
Nsbag361
(g383
g363
Ntp418
Rp419
(dp420
g387
S'ATI_Compress_MT_VC7.lib'
p421
sg389
I00
sg390
g401
sg392
Nsg393
Nsg394
S'x86'
p422
sg396
I00
sg43
Nsbag361
(g383
g363
Ntp423
Rp424
(dp425
g387
S'iwgx'
p426
sg389
I01
sg390
g401
sg392
Nsg393
Nsg394
Nsg396
I00
sg43
Nsbag361
(g383
g363
Ntp427
Rp428
(dp429
g387
S'iwgl'
p430
sg389
I01
sg390
g401
sg392
Nsg393
Nsg394
Nsg396
I00
sg43
Nsbag361
(g383
g363
Ntp431
Rp432
(dp433
g387
S'iwgeom'
p434
sg389
I01
sg390
g401
sg392
Nsg393
Nsg394
Nsg396
I00
sg43
Nsbag361
(g383
g363
Ntp435
Rp436
(dp437
g387
S'iwresmanager'
p438
sg389
I01
sg390
g401
sg392
Nsg393
Nsg394
Nsg396
I00
sg43
Nsbag361
(g383
g363
Ntp439
Rp440
(dp441
g387
S'iwgxfont'
p442
sg389
I01
sg390
g401
sg392
Nsg393
Nsg394
Nsg396
I00
sg43
Nsbag361
(g383
g363
Ntp443
Rp444
(dp445
g387
S'tiniconv'
p446
sg389
I01
sg390
g401
sg392
Nsg393
Nsg394
Nsg396
I00
sg43
Nsbag361
(g383
g363
Ntp447
Rp448
(dp449
g387
S's3e_cpp'
p450
sg389
I01
sg390
g391
sg392
I00
sg393
I00
sg394
Nsg396
I00
sg43
Nsbag361
(g383
g363
Ntp451
Rp452
(dp453
g387
S's3e_vc14'
p454
sg389
I01
sg390
(lp455
S'iwcrt.o'
p456
asg392
I00
sg393
I00
sg394
S'x86'
p457
sg396
I00
sg43
Nsbag361
(g383
g363
Ntp458
Rp459
(dp460
g387
S's3e'
p461
sg389
I01
sg390
(lp462
g456
asg392
I00
sg393
I00
sg394
S'!x86'
p463
sg396
I00
sg43
Nsbag361
(g383
g363
Ntp464
Rp465
(dp466
g387
g61
sg389
I01
sg390
g391
sg392
I00
sg393
I00
sg394
S'x86'
p467
sg396
I01
sg43
Nsbag361
(g383
g363
Ntp468
Rp469
(dp470
g387
g61
sg389
I01
sg390
g391
sg392
I00
sg393
I00
sg394
S'!x86'
p471
sg396
I01
sg43
Nsbag361
(g383
g363
Ntp472
Rp473
(dp474
g387
S'stdc++'
p475
sg389
I00
sg390
g391
sg392
I00
sg393
I00
sg394
S'mips'
p476
sg396
I00
sg43
Nsbag361
(g383
g363
Ntp477
Rp478
(dp479
g387
S'c'
p480
sg389
I00
sg390
g391
sg392
I00
sg393
I00
sg394
S'mips'
p481
sg396
I00
sg43
Nsbag361
(g383
g363
Ntp482
Rp483
(dp484
g387
S'm'
p485
sg389
I00
sg390
g391
sg392
I00
sg393
I00
sg394
S'mips'
p486
sg396
I00
sg43
Nsbag361
(g383
g363
Ntp487
Rp488
(dp489
g387
S'gcc'
p490
sg389
I00
sg390
g391
sg392
I00
sg393
I00
sg394
S'mips'
p491
sg396
I00
sg43
Nsbag361
(g383
g363
Ntp492
Rp493
(dp494
g387
g490
sg389
I00
sg390
g391
sg392
I00
sg393
I00
sg394
S'naclx86_64'
p495
sg396
I00
sg43
Nsbag361
(g383
g363
Ntp496
Rp497
(dp498
g387
S'gcc_eh'
p499
sg389
I00
sg390
g391
sg392
I00
sg393
I00
sg394
S'naclx86_64'
p500
sg396
I00
sg43
Nsbag361
(g383
g363
Ntp501
Rp502
(dp503
g387
g480
sg389
I00
sg390
g391
sg392
I00
sg393
I00
sg394
S'naclx86_64'
p504
sg396
I00
sg43
Nsbag361
(g383
g363
Ntp505
Rp506
(dp507
g387
g485
sg389
I00
sg390
g391
sg392
I00
sg393
I00
sg394
S'naclx86_64'
p508
sg396
I00
sg43
Nsbag361
(g383
g363
Ntp509
Rp510
(dp511
g387
S'supc++'
p512
sg389
I00
sg390
g391
sg392
I00
sg393
I00
sg394
S'naclx86_64'
p513
sg396
I00
sg43
Nsbag361
(g383
g363
Ntp514
Rp515
(dp516
g387
S'supc++'
p517
sg389
I00
sg390
g391
sg392
I00
sg393
I00
sg394
S'gcc_x86_android'
p518
sg396
I00
sg43
Nsbag361
(g383
g363
Ntp519
Rp520
(dp521
g387
g480
sg389
I00
sg390
g391
sg392
I00
sg393
I00
sg394
S'gcc_x86_android'
p522
sg396
I00
sg43
Nsbag361
(g383
g363
Ntp523
Rp524
(dp525
g387
g485
sg389
I00
sg390
g391
sg392
I00
sg393
I00
sg394
S'gcc_x86_android'
p526
sg396
I00
sg43
Nsbag361
(g383
g363
Ntp527
Rp528
(dp529
g387
g490
sg389
I00
sg390
g391
sg392
I00
sg393
I00
sg394
S'gcc_x86_android'
p530
sg396
I00
sg43
Nsbag361
(g383
g363
Ntp531
Rp532
(dp533
g387
S'dl'
p534
sg389
I00
sg390
g391
sg392
I00
sg393
I00
sg394
S'gcc_x86_android'
p535
sg396
I00
sg43
Nsbag361
(g383
g363
Ntp536
Rp537
(dp538
g387
S'supc++'
p539
sg389
I00
sg390
g391
sg392
I00
sg393
I00
sg394
S'gcc_arm_android'
p540
sg396
I00
sg43
Nsbag361
(g383
g363
Ntp541
Rp542
(dp543
g387
g480
sg389
I00
sg390
g391
sg392
I00
sg393
I00
sg394
S'gcc_arm_android'
p544
sg396
I00
sg43
Nsbag361
(g383
g363
Ntp545
Rp546
(dp547
g387
g485
sg389
I00
sg390
g391
sg392
I00
sg393
I00
sg394
S'gcc_arm_android'
p548
sg396
I00
sg43
Nsbag361
(g383
g363
Ntp549
Rp550
(dp551
g387
g490
sg389
I00
sg390
g391
sg392
I00
sg393
I00
sg394
S'gcc_arm_android'
p552
sg396
I00
sg43
Nsbag361
(g383
g363
Ntp553
Rp554
(dp555
g387
g534
sg389
I00
sg390
g391
sg392
I00
sg393
I00
sg394
S'gcc_arm_android'
p556
sg396
I00
sg43
NsbasS'library_paths'
p557
(lp558
g361
(cmkb_main
LibraryPath
p559
g363
Ntp560
Rp561
(dp562
S'expand_path'
p563
I01
sg387
S'c:/marmalade/7.10/modules/iwutil'
p564
sbag361
(g559
g363
Ntp565
Rp566
(dp567
g563
I01
sg387
S'c:/marmalade/7.10/modules/third_party/libjpeg'
p568
sbag361
(g559
g363
Ntp569
Rp570
(dp571
g563
I01
sg387
S'c:/marmalade/7.10/modules/third_party/zlib'
p572
sbag361
(g559
g363
Ntp573
Rp574
(dp575
g563
I01
sg387
S'c:/marmalade/7.10/modules/third_party/libpng'
p576
sbag361
(g559
g363
Ntp577
Rp578
(dp579
g563
I01
sg387
S'c:/marmalade/7.10/modules/iw2d'
p580
sbag361
(g559
g363
Ntp581
Rp582
(dp583
g563
I00
sg387
S'c:/marmalade/7.10/modules/iwgx/atitools'
p584
sbag361
(g559
g363
Ntp585
Rp586
(dp587
g563
I01
sg387
S'c:/marmalade/7.10/modules/iwgx'
p588
sbag361
(g559
g363
Ntp589
Rp590
(dp591
g563
I01
sg387
S'c:/marmalade/7.10/modules/iwgl'
p592
sbag361
(g559
g363
Ntp593
Rp594
(dp595
g563
I01
sg387
S'c:/marmalade/7.10/modules/iwgeom'
p596
sbag361
(g559
g363
Ntp597
Rp598
(dp599
g563
I01
sg387
S'c:/marmalade/7.10/modules/iwresmanager'
p600
sbag361
(g559
g363
Ntp601
Rp602
(dp603
g563
I01
sg387
S'c:/marmalade/7.10/modules/iwgxfont'
p604
sbag361
(g559
g363
Ntp605
Rp606
(dp607
g563
I01
sg387
S'c:/marmalade/7.10/modules/third_party/tiniconv'
p608
sbag361
(g559
g363
Ntp609
Rp610
(dp611
g563
I01
sg387
S'c:/marmalade/7.10/s3e'
p612
sbasS'macros'
p613
(dp614
S'IW_TRACE_CHANNEL_AMAZONADS'
p615
S'1'
p616
sS'IW_USE_CALLSTACK'
p617
NsS'IW_PLATFORM_S3E'
p618
NsS'I3D_PLATFORM_S3E'
p619
NsS'IW_TRACE_CHANNEL_PVRTEXTOOL_VERBOSE'
p620
S'2'
p621
sS'IW_TRACE_CHANNEL_AMAZONADS_VERBOSE'
p622
g621
sS'IW_MKF_LIBJPEG'
p623
NsS'I3D_OS_S3E'
p624
NsS'IW_MKF_PVRTEXTOOL'
p625
NsS'IW_MKF_AMAZON_ADS_IOS_SDK'
p626
NsS'IW_MKF_TINICONV'
p627
NsS'IW_APP_VERSION'
p628
S'"1.0"'
p629
sS'__S3E__'
p630
NsS'IW_MKF_IWRESMANAGER'
p631
NsS'IW_MKF_FREELICENSE'
p632
NsS'IW_MKF_S3EAMAZONADS'
p633
NsS'IW_MKF_IWUTIL'
p634
NsS'IW_MKF_IWGEOM'
p635
NsS'IW_MKF_AMAZON_ADS_ANDROID_SDK'
p636
NsS'IW_ASSERTION_CHANNEL_2D'
p637
g616
sS'IW_APP_NAME'
p638
S'"Stage1"'
p639
sS'IW_MKF_S3E_DEFAULT'
p640
NsS'IW_MKF_IWGXFONT'
p641
NsS'IW_MKF_ZLIB'
p642
NsS'IW_MKF_IWGX'
p643
NsS'IW_MKF_IW2DSCENEGRAPH'
p644
NsS'IW_MKF_SOUNDENGINE'
p645
NsS'IW_ASSERTION_CHANNEL_AMAZONADS'
p646
g616
sS'IW_USE_ASSERTIONS'
p647
NsS'_CRT_SECURE_NO_DEPRECATE'
p648
NsS'IW_MKF_IWGL'
p649
NsS'IW_MKF_LIBPNG'
p650
NsS'IW_TRACE_CHANNEL_IW_2DSCENEGRAPH'
p651
g616
sS'IW_DEBUG'
p652
NsS'IW_USE_TRACING'
p653
NsS'IW_ASSERTION_CHANNEL_IW_2DSCENEGRAPH'
p654
g616
sS'IW_TRACE_CHANNEL_PVRTEXTOOL'
p655
g616
sS'IW_SDK'
p656
NsS'S3E_INCLUDE_LEGACY'
p657
NsS'IW_MKF_IW2DSCENEGRAPHCORE'
p658
NsS'IW_MKF_IW2D'
p659
NsS'IW_ASSERTION_CHANNEL_PVRTEXTOOL'
p660
g616
ssS'done_warnings'
p661
(dp662
sS'subprojects'
p663
(dp664
g211
S'zlib'
p665
sg221
S'tiniconv'
p666
sg206
S's3e-default.mkf'
p667
sg219
S'PVRTexTool'
p668
sg218
S'iwresmanager'
p669
sg213
S'amazon-ads-ios-sdk'
p670
sg217
S'iwgeom'
p671
sg223
S'../iw2dscenegraphcore'
p672
sg212
S'amazon-ads-android-sdk'
p673
sg215
S'iwgx'
p674
sg210
S'libpng'
p675
sg208
S'iwutil'
p676
sg207
S's3eAmazonAds'
p677
sg222
S'iw2dscenegraph'
p678
sg220
S'iwgxfont'
p679
sg209
S'libjpeg'
p680
sg216
S'iwgl'
p681
sg224
S'SoundEngine'
p682
sg214
S'iw2d'
p683
ssS'deployments'
p684
(dp685
S'Default'
p686
g361
(cdeployment
Deployment
p687
g363
Ntp688
Rp689
(dp690
S'got_version'
p691
I0
sS'assets'
p692
g686
sS'mkb'
p693
g365
sS'target'
p694
Nsg394
(lp695
sS'options'
p696
(dp697
S'iphone-link-lib'
p698
(lp699
S's3eAmazonAds'
p700
asS'game-icf'
p701
NsS'android-tm'
p702
NsS'winmobile-icon32'
p703
NsS'ws8-logo-image150x150'
p704
NsS'wp81-logo-image150x150'
p705
NsS'win10-product-name'
p706
NsS'android-keystore'
p707
NsS'osx-ext-dll'
p708
(lp709
S'c:/marmalade/7.10/extensions/pvrtextool/lib/osx/libPVRTexTool.dylib'
p710
asS'iphone-provisioning-profile'
p711
NsS'win10-identity-name'
p712
NsS'ws8-splash-screen-image620x300'
p713
NsS'wp81-extra-pri'
p714
(lp715
sS'ws8-ext-capabilities'
p716
(lp717
sS'android-icon-hdpi'
p718
NsS'iphone-ipad-only'
p719
NsS'iphone-splash-full-orient'
p720
NsS'wp8-tile-fliptemplate-supports-large'
p721
NsS'iphone-show-status-bar'
p722
NsS'roku-requires-mkv'
p723
NsS'long-caption'
p724
NsS'android-pkgname'
p725
NsS'ws8-ext-native-only-dll'
p726
(lp727
sS'wp81-publisher-display-name'
p728
NsS'win10-logo-image150x150'
p729
NsS'blackberry-permissions-read-device-identifying-information'
p730
NsS'ws81-certificate-end-date'
p731
NsS'psp-dlgcontentid'
p732
NsS'android-version-code'
p733
NsS'win10-ext-uap-capabilities'
p734
(lp735
sS'iphone-minimum-ios-version'
p736
NsS'target-folder'
p737
NsS'tizen-dist1-CA-path'
p738
NsS'symbian-icon2-format'
p739
NsS'tizen-author-key'
p740
NsS'firefoxos-icon-128X128'
p741
NsS'iphone-region'
p742
NsS'uiq3-icon3-mask'
p743
NsS'brew-encoding'
p744
NsS'version'
p745
NsS'nds-initialcode'
p746
NsS'win10-ext-native-dll'
p747
(lp748
sS'iphone-persistent-wifi'
p749
NsS'psp-snd0'
p750
NsS'roku-icon-focus-hd'
p751
NsS'osx-appid'
p752
NsS'ws81-ext-native-only-dll'
p753
(lp754
sS'winmobile-install-folder'
p755
NsS'android-external-res'
p756
(lp757
sS'ws8-product-version'
p758
NsS'brew-priviledges'
p759
NsS'iphone-icon-ipad-search'
p760
NsS'iphone-icon-ipad'
p761
NsS'iphone-skip-icon-generation'
p762
NsS'nacl-icon-128X128'
p763
NsS'roku-hidden'
p764
NsS'psp-titlename'
p765
NsS'wp81-product-version'
p766
NsS'symbian-icon1-mask'
p767
NsS'psp-parentallevel'
p768
NsS'iphone-launch-storyboard'
p769
NsS'splashscreen-use-all'
p770
NsS'symbian-disable-ecompxl'
p771
NsS'splashscreen-auto-onblack'
p772
NsS'iphone-icon-dir'
p773
NsS'iphone-icon-extra'
p774
NsS'win32-ext-dll'
p775
(lp776
S'c:/marmalade/7.10/extensions/pvrtextool/lib/win32/PVRTexTool.dll'
p777
asS'iphone-development-key'
p778
NsS'winmobile-icon48'
p779
NsS'android-unsigned'
p780
NsS'osx-appstore-category'
p781
NsS'version-revision'
p782
NsS'roku-icon-focus-sd'
p783
NsS'ws81-product-version'
p784
NsS'winmobile-png90'
p785
NsS'iphone-icon-ipad-high-res'
p786
NsS'iphone-disable-ipad'
p787
NsS'win10-ext-sdk-ref'
p788
(lp789
sS'ws81-splash-screen-background'
p790
NsS'wp8-ext-capabilities'
p791
(lp792
sS'brew-icon-large'
p793
NsS'symbian-icon1-mask-black'
p794
NsS'ws8-extra-res'
p795
(lp796
sS'iphone-bundle-localisations'
p797
NsS'winmobile-png60'
p798
NsS'blackberry-permissions-access-shared'
p799
NsS'blackberry-author'
p800
NsS'android-icon-xxxhdpi'
p801
NsS'olddeploytoolstyle'
p802
NsS'android_icon_gallery'
p803
NsS'win10-distribution-pfx-password'
p804
NsS'wp81-splash-screen-background'
p805
NsS'wp8-exclude-720p'
p806
NsS'iphone-info-plist'
p807
NsS'ws81-ext-managed-dll'
p808
(lp809
sS'playbook-cskpass'
p810
NsS'win10-description'
p811
NsS'ws8-distribution-pfx-password'
p812
NsS'symbian-key'
p813
NsS'app-icf'
p814
NsS'blackberry-storepass'
p815
NsS'wp8-tile-fliptemplate-back-title'
p816
NsS'brew-compress-loader'
p817
NsS'iphone-testflight'
p818
NsS'win32-pref-windowposy'
p819
NsS'win32-pref-windowposx'
p820
NsS'roku-requires-audiometadata'
p821
NsS'wp8-exclude-low-mem'
p822
NsS'android-min-sdk-version'
p823
NsS'wp8-tile-fliptemplate-title'
p824
NsS'iphone-icon-ipad-search-high-res'
p825
NsS'iphone-link-libdir'
p826
(lp827
S'c:/marmalade/7.10/extensions/s3eamazonads/lib/iphone'
p828
asS'wp81-ext-capabilities'
p829
(lp830
sS'blackberry-permissions-read-geolocation'
p831
NsS'win10-splash-screen-image620x300'
p832
NsS'ws81-ext-device-capabilities'
p833
(lp834
sS'tizen-signed'
p835
NsS'android-extra-application-manifest'
p836
(lp837
S'c:/marmalade/7.10/extensions/s3eamazonads/source/android/ExtraAppManifests.xml'
p838
asS'android-x86'
p839
NsS'win10-extra-res'
p840
(lp841
sS'ws8-ext-native-dll'
p842
(lp843
sS'symbian-icon2-mask'
p844
NsS'iphone-launch-extra'
p845
NsS'webos-memory'
p846
NsS'android-keypass'
p847
NsS'name'
p848
NsS'uiq3-icon2-format'
p849
NsS'roku-splash-screen-sd'
p850
NsS'auto-derbh'
p851
NsS'roku-icon-side-sd'
p852
NsS'android-external-assets'
p853
(lp854
sS'nds-publicsavedatasize'
p855
NsS'splashscreen'
p856
NsS'wp8-product-id'
p857
NsS'iphone-icon-settings-high-res'
p858
NsS'android-manifest'
p859
NsS'ws81-splash-screen-image620x300'
p860
NsS'wp81-product-name'
p861
NsS's3e-compression'
p862
NsS'tizen-author-password'
p863
NsS'wp8-tile-fliptemplate-back-content'
p864
NsS'blackberry-extra-descriptor'
p865
(lp866
sS'android-java-source-version'
p867
NsS'symbian-icon1'
p868
NsS'symbian-icon2'
p869
NsS'nds-makercode'
p870
NsS'android-extra-styles-file'
p871
NsS'android-ext-target-sdk-version'
p872
(lp873
I17
asS'wp81-publisher-id'
p874
NsS'nds-bannertitle-jp'
p875
NsS'wp81-logo-image44x44'
p876
NsS'osx-sign-for-store'
p877
NsS'symbian7-uid'
p878
NsS'wp8-tile-fliptemplate-large-back-content'
p879
NsS'wp81-phone-publisher-id'
p880
NsS'nds-bannertitle-cn'
p881
NsS'iphone-distribution-key'
p882
NsS'win10-phone-publisher-id'
p883
NsS'android-icon-gallery'
p884
NsS'blackberry-keystore'
p885
NsS'iphone-nosign'
p886
NsS'caption'
p887
NsS'nacl-permissions'
p888
NsS'android-extra-manifest'
p889
(lp890
sS'wp81-ext-sdk-ref'
p891
(lp892
sS'android-icon-xxhdpi'
p893
NsS'version-minor'
p894
NsS'iphone-skip-launch-generation'
p895
NsS'iphone-link-libdirs'
p896
(lp897
sS'iphone-icon-large'
p898
NsS'symbian-keypwd'
p899
NsS'symbian8-uid'
p900
NsS'symbian-cert-key'
p901
NsS'winmobile-ampd-part-number'
p902
NsS'arch'
p903
NsS'nds-romheadertemplate'
p904
NsS'webos-icon'
p905
NsS'wp81-ext-device-capabilities'
p906
(lp907
sS'psp-dlgprotectdocument'
p908
NsS'ws8-splash-screen-background'
p909
NsS'android-icon-mdpi'
p910
NsS'android-sdk-build-tools-version'
p911
NsS'nds-icon'
p912
NsS'ws8-custom-manifest-fill'
p913
NsS'iphone-development-cert'
p914
NsS'symbian-icon2-mask-black'
p915
NsS'blackberry-phone-icon'
p916
NsS'iphone-enable-4inch-retina'
p917
NsS'ws8-custom-manifest'
p918
NsS'version-major'
p919
NsS'wp8-genre-isgame'
p920
NsS'uiq3-uid'
p921
NsS'iphone-splash-retina-generate'
p922
NsS'tizen-hw-acceleration'
p923
NsS'iphone_bundle_localisations'
p924
NsS'tizen-dist1-key'
p925
NsS'wp81-custom-manifest-fill'
p926
NsS'wp8-custom-manifest'
p927
NsS'nds-bannertitle-ge'
p928
NsS'iphone-sign-for-distribution'
p929
NsS'wp8-tile-fliptemplate-medium-back-image'
p930
NsS'wp8-publisher-id'
p931
NsS'icon'
p932
NsS'android-target-sdk-version'
p933
NsS'win10-ext-capabilities'
p934
(lp935
sS'wp8-exclude-wxga'
p936
NsS'wp81-identity-name'
p937
NsS'uiq3-icon2-mask'
p938
NsS'iphone-splashscreen-portrait'
p939
NsS'iphone-icon-high-res'
p940
NsS'ws81-distribution-pfx-password'
p941
NsS'playbook-author'
p942
NsS'wp8-custom-manifest-fill'
p943
NsS'linux-ext-lib'
p944
(lp945
sS'blackberry-permissions-access-internet'
p946
NsS'lgtv-use-drm'
p947
NsS'win10-splash-screen-image480x800'
p948
NsS'symbian-platsecflags'
p949
NsS'ws8-description'
p950
NsS'blackberry-playbook-icon'
p951
NsS'win10-distribution-cer'
p952
NsS'copyright'
p953
NsS'winmobile-cab-compress'
p954
NsS'win32-gles-directory'
p955
NsS'wp8-author'
p956
NsS'android-ext-min-sdk-version'
p957
(lp958
I4
asS'iphone-uiviewcontroller-based-status-bar'
p959
NsS'ws81-logo-image150x150'
p960
NsS'osx-signing-identity-app'
p961
NsS'tizen-project-url'
p962
NsS'symbian-icon-svg'
p963
NsS'android-aliasname'
p964
NsS'psp-dlgmanual'
p965
NsS'brew-uid'
p966
NsS'wp81-ext-native-only-dll'
p967
(lp968
sS'symbian-locationsupport'
p969
NsS'wp81-logo-image50x50'
p970
NsS'ws8-ext-managed-dll'
p971
(lp972
sS'nds-bannertitle-it'
p973
NsS'ws81-custom-manifest-fill'
p974
NsS'ws8-ext-sdk-manifest-part'
p975
(lp976
sS'uiq3-icon1-mask'
p977
NsS'winmobile-icon16'
p978
NsS'ws8-product-name'
p979
NsS'blackberry-cskpass'
p980
NsS'winmobile-start-menu-folder'
p981
NsS'brew-clsid'
p982
NsS'roku-requires-bluetooth'
p983
NsS'iphone-default-development-profile'
p984
NsS'ws8-ext-device-capabilities'
p985
(lp986
sS'blackberry-permissions-use-camera'
p987
NsS'ws81-extra-pri'
p988
(lp989
sS'iphone-prerendered-icon'
p990
NsS'iphone-appid'
p991
NsS'ws8-identity-name'
p992
NsS'tizen-dist2-CA-path'
p993
NsS'android-external-jars'
p994
(lp995
S'c:/marmalade/7.10/platform_libs/android/amazon-ads-android-sdk/third_party/lib/amazon-ads-5.5.149.jar'
p996
aS'c:/marmalade/7.10/extensions/s3eamazonads/lib/android/s3eAmazonAds.jar'
p997
asS'winmobile-icon64'
p998
NsS'blackberry-permissions-post-notification'
p999
NsS'winmobile-setup-dll'
p1000
NsS'firefoxos-manifest'
p1001
NsS'win8-winrt-extra-res'
p1002
(lp1003
sS'wp81-ext-sdk-manifest-part'
p1004
(lp1005
sS'symbian9-uid'
p1006
NsS'iphone-icon-ipad-ios7'
p1007
NsS'winmobile-trace-file'
p1008
NsS'roku-splash-color'
p1009
NsS'psp-appversion'
p1010
NsS'android-java-target-version'
p1011
NsS'ws8-publisher-id'
p1012
NsS'win10-splash-screen-background'
p1013
NsS'win10-product-id'
p1014
NsS'win10-logo-image30x30'
p1015
NsS'winmobile-png45'
p1016
NsS'wp81-extra-res'
p1017
(lp1018
sS'android-storepass'
p1019
NsS'nacl-icon-16X16'
p1020
NsS'osx-signing-identity-inst'
p1021
NsS'android-custom-activity'
p1022
NsS'psp-discversion'
p1023
NsS'wp81-ext-managed-dll'
p1024
(lp1025
sS'nacl-clear-user-data'
p1026
NsS'psp-copyright'
p1027
NsS'win10-ext-managed-dll'
p1028
(lp1029
sS'win10-logo-image50x50'
p1030
NsS'embed-icf'
p1031
NsS'tizen-manifest'
p1032
NsS'osx-icon'
p1033
NsS'webos-appinfo'
p1034
NsS'psp-dlghealthwarning'
p1035
NsS'webos-appid'
p1036
NsS'roku-icon-side-hd'
p1037
NsS'iphone-icon-ipad-search-high-res-ios7'
p1038
NsS'iphone-extra-plist'
p1039
(lp1040
sS'ws81-ext-sdk-manifest-part'
p1041
(lp1042
sS'loader_name_prefix'
p1043
NsS'iphone-launch-dir'
p1044
NsS'nds-titlename'
p1045
NsS'ws81-logo-image50x50'
p1046
NsS'wp81-custom-manifest'
p1047
NsS'osx-entitlements-plist'
p1048
NsS'win10-product-version'
p1049
NsS'psp-dlgicon0'
p1050
NsS'winmobile-nouninstall'
p1051
NsS'psp-discid'
p1052
NsS'tizen-dist2-password'
p1053
NsS'android-supports-gl-texture'
p1054
(lp1055
sS'ws8-ext-sdk-ref'
p1056
(lp1057
sS'iphone-extra-string'
p1058
(lp1059
sS'version-string'
p1060
NsS'iphone-icon-high-res-ios7'
p1061
NsS'ws8-certificate-end-date'
p1062
NsS'nacl-skip-zip'
p1063
NsS'win10-custom-manifest'
p1064
NsS'tizen-so'
p1065
(lp1066
sS'win10-logo-image44x44'
p1067
NsS'win10-custom-manifest-fill'
p1068
NsS'wp8-tile-fliptemplate-small-image'
p1069
NsS'win10-certificate-end-date'
p1070
NsS'playbook-authorid'
p1071
NsS'win10-publisher-id'
p1072
NsS'iphone-signing-identity'
p1073
NsS'roku-persist-quota'
p1074
NsS'nds-bannertitle-fr'
p1075
NsS'ws8-distribution-pfx'
p1076
NsS'ws8-publisher-display-name'
p1077
NsS'brew-icon-small'
p1078
NsS'psp-dlgpic2'
p1079
NsS'psp-dlgpic0'
p1080
NsS'win10-phone-product-id'
p1081
NsS'psp-pic0'
p1082
NsS'psp-pic1'
p1083
NsS'win32-pref-windowtitle'
p1084
NsS'psp-icon0'
p1085
NsS'psp-icon1'
p1086
NsS'ws81-identity-name'
p1087
NsS'win10-distribution-pfx'
p1088
NsS'winmobile-icon'
p1089
NsS'iphone-no-splash'
p1090
NsS'iphone-splash'
p1091
NsS'iphone-app-fonts'
p1092
NsS'wp8-ext-native-dll'
p1093
(lp1094
sS'wp81-splash-screen-image480x800'
p1095
NsS'ws81-distribution-cer'
p1096
NsS'win10-ext-sdk-manifest-part'
p1097
(lp1098
sS'uiq3-icon2'
p1099
NsS'uiq3-icon3'
p1100
NsS'uiq3-icon1'
p1101
NsS'uiq3-icon1-format'
p1102
NsS'ws8-logo-image50x50'
p1103
NsS'iphone-info-plist-override'
p1104
NsS'symbian-run-on-install'
p1105
NsS'wp81-description'
p1106
NsS'ws81-publisher-display-name'
p1107
NsS'android-version-name'
p1108
NsS'firefoxos-xulrunner'
p1109
NsS'symbian-soundrecordsupport'
p1110
NsS'iphone-backgroundmode-audio'
p1111
NsS'nds-bannertitle-sp'
p1112
NsS'win10-extra-pri'
p1113
(lp1114
sS'psp-producer'
p1115
NsS'iphone-apple-wwdr-cert'
p1116
NsS'android-icon-nonstandard'
p1117
NsS'win32-pref-processtitle'
p1118
NsS'android-icon-xhdpi'
p1119
NsS'nds-bannertitle-hn'
p1120
NsS'tizen-dist2-key'
p1121
NsS'brew-depends'
p1122
NsS'ws81-custom-manifest'
p1123
NsS'iphone-allow-launch-rotation'
p1124
NsS'brew-mif'
p1125
NsS'iphone-icon-ipad-search-ios7'
p1126
NsS'brew-icon-medium'
p1127
NsS'iphone-bundle-url-name'
p1128
NsS'wp8-tile-fliptemplate-large-front-image'
p1129
NsS'tizen-dist2-CA-root-path'
p1130
NsS'ws81-description'
p1131
NsS'uiq3-icon3-format'
p1132
NsS'win10-publisher-display-name'
p1133
NsS'ws81-logo-image30x30'
p1134
NsS'win10-ext-device-capabilities'
p1135
(lp1136
sS'win8-phone-extra-res'
p1137
(lp1138
sS'iphone-signing-host'
p1139
NsS'tizen-icon'
p1140
NsS'osx-info-plist'
p1141
NsS'symbian-icon1-format'
p1142
NsS'ws81-distribution-pfx'
p1143
NsS'win32-aux-dll'
p1144
(lp1145
sS'blackberry-authorid'
p1146
NsS'ws81-publisher-id'
p1147
NsS'win8-store-extra-res'
p1148
(lp1149
sS'wp8-description'
p1150
NsS'iphone-link-opts'
p1151
(lp1152
S'-Fc:/marmalade/7.10/platform_libs/iphone/amazon-ads-ios-sdk/third_party/Ads -framework AmazonAd'
p1153
aS'-weak_framework AdSupport -weak_framework CoreLocation -weak_framework SystemConfiguration'
p1154
aS'-weak_framework CoreTelephony -weak_framework MediaPlayer'
p1155
aS'-weak_framework EventKit -weak_framework EventKitUI'
p1156
asS'ws81-ext-sdk-ref'
p1157
(lp1158
sS'roku-splash-min-time'
p1159
NsS'wp8-tile-fliptemplate-medium-front-image'
p1160
NsS'iphone-disable-launch-images'
p1161
NsS'android-sdk-platform-version'
p1162
NsS'provider'
p1163
NsS'playbook-keystore'
p1164
NsS'tizen-appid'
p1165
NsS'wp8-extra-res'
p1166
(lp1167
sS'symbian-osexecsupport'
p1168
NsS'android-install-location'
p1169
NsS'nds-privatesavedatasize'
p1170
NsS'iphone-disable-testflight'
p1171
NsS'playbook-storepass'
p1172
NsS'android-icon-ldpi'
p1173
NsS'manufacturer'
p1174
NsS'itunes-artwork'
p1175
NsS'iphone-extra-sections'
p1176
NsS'ws81-product-name'
p1177
NsS'ws81-ext-native-dll'
p1178
(lp1179
sS'ws8-extra-pri'
p1180
(lp1181
sS'win32-icon'
p1182
NsS'ws8-logo-image30x30'
p1183
NsS'wp8-ext-managed-dll'
p1184
(lp1185
sS'iphone-splashscreen-landscape'
p1186
NsS'symbian-maxheapsize'
p1187
NsS'android-extra-packages'
p1188
(lp1189
sS'priv-sign-key'
p1190
NsS'networking'
p1191
NsS'android-icon'
p1192
NsS'iphone-icon-settings'
p1193
NsS'nacl-manifest'
p1194
NsS'wp81-phone-product-id'
p1195
NsS'firefoxos-icon-60X60'
p1196
NsS'iphone-distribution-cert'
p1197
NsS'android_extra_strings'
p1198
NsS'nds-bannertitle-en'
p1199
NsS'blackberry-permissions-record-audio'
p1200
NsS'android-so'
p1201
(lp1202
S'c:/marmalade/7.10/extensions/s3eamazonads/lib/android/libs3eAmazonAds.so'
p1203
asS'wp8-higher-mem'
p1204
NsS'wp8-ext-sdk-ref'
p1205
(lp1206
sS'wp8-fast-resume-mode'
p1207
NsS'roku-splash-screen-hd'
p1208
NsS'iphone-bundle-url-schemes'
p1209
NsS'roku-screensaver-private'
p1210
NsS'osx-extra-res'
p1211
(lp1212
sS'ws81-extra-res'
p1213
(lp1214
sS'playbook-icon'
p1215
NsS'uid'
p1216
NsS'pkguid-as-uid'
p1217
NsS'wp81-ext-native-dll'
p1218
(lp1219
sS'tizen-dist1-password'
p1220
NsS'roku-screensaver-title'
p1221
NsS'osx-minimum-osx-version'
p1222
NsS'symbian-cert'
p1223
NsS'iphone-icon'
p1224
NsS'ws81-ext-capabilities'
p1225
(lp1226
sS'ws8-distribution-cer'
p1227
NsS'playbook-access-shared'
p1228
NsS'iphone-icon-ipad-high-res-ios7'
p1229
NsS'iphone-link-libs'
p1230
(lp1231
sS'wp8-exclude-wvga'
p1232
NsS'assets'
p1233
NsS'wp8-tile-fliptemplate-large-back-image'
p1234
NsS'pub-sign-key'
p1235
NsS'nacl-legacy-ext'
p1236
NsS'android-extra-strings'
p1237
(lp1238
sS'tizen-author-CA-path'
p1239
Nssg387
g686
sbssS'platform'
p1240
S'S3E'
p1241
sg77
S'1.0'
p1242
sS'arcade_platform'
p1243
g4
sS'extensions'
p1244
(dp1245
sS'source_groups_tree'
p1246
(dp1247
S'(libpng)'
p1248
(dp1249
S'h'
p1250
(dp1251
S'c:/marmalade/7.10/modules/third_party/libpng/h/png.h'
p1252
(lp1253
I1
a(dp1254
asS'c:/marmalade/7.10/modules/third_party/libpng/h/pngconf.h'
p1255
(lp1256
I1
ag1254
assS'c:/marmalade/7.10/modules/third_party/libpng/libpng.mkf'
p1257
(lp1258
I1
a(dp1259
assS'(amazon-ads-android-sdk)'
p1260
(dp1261
S'c:/marmalade/7.10/platform_libs/android/amazon-ads-android-sdk/amazon-ads-android-sdk.mkf'
p1262
(lp1263
I1
a(dp1264
assS'(tiniconv)'
p1265
(dp1266
S'c:/marmalade/7.10/modules/third_party/tiniconv/source/tiniconv.h'
p1267
(lp1268
I1
a(dp1269
asS'c:/marmalade/7.10/modules/third_party/tiniconv/source/tiniconv_int.h'
p1270
(lp1271
I1
ag1269
asS'c:/marmalade/7.10/modules/third_party/tiniconv/tiniconv.mkf'
p1272
(lp1273
I1
a(dp1274
assS'(amazon-ads-ios-sdk)'
p1275
(dp1276
S'c:/marmalade/7.10/platform_libs/iphone/amazon-ads-ios-sdk/amazon-ads-ios-sdk.mkf'
p1277
(lp1278
I1
a(dp1279
assS'(SoundEngine)'
p1280
(dp1281
S'd:/marmalade/modules/soundengine/h/IwSoundInst.h'
p1282
(lp1283
I1
a(dp1284
asS'd:/marmalade/modules/soundengine/source/IwSoundPCM.cpp'
p1285
(lp1286
I1
ag1284
asS'd:/marmalade/modules/soundengine/h/IwSoundPCM.h'
p1287
(lp1288
I1
ag1284
asS'd:/marmalade/modules/soundengine/h/IwSoundSpec.h'
p1289
(lp1290
I1
ag1284
asS'd:/marmalade/modules/soundengine/h/IwResHandlerWAV.h'
p1291
(lp1292
I1
ag1284
asS'd:/marmalade/modules/soundengine/h/IwSoundManager.h'
p1293
(lp1294
I1
ag1284
asS'Docs'
p1295
(dp1296
S'd:/marmalade/modules/soundengine/docs/iwsound.config.txt'
p1297
(lp1298
I1
ag1284
assS'd:/marmalade/modules/soundengine/h/IwSound.h'
p1299
(lp1300
I1
ag1284
asS'd:/marmalade/modules/soundengine/source/IwSoundWAV.cpp'
p1301
(lp1302
I1
ag1284
asS'd:/marmalade/modules/soundengine/h/IwSoundParams.h'
p1303
(lp1304
I1
ag1284
asS'd:/marmalade/modules/soundengine/source/IwSoundADPCM.cpp'
p1305
(lp1306
I1
ag1284
asS'd:/marmalade/modules/soundengine/h/IwSoundADPCM.h'
p1307
(lp1308
I1
ag1284
asS'd:/marmalade/modules/soundengine/h/IwSoundWAV.h'
p1309
(lp1310
I1
ag1284
asS'd:/marmalade/modules/soundengine/source/IwResHandlerWAV.cpp'
p1311
(lp1312
I1
ag1284
asS'd:/marmalade/modules/soundengine/source/IwSoundInst.cpp'
p1313
(lp1314
I1
ag1284
asS'd:/marmalade/modules/soundengine/source/IwSoundData.cpp'
p1315
(lp1316
I1
ag1284
asS'd:/marmalade/modules/soundengine/source/IwSoundManager.cpp'
p1317
(lp1318
I1
ag1284
asS'd:/marmalade/modules/soundengine/h/IwSoundData.h'
p1319
(lp1320
I1
ag1284
asS'd:/marmalade/modules/soundengine/source/IwSoundParams.cpp'
p1321
(lp1322
I1
ag1284
asS'd:/marmalade/modules/soundengine/source/IwSoundGroup.cpp'
p1323
(lp1324
I1
ag1284
asS'd:/marmalade/modules/soundengine/soundengine.mkf'
p1325
(lp1326
I1
a(dp1327
asS'd:/marmalade/modules/soundengine/source/IwSoundSpec.cpp'
p1328
(lp1329
I1
ag1284
asS'd:/marmalade/modules/soundengine/h/IwSoundGroup.h'
p1330
(lp1331
I1
ag1284
assS'source'
p1332
(dp1333
S'd:/Marmalade/Stage1/source/input.h'
p1334
(lp1335
I1
a(dp1336
asS'd:/Marmalade/Stage1/source/audio.h'
p1337
(lp1338
I1
ag1336
asS'd:/Marmalade/Stage1/source/Stage1.cpp'
p1339
(lp1340
I1
ag1336
asS'd:/Marmalade/Stage1/source/input.cpp'
p1341
(lp1342
I1
ag1336
asS'd:/Marmalade/Stage1/source/audio.cpp'
p1343
(lp1344
I1
ag1336
assS'Extensions'
p1345
(dp1346
S's3eAmazonAds'
p1347
(dp1348
S'interface'
p1349
(dp1350
S'c:/marmalade/7.10/extensions/s3eamazonads/interface/s3eAmazonAds.defines.txt'
p1351
(lp1352
I1
a(dp1353
asS'c:/marmalade/7.10/extensions/s3eamazonads/interface/s3eAmazonAds_interface.cpp'
p1354
(lp1355
I1
ag1353
assS'c:/marmalade/7.10/extensions/s3eamazonads/s3eamazonads.mkf'
p1356
(lp1357
I1
a(dp1358
asS'c:/marmalade/7.10/extensions/s3eamazonads/h/s3eAmazonAds.h'
p1359
(lp1360
I1
ag1353
assS'PVRTexTool'
p1361
(dp1362
S'interface'
p1363
(dp1364
S'c:/marmalade/7.10/extensions/pvrtextool/interface/PVRTexTool_interface.cpp'
p1365
(lp1366
I1
a(dp1367
asS'c:/marmalade/7.10/extensions/pvrtextool/interface/PVRTexTool.defines.txt'
p1368
(lp1369
I1
ag1367
assS'c:/marmalade/7.10/extensions/pvrtextool/h/PVRTexTool.h'
p1370
(lp1371
I1
ag1367
asS'c:/marmalade/7.10/extensions/pvrtextool/pvrtextool.mkf'
p1372
(lp1373
I1
a(dp1374
asssS'(s3e-default)'
p1375
(dp1376
S'c:/marmalade/7.10/s3e/s3e-default.mkf'
p1377
(lp1378
I1
a(dp1379
assS"'Marmalade Studio'"
p1380
(dp1381
S'iw2dscenegraph'
p1382
(dp1383
S'c:/marmalade/7.10/modules/iw2dscenegraph/source/Iw2DSceneGraph.cpp'
p1384
(lp1385
I1
a(dp1386
asS'c:/marmalade/7.10/modules/iw2dscenegraph/iw2dscenegraph.mkf'
p1387
(lp1388
I1
a(dp1389
asS'c:/marmalade/7.10/modules/iw2dscenegraph/h/Iw2DSceneGraph.h'
p1390
(lp1391
I1
ag1386
asS'c:/marmalade/7.10/modules/iw2dscenegraph/docs/iw2dscenegraph.defines.txt'
p1392
(lp1393
I1
ag1386
assS'iwgl'
p1394
(dp1395
S'c:/marmalade/7.10/modules/iwgl/iwgl.mkf'
p1396
(lp1397
I1
a(dp1398
asS'c:/marmalade/7.10/modules/iwgl/h/IwGL.h'
p1399
(lp1400
I1
a(dp1401
asS'c:/marmalade/7.10/modules/iwgl/docs/iwgl.config.txt'
p1402
(lp1403
I1
ag1401
asS'c:/marmalade/7.10/modules/iwgl/h/IwGLExt.h'
p1404
(lp1405
I1
ag1401
assS'iw2d'
p1406
(dp1407
S'c:/marmalade/7.10/modules/iw2d/iw2d.mkf'
p1408
(lp1409
I1
a(dp1410
asS'c:/marmalade/7.10/modules/iw2d/docs/iw2d_public.defines.txt'
p1411
(lp1412
I1
a(dp1413
asS'c:/marmalade/7.10/modules/iw2d/h/Iw2D.h'
p1414
(lp1415
I1
ag1413
asS'c:/marmalade/7.10/modules/iw2d/docs/iw2d.config.txt'
p1416
(lp1417
I1
ag1413
assS'iwgxfont'
p1418
(dp1419
S'c:/marmalade/7.10/modules/iwgxfont/h/IwGxFont.h'
p1420
(lp1421
I1
a(dp1422
asS'c:/marmalade/7.10/modules/iwgxfont/h/IwGxFontPreparedData.h'
p1423
(lp1424
I1
ag1422
asS'c:/marmalade/7.10/modules/iwgxfont/iwgxfont.mkf'
p1425
(lp1426
I1
a(dp1427
asS'c:/marmalade/7.10/modules/iwgxfont/docs/iwgxfont.config.txt'
p1428
(lp1429
I1
ag1422
asS'c:/marmalade/7.10/modules/iwgxfont/h/IwGxFontState.h'
p1430
(lp1431
I1
ag1422
asS'c:/marmalade/7.10/modules/iwgxfont/docs/iwgxfont_public.defines.txt'
p1432
(lp1433
I1
ag1422
asS'c:/marmalade/7.10/modules/iwgxfont/h/IwGxFontContainer.h'
p1434
(lp1435
I1
ag1422
asS'c:/marmalade/7.10/modules/iwgxfont/h/IwGxFontGlyph.h'
p1436
(lp1437
I1
ag1422
asS'c:/marmalade/7.10/modules/iwgxfont/h/IwGxFontTypes.h'
p1438
(lp1439
I1
ag1422
assS'iwgeom'
p1440
(dp1441
S'c:/marmalade/7.10/modules/iwgeom/h/IwGeomQuat.h'
p1442
(lp1443
I1
a(dp1444
asS'c:/marmalade/7.10/modules/iwgeom/h/IwGeomMat2D.h.tpl'
p1445
(lp1446
I1
ag1444
asS'c:/marmalade/7.10/modules/iwgeom/h/IwGeomIntersect.h'
p1447
(lp1448
I1
ag1444
asS'c:/marmalade/7.10/modules/iwgeom/h/IwGeomQuat.h.tpl'
p1449
(lp1450
I1
ag1444
asS'c:/marmalade/7.10/modules/iwgeom/h/IwGeomVec.h.tpl'
p1451
(lp1452
I1
ag1444
asS'c:/marmalade/7.10/modules/iwgeom/docs/iwgeom.config.txt'
p1453
(lp1454
I1
ag1444
asS'c:/marmalade/7.10/modules/iwgeom/h/IwGeomFBBox.h'
p1455
(lp1456
I1
ag1444
asS'c:/marmalade/7.10/modules/iwgeom/iwgeom.mkf'
p1457
(lp1458
I1
a(dp1459
asS'c:/marmalade/7.10/modules/iwgeom/h/IwGeomFSphere.h'
p1460
(lp1461
I1
ag1444
asS'c:/marmalade/7.10/modules/iwgeom/h/IwGeomSVec4.h'
p1462
(lp1463
I1
ag1444
asS'c:/marmalade/7.10/modules/iwgeom/h/IwGeomPlane.h'
p1464
(lp1465
I1
ag1444
asS'c:/marmalade/7.10/modules/iwgeom/h/IwGeomSVec3.h'
p1466
(lp1467
I1
ag1444
asS'c:/marmalade/7.10/modules/iwgeom/h/IwGeomVec4.h'
p1468
(lp1469
I1
ag1444
asS'c:/marmalade/7.10/modules/iwgeom/h/IwGeom.h'
p1470
(lp1471
I1
ag1444
asS'c:/marmalade/7.10/modules/iwgeom/h/IwGeomVec3.h'
p1472
(lp1473
I1
ag1444
asS'c:/marmalade/7.10/modules/iwgeom/h/IwGeomMat.h.tpl'
p1474
(lp1475
I1
ag1444
asS'c:/marmalade/7.10/modules/iwgeom/h/IwGeomFQuat.h'
p1476
(lp1477
I1
ag1444
asS'c:/marmalade/7.10/modules/iwgeom/h/IwGeomSphere.h'
p1478
(lp1479
I1
ag1444
asS'c:/marmalade/7.10/modules/iwgeom/h/IwGeomLegacy.h'
p1480
(lp1481
I1
ag1444
asS'c:/marmalade/7.10/modules/iwgeom/h/IwGeomVec2.h'
p1482
(lp1483
I1
ag1444
asS'c:/marmalade/7.10/modules/iwgeom/h/IwGeomFIntersect.h'
p1484
(lp1485
I1
ag1444
asS'c:/marmalade/7.10/modules/iwgeom/h/IwGeomFPlane.h'
p1486
(lp1487
I1
ag1444
asS'c:/marmalade/7.10/modules/iwgeom/h/IwGeomSQuat.h'
p1488
(lp1489
I1
ag1444
asS'c:/marmalade/7.10/modules/iwgeom/h/IwGeomSVec2.h'
p1490
(lp1491
I1
ag1444
asS'c:/marmalade/7.10/modules/iwgeom/h/IwGeomBBox.h'
p1492
(lp1493
I1
ag1444
asS'c:/marmalade/7.10/modules/iwgeom/h/IwGeomFMat2D.h'
p1494
(lp1495
I1
ag1444
asS'c:/marmalade/7.10/modules/iwgeom/h/IwGeomVec.h'
p1496
(lp1497
I1
ag1444
asS'c:/marmalade/7.10/modules/iwgeom/h/IwGeomMenu.h'
p1498
(lp1499
I1
ag1444
asS'c:/marmalade/7.10/modules/iwgeom/h/IwGeomFVec2.h'
p1500
(lp1501
I1
ag1444
asS'c:/marmalade/7.10/modules/iwgeom/h/IwGeomFMat.h'
p1502
(lp1503
I1
ag1444
asS'c:/marmalade/7.10/modules/iwgeom/h/IwGeomCore.h'
p1504
(lp1505
I1
ag1444
asS'c:/marmalade/7.10/modules/iwgeom/h/IwGeomFVec3.h'
p1506
(lp1507
I1
ag1444
asS'c:/marmalade/7.10/modules/iwgeom/h/IwGeomMat2D.h'
p1508
(lp1509
I1
ag1444
asS'c:/marmalade/7.10/modules/iwgeom/h/IwGeomMat.h'
p1510
(lp1511
I1
ag1444
asS'c:/marmalade/7.10/modules/iwgeom/h/IwGeomFVec4.h'
p1512
(lp1513
I1
ag1444
asS'c:/marmalade/7.10/modules/iwgeom/h/IwGeomSqrt.h'
p1514
(lp1515
I1
ag1444
assS'iwresmanager'
p1516
(dp1517
S'c:/marmalade/7.10/modules/iwresmanager/h/IwResHandler.h'
p1518
(lp1519
I1
a(dp1520
asS'c:/marmalade/7.10/modules/iwresmanager/docs/iwresmanager.config.txt'
p1521
(lp1522
I1
ag1520
asS'c:/marmalade/7.10/modules/iwresmanager/h/IwResHandlerImage.h'
p1523
(lp1524
I1
ag1520
asS'c:/marmalade/7.10/modules/iwresmanager/h/IwResHandlerITX.h'
p1525
(lp1526
I1
ag1520
asS'c:/marmalade/7.10/modules/iwresmanager/h/IwResManager.h'
p1527
(lp1528
I1
ag1520
asS'c:/marmalade/7.10/modules/iwresmanager/h/IwResSerialise.h'
p1529
(lp1530
I1
ag1520
asS'c:/marmalade/7.10/modules/iwresmanager/iwresmanager.mkf'
p1531
(lp1532
I1
a(dp1533
asS'c:/marmalade/7.10/modules/iwresmanager/h/IwResManagerClass.h'
p1534
(lp1535
I1
ag1520
asS'c:/marmalade/7.10/modules/iwresmanager/h/IwResGroup.h'
p1536
(lp1537
I1
ag1520
asS'c:/marmalade/7.10/modules/iwresmanager/h/IwResHandlerGROUP.h'
p1538
(lp1539
I1
ag1520
assS'iwgx'
p1540
(dp1541
S'c:/marmalade/7.10/modules/iwgx/h/IwGxPrint.h'
p1542
(lp1543
I1
a(dp1544
asS'c:/marmalade/7.10/modules/iwgx/h/IwGxError.h'
p1545
(lp1546
I1
ag1544
asS'c:/marmalade/7.10/modules/iwgx/h/IwGxSurface.h'
p1547
(lp1548
I1
ag1544
asS'c:/marmalade/7.10/modules/iwgx/h/IwGxTransformSW.h'
p1549
(lp1550
I1
ag1544
asS'c:/marmalade/7.10/modules/iwgx/h/IwGxDebug.h'
p1551
(lp1552
I1
ag1544
asS'c:/marmalade/7.10/modules/iwgx/h/IwClip.h'
p1553
(lp1554
I1
ag1544
asS'c:/marmalade/7.10/modules/iwgx/docs/iwgx.config.txt'
p1555
(lp1556
I1
ag1544
asS'c:/marmalade/7.10/modules/iwgx/h/IwColour.h'
p1557
(lp1558
I1
ag1544
asS'c:/marmalade/7.10/modules/iwgx/h/IwGxTypes.h'
p1559
(lp1560
I1
ag1544
asS'c:/marmalade/7.10/modules/iwgx/h/IwGx.h'
p1561
(lp1562
I1
ag1544
asS'c:/marmalade/7.10/modules/iwgx/h/IwDebugPrim.h'
p1563
(lp1564
I1
ag1544
asS'c:/marmalade/7.10/modules/iwgx/h/IwGxMetrics.h'
p1565
(lp1566
I1
ag1544
asS'c:/marmalade/7.10/modules/iwgx/iwgx.mkf'
p1567
(lp1568
I1
a(dp1569
asS'c:/marmalade/7.10/modules/iwgx/h/IwClip.inl'
p1570
(lp1571
I1
ag1544
asS'c:/marmalade/7.10/modules/iwgx/h/IwMatAnim.h'
p1572
(lp1573
I1
ag1544
asS'c:/marmalade/7.10/modules/iwgx/h/IwGxState.h'
p1574
(lp1575
I1
ag1544
asS'c:/marmalade/7.10/modules/iwgx/h/IwTexture.h'
p1576
(lp1577
I1
ag1544
asS'c:/marmalade/7.10/modules/iwgx/h/IwGxStream.h'
p1578
(lp1579
I1
ag1544
asS'c:/marmalade/7.10/modules/iwgx/h/IwTPage.h'
p1580
(lp1581
I1
ag1544
asS'c:/marmalade/7.10/modules/iwgx/h/IwResHandlerMTL.h'
p1582
(lp1583
I1
ag1544
asS'c:/marmalade/7.10/modules/iwgx/h/IwMaterial.h'
p1584
(lp1585
I1
ag1544
asS'c:/marmalade/7.10/modules/iwgx/h/IwGxFuncTable.h'
p1586
(lp1587
I1
ag1544
asS'c:/marmalade/7.10/modules/iwgx/h/IwFColour.h'
p1588
(lp1589
I1
ag1544
asS'c:/marmalade/7.10/modules/iwgx/docs/iwgx_public.defines.txt'
p1590
(lp1591
I1
ag1544
asS'c:/marmalade/7.10/modules/iwgx/h/IwGxShaderTechnique.h'
p1592
(lp1593
I1
ag1544
assS'iw2dscenegraphcore'
p1594
(dp1595
S'c:/marmalade/7.10/modules/iw2dscenegraphcore/iw2dscenegraphcore.mkf'
p1596
(lp1597
I1
a(dp1598
asS'c:/marmalade/7.10/modules/iw2dscenegraphcore/h/Iw2DSceneGraphCore.h'
p1599
(lp1600
I1
a(dp1601
asS'c:/marmalade/7.10/modules/iw2dscenegraphcore/source/Iw2DSceneGraphCore.cpp'
p1602
(lp1603
I1
ag1601
assS'iwutil'
p1604
(dp1605
S'c:/marmalade/7.10/modules/iwutil/h/IwDivTable.h'
p1606
(lp1607
I1
a(dp1608
asS'c:/marmalade/7.10/modules/iwutil/h/IwPath.h'
p1609
(lp1610
I1
ag1608
asS'c:/marmalade/7.10/modules/iwutil/h/IwFile.h'
p1611
(lp1612
I1
ag1608
asS'c:/marmalade/7.10/modules/iwutil/h/IwImage.h'
p1613
(lp1614
I1
ag1608
asS'c:/marmalade/7.10/modules/iwutil/h/IwMenu.h'
p1615
(lp1616
I1
ag1608
asS'c:/marmalade/7.10/modules/iwutil/h/IwArray.h'
p1617
(lp1618
I1
ag1608
asS'c:/marmalade/7.10/modules/iwutil/h/IwMemBucketHelpers.h'
p1619
(lp1620
I1
ag1608
asS'c:/marmalade/7.10/modules/iwutil/h/IwClassFactory.h'
p1621
(lp1622
I1
ag1608
asS'c:/marmalade/7.10/modules/iwutil/iwutil.mkf'
p1623
(lp1624
I1
a(dp1625
asS'c:/marmalade/7.10/modules/iwutil/h/IwDivide.h'
p1626
(lp1627
I1
ag1608
asS'c:/marmalade/7.10/modules/iwutil/h/IwMemory.h'
p1628
(lp1629
I1
ag1608
asS'c:/marmalade/7.10/modules/iwutil/h/IwManagedList.h'
p1630
(lp1631
I1
ag1608
asS'c:/marmalade/7.10/modules/iwutil/h/IwUtil.h'
p1632
(lp1633
I1
ag1608
asS'c:/marmalade/7.10/modules/iwutil/h/IwFibre.h'
p1634
(lp1635
I1
ag1608
asS'c:/marmalade/7.10/modules/iwutil/h/IwBuffer.h'
p1636
(lp1637
I1
ag1608
asS'c:/marmalade/7.10/modules/iwutil/h/IwHashString.h'
p1638
(lp1639
I1
ag1608
asS'c:/marmalade/7.10/modules/iwutil/h/IwSingleton.h'
p1640
(lp1641
I1
ag1608
asS'c:/marmalade/7.10/modules/iwutil/h/IwSerialise.h'
p1642
(lp1643
I1
ag1608
asS'c:/marmalade/7.10/modules/iwutil/h/IwMath.h'
p1644
(lp1645
I1
ag1608
asS'c:/marmalade/7.10/modules/iwutil/h/IwTypes.h'
p1646
(lp1647
I1
ag1608
asS'c:/marmalade/7.10/modules/iwutil/h/IwTextParser.h'
p1648
(lp1649
I1
ag1608
asS'c:/marmalade/7.10/modules/iwutil/h/IwOptimiseSpeed.h'
p1650
(lp1651
I1
ag1608
asS'c:/marmalade/7.10/modules/iwutil/h/IwKeymap.h'
p1652
(lp1653
I1
ag1608
asS'c:/marmalade/7.10/modules/iwutil/h/IwCore.h'
p1654
(lp1655
I1
ag1608
asS'c:/marmalade/7.10/modules/iwutil/h/IwAllocator.h'
p1656
(lp1657
I1
ag1608
asS'c:/marmalade/7.10/modules/iwutil/h/IwChar.h'
p1658
(lp1659
I1
ag1608
asS'c:/marmalade/7.10/modules/iwutil/h/IwOptimiseThumb.h'
p1660
(lp1661
I1
ag1608
asS'c:/marmalade/7.10/modules/iwutil/h/IwAutoFile.h'
p1662
(lp1663
I1
ag1608
asS'c:/marmalade/7.10/modules/iwutil/h/IwManaged.h'
p1664
(lp1665
I1
ag1608
asS'c:/marmalade/7.10/modules/iwutil/h/IwOptimiseARM.h'
p1666
(lp1667
I1
ag1608
asS'c:/marmalade/7.10/modules/iwutil/h/IwTextParserITX.h'
p1668
(lp1669
I1
ag1608
asS'c:/marmalade/7.10/modules/iwutil/h/IwList.h'
p1670
(lp1671
I1
ag1608
asS'c:/marmalade/7.10/modules/iwutil/h/IwUncopyable.h'
p1672
(lp1673
I1
ag1608
asS'c:/marmalade/7.10/modules/iwutil/h/IwRandom.h'
p1674
(lp1675
I1
ag1608
asS'c:/marmalade/7.10/modules/iwutil/h/IwProfileMenu.h'
p1676
(lp1677
I1
ag1608
asS'c:/marmalade/7.10/modules/iwutil/h/IwDebug.h'
p1678
(lp1679
I1
ag1608
asS'c:/marmalade/7.10/modules/iwutil/h/IwTextParseable.h'
p1680
(lp1681
I1
ag1608
asS'c:/marmalade/7.10/modules/iwutil/h/IwResource.h'
p1682
(lp1683
I1
ag1608
asS'c:/marmalade/7.10/modules/iwutil/h/IwOptimiseSize.h'
p1684
(lp1685
I1
ag1608
asS'c:/marmalade/7.10/modules/iwutil/h/IwVariableBitField.h'
p1686
(lp1687
I1
ag1608
asS'c:/marmalade/7.10/modules/iwutil/h/IwCopyingPtr.h'
p1688
(lp1689
I1
ag1608
asS'c:/marmalade/7.10/modules/iwutil/docs/iwutil.config.txt'
p1690
(lp1691
I1
ag1608
asS'c:/marmalade/7.10/modules/iwutil/h/IwUtilInitTerm.h'
p1692
(lp1693
I1
ag1608
asS'c:/marmalade/7.10/modules/iwutil/h/IwEvent.h'
p1694
(lp1695
I1
ag1608
asS'c:/marmalade/7.10/modules/iwutil/h/IwRuntime.h'
p1696
(lp1697
I1
ag1608
asS'c:/marmalade/7.10/modules/iwutil/h/IwUTF8.h'
p1698
(lp1699
I1
ag1608
asS'c:/marmalade/7.10/modules/iwutil/h/IwImageHelper.h'
p1700
(lp1701
I1
ag1608
asS'c:/marmalade/7.10/modules/iwutil/h/IwMemManagerDL.h'
p1702
(lp1703
I1
ag1608
asS'c:/marmalade/7.10/modules/iwutil/h/IwMemBucket.h'
p1704
(lp1705
I1
ag1608
asS'c:/marmalade/7.10/modules/iwutil/h/IwString.h'
p1706
(lp1707
I1
ag1608
asssS'(zlib)'
p1708
(dp1709
g1250
(dp1710
S'c:/marmalade/7.10/modules/third_party/zlib/h/zconf.h'
p1711
(lp1712
I1
a(dp1713
asS'c:/marmalade/7.10/modules/third_party/zlib/h/zlib.h'
p1714
(lp1715
I1
ag1713
assS'c:/marmalade/7.10/modules/third_party/zlib/zlib.mkf'
p1716
(lp1717
I1
a(dp1718
assS'(libjpeg)'
p1719
(dp1720
g1250
(dp1721
S'c:/marmalade/7.10/modules/third_party/libjpeg/h/jpeglib.h'
p1722
(lp1723
I1
a(dp1724
asS'c:/marmalade/7.10/modules/third_party/libjpeg/h/jdhuff.h'
p1725
(lp1726
I1
ag1724
asS'c:/marmalade/7.10/modules/third_party/libjpeg/h/transupp.h'
p1727
(lp1728
I1
ag1724
asS'c:/marmalade/7.10/modules/third_party/libjpeg/h/cdjpeg.h'
p1729
(lp1730
I1
ag1724
asS'c:/marmalade/7.10/modules/third_party/libjpeg/h/jerror.h'
p1731
(lp1732
I1
ag1724
asS'c:/marmalade/7.10/modules/third_party/libjpeg/h/jconfig.h'
p1733
(lp1734
I1
ag1724
asS'c:/marmalade/7.10/modules/third_party/libjpeg/h/jmorecfg.h'
p1735
(lp1736
I1
ag1724
asS'c:/marmalade/7.10/modules/third_party/libjpeg/h/jdct.h'
p1737
(lp1738
I1
ag1724
asS'c:/marmalade/7.10/modules/third_party/libjpeg/h/cderror.h'
p1739
(lp1740
I1
ag1724
asS'c:/marmalade/7.10/modules/third_party/libjpeg/h/jmemsys.h'
p1741
(lp1742
I1
ag1724
asS'c:/marmalade/7.10/modules/third_party/libjpeg/h/jchuff.h'
p1743
(lp1744
I1
ag1724
asS'c:/marmalade/7.10/modules/third_party/libjpeg/h/jpegint.h'
p1745
(lp1746
I1
ag1724
asS'c:/marmalade/7.10/modules/third_party/libjpeg/h/jinclude.h'
p1747
(lp1748
I1
ag1724
asS'c:/marmalade/7.10/modules/third_party/libjpeg/h/jversion.h'
p1749
(lp1750
I1
ag1724
assS'c:/marmalade/7.10/modules/third_party/libjpeg/libjpeg.mkf'
p1751
(lp1752
I1
a(dp1753
asssS'files'
p1754
(dp1755
S'IwGxFontPreparedData.h'
p1756
g361
(cmkb_main
File
p1757
g363
Ntp1758
Rp1759
(dp1760
S'flags'
p1761
g1422
sS'group'
p1762
(lp1763
S"'Marmalade Studio'"
p1764
ag1418
asg387
g1423
sbsS'iterator'
p1765
g361
(g1757
g363
Ntp1766
Rp1767
(dp1768
g1761
(dp1769
sg1762
(lp1770
S"'Marmalade System (S3E)'"
p1771
aS'stdc headers'
p1772
aS'c++'
p1773
asg387
S'c:/marmalade/7.10/s3e/h/std/c++/iterator'
p1774
sbsS'IwGL.h'
p1775
g361
(g1757
g363
Ntp1776
Rp1777
(dp1778
g1761
g1401
sg1762
(lp1779
S"'Marmalade Studio'"
p1780
ag1394
asg387
g1399
sbsS's3e.h'
p1781
g361
(g1757
g363
Ntp1782
Rp1783
(dp1784
g1761
g1769
sg1762
(lp1785
g1771
asg387
S'c:/marmalade/7.10/s3e/h/s3e.h'
p1786
sbsS'errno.h'
p1787
g361
(g1757
g363
Ntp1788
Rp1789
(dp1790
g1761
g1769
sg1762
(lp1791
g1771
aS'stdc headers'
p1792
asg387
S'c:/marmalade/7.10/s3e/h/std/errno.h'
p1793
sbsS'IwSingleton.h'
p1794
g361
(g1757
g363
Ntp1795
Rp1796
(dp1797
g1761
g1608
sg1762
(lp1798
S"'Marmalade Studio'"
p1799
ag1604
asg387
g1640
sbsS'dlfcn.h'
p1800
g361
(g1757
g363
Ntp1801
Rp1802
(dp1803
g1761
g1769
sg1762
g1791
sg387
S'c:/marmalade/7.10/s3e/h/std/dlfcn.h'
p1804
sbsS'IwSoundWAV.cpp'
p1805
g361
(g1757
g363
Ntp1806
Rp1807
(dp1808
g1761
g1284
sg1762
(lp1809
g1280
asg387
g1301
sbsS'sched.h'
p1810
g361
(g1757
g363
Ntp1811
Rp1812
(dp1813
g1761
g1769
sg1762
g1791
sg387
S'c:/marmalade/7.10/s3e/h/std/sched.h'
p1814
sbsS'IwSoundPCM.h'
p1815
g361
(g1757
g363
Ntp1816
Rp1817
(dp1818
g1761
g1284
sg1762
g1809
sg387
g1287
sbsS'IwGeomFMat2D.h'
p1819
g361
(g1757
g363
Ntp1820
Rp1821
(dp1822
g1761
g1444
sg1762
(lp1823
S"'Marmalade Studio'"
p1824
ag1440
asg387
g1494
sbsS'cassert'
p1825
g361
(g1757
g363
Ntp1826
Rp1827
(dp1828
g1761
g1769
sg1762
g1770
sg387
S'c:/marmalade/7.10/s3e/h/std/c++/cassert'
p1829
sbsS'grp.h'
p1830
g361
(g1757
g363
Ntp1831
Rp1832
(dp1833
g1761
g1769
sg1762
g1791
sg387
S'c:/marmalade/7.10/s3e/h/std/grp.h'
p1834
sbsS'list'
p1835
g361
(g1757
g363
Ntp1836
Rp1837
(dp1838
g1761
g1769
sg1762
g1770
sg387
S'c:/marmalade/7.10/s3e/h/std/c++/list'
p1839
sbsS'IwSoundSpec.cpp'
p1840
g361
(g1757
g363
Ntp1841
Rp1842
(dp1843
g1761
g1284
sg1762
g1809
sg387
g1328
sbsS'IwGeomMat.h.tpl'
p1844
g361
(g1757
g363
Ntp1845
Rp1846
(dp1847
g1761
g1444
sg1762
g1823
sg387
g1474
sbsS'istream'
p1848
g361
(g1757
g363
Ntp1849
Rp1850
(dp1851
g1761
g1769
sg1762
g1770
sg387
S'c:/marmalade/7.10/s3e/h/std/c++/istream'
p1852
sbsS'jpeglib.h'
p1853
g361
(g1757
g363
Ntp1854
Rp1855
(dp1856
g1761
g1724
sg1762
(lp1857
g1719
ag1250
asg387
g1722
sbsS'iw2d_public.defines.txt'
p1858
g361
(g1757
g363
Ntp1859
Rp1860
(dp1861
g1761
g1413
sg1762
(lp1862
S"'Marmalade Studio'"
p1863
ag1406
asg387
g1411
sbsS'iostream.h'
p1864
g361
(g1757
g363
Ntp1865
Rp1866
(dp1867
g1761
g1769
sg1762
g1770
sg387
S'c:/marmalade/7.10/s3e/h/std/c++/iostream.h'
p1868
sbsS'IwSoundADPCM.h'
p1869
g361
(g1757
g363
Ntp1870
Rp1871
(dp1872
g1761
g1284
sg1762
g1809
sg387
g1307
sbsS'string'
p1873
g361
(g1757
g363
Ntp1874
Rp1875
(dp1876
g1761
g1769
sg1762
g1770
sg387
S'c:/marmalade/7.10/s3e/h/std/c++/string'
p1877
sbsS'IwMemory.h'
p1878
g361
(g1757
g363
Ntp1879
Rp1880
(dp1881
g1761
g1608
sg1762
g1798
sg387
g1628
sbsS'IwGeomPlane.h'
p1882
g361
(g1757
g363
Ntp1883
Rp1884
(dp1885
g1761
g1444
sg1762
g1823
sg387
g1464
sbsS'iw2d.config.txt'
p1886
g361
(g1757
g363
Ntp1887
Rp1888
(dp1889
g1761
g1413
sg1762
g1862
sg387
g1416
sbsS'iomanip'
p1890
g361
(g1757
g363
Ntp1891
Rp1892
(dp1893
g1761
g1769
sg1762
g1770
sg387
S'c:/marmalade/7.10/s3e/h/std/c++/iomanip'
p1894
sbsS'iwgeom.mkf'
p1895
g361
(g1757
g363
Ntp1896
Rp1897
(dp1898
g1761
g1459
sg1762
g1823
sg387
g1457
sbsS'IwGxError.h'
p1899
g361
(g1757
g363
Ntp1900
Rp1901
(dp1902
g1761
g1544
sg1762
(lp1903
S"'Marmalade Studio'"
p1904
ag1540
asg387
g1545
sbsS'IwGeom.h'
p1905
g361
(g1757
g363
Ntp1906
Rp1907
(dp1908
g1761
g1444
sg1762
g1823
sg387
g1470
sbsS'IwGeomVec4.h'
p1909
g361
(g1757
g363
Ntp1910
Rp1911
(dp1912
g1761
g1444
sg1762
g1823
sg387
g1468
sbsS'dir.h'
p1913
g361
(g1757
g363
Ntp1914
Rp1915
(dp1916
g1761
g1769
sg1762
(lp1917
g1771
aS'stdc headers'
p1918
aS'sys'
p1919
asg387
S'c:/marmalade/7.10/s3e/h/std/sys/dir.h'
p1920
sbsS'locale.h'
p1921
g361
(g1757
g363
Ntp1922
Rp1923
(dp1924
g1761
g1769
sg1762
g1791
sg387
S'c:/marmalade/7.10/s3e/h/std/locale.h'
p1925
sbsS'vector'
p1926
g361
(g1757
g363
Ntp1927
Rp1928
(dp1929
g1761
g1769
sg1762
g1770
sg387
S'c:/marmalade/7.10/s3e/h/std/c++/vector'
p1930
sbsS'IwManaged.h'
p1931
g361
(g1757
g363
Ntp1932
Rp1933
(dp1934
g1761
g1608
sg1762
g1798
sg387
g1664
sbsS's3eCompass.h'
p1935
g361
(g1757
g363
Ntp1936
Rp1937
(dp1938
g1761
g1769
sg1762
g1785
sg387
S'c:/marmalade/7.10/s3e/h/s3eCompass.h'
p1939
sbsS'cderror.h'
p1940
g361
(g1757
g363
Ntp1941
Rp1942
(dp1943
g1761
g1724
sg1762
g1857
sg387
g1739
sbsS'climits'
p1944
g361
(g1757
g363
Ntp1945
Rp1946
(dp1947
g1761
g1769
sg1762
g1770
sg387
S'c:/marmalade/7.10/s3e/h/std/c++/climits'
p1948
sbsS'ipc.h'
p1949
g361
(g1757
g363
Ntp1950
Rp1951
(dp1952
g1761
g1769
sg1762
g1917
sg387
S'c:/marmalade/7.10/s3e/h/std/sys/ipc.h'
p1953
sbsS'jversion.h'
p1954
g361
(g1757
g363
Ntp1955
Rp1956
(dp1957
g1761
g1724
sg1762
g1857
sg387
g1749
sbsS'fnmatch.h'
p1958
g361
(g1757
g363
Ntp1959
Rp1960
(dp1961
g1761
g1769
sg1762
g1791
sg387
S'c:/marmalade/7.10/s3e/h/std/fnmatch.h'
p1962
sbsS'IwGxState.h'
p1963
g361
(g1757
g363
Ntp1964
Rp1965
(dp1966
g1761
g1544
sg1762
g1903
sg387
g1574
sbsS's3eAudio.h'
p1967
g361
(g1757
g363
Ntp1968
Rp1969
(dp1970
g1761
g1769
sg1762
g1785
sg387
S'c:/marmalade/7.10/s3e/h/s3eAudio.h'
p1971
sbsS's3eSurface.h'
p1972
g361
(g1757
g363
Ntp1973
Rp1974
(dp1975
g1761
g1769
sg1762
g1785
sg387
S'c:/marmalade/7.10/s3e/h/s3eSurface.h'
p1976
sbsS'new'
p1977
g361
(g1757
g363
Ntp1978
Rp1979
(dp1980
g1761
g1769
sg1762
g1770
sg387
S'c:/marmalade/7.10/s3e/h/std/c++/new'
p1981
sbsS's3eWindow.h'
p1982
g361
(g1757
g363
Ntp1983
Rp1984
(dp1985
g1761
g1769
sg1762
(lp1986
g1771
aS'Extensions'
p1987
asg387
S'c:/marmalade/7.10/s3e/h/ext/s3eWindow.h'
p1988
sbsS'IwBuffer.h'
p1989
g361
(g1757
g363
Ntp1990
Rp1991
(dp1992
g1761
g1608
sg1762
g1798
sg387
g1636
sbsS'stdio_streambuf'
p1993
g361
(g1757
g363
Ntp1994
Rp1995
(dp1996
g1761
g1769
sg1762
g1770
sg387
S'c:/marmalade/7.10/s3e/h/std/c++/stdio_streambuf'
p1997
sbsS'IwGeomQuat.h.tpl'
p1998
g361
(g1757
g363
Ntp1999
Rp2000
(dp2001
g1761
g1444
sg1762
g1823
sg387
g1449
sbsS's3eOSExec.h'
p2002
g361
(g1757
g363
Ntp2003
Rp2004
(dp2005
g1761
g1769
sg1762
g1986
sg387
S'c:/marmalade/7.10/s3e/h/ext/s3eOSExec.h'
p2006
sbsS'IwGxTransformSW.h'
p2007
g361
(g1757
g363
Ntp2008
Rp2009
(dp2010
g1761
g1544
sg1762
g1903
sg387
g1549
sbsS'IwGxMetrics.h'
p2011
g361
(g1757
g363
Ntp2012
Rp2013
(dp2014
g1761
g1544
sg1762
g1903
sg387
g1565
sbsS'iwgxfont.config.txt'
p2015
g361
(g1757
g363
Ntp2016
Rp2017
(dp2018
g1761
g1422
sg1762
g1763
sg387
g1428
sbsS'gl2platform.h'
p2019
g361
(g1757
g363
Ntp2020
Rp2021
(dp2022
g1761
g1769
sg1762
(lp2023
g1771
aS'GL'
p2024
aS'GLES 2.0'
p2025
asg387
S'c:/marmalade/7.10/s3e/h/GLES2/gl2platform.h'
p2026
sbsS'IwResManagerClass.h'
p2027
g361
(g1757
g363
Ntp2028
Rp2029
(dp2030
g1761
g1520
sg1762
(lp2031
g1380
ag1516
asg387
g1534
sbsS'queue'
p2032
g361
(g1757
g363
Ntp2033
Rp2034
(dp2035
g1761
g1769
sg1762
g1770
sg387
S'c:/marmalade/7.10/s3e/h/std/c++/queue'
p2036
sbsS'time_1.h'
p2037
g361
(g1757
g363
Ntp2038
Rp2039
(dp2040
g1761
g1769
sg1762
g1917
sg387
S'c:/marmalade/7.10/s3e/h/std/sys/time.h'
p2041
sbsS'Iw2D.h'
p2042
g361
(g1757
g363
Ntp2043
Rp2044
(dp2045
g1761
g1413
sg1762
g1862
sg387
g1414
sbsS'IwGeomVec2.h'
p2046
g361
(g1757
g363
Ntp2047
Rp2048
(dp2049
g1761
g1444
sg1762
g1823
sg387
g1482
sbsS's3eDevice.h'
p2050
g361
(g1757
g363
Ntp2051
Rp2052
(dp2053
g1761
g1769
sg1762
g1785
sg387
S'c:/marmalade/7.10/s3e/h/s3eDevice.h'
p2054
sbsS'malloc.h'
p2055
g361
(g1757
g363
Ntp2056
Rp2057
(dp2058
g1761
g1769
sg1762
g1791
sg387
S'c:/marmalade/7.10/s3e/h/std/malloc.h'
p2059
sbsS'stdarg.h'
p2060
g361
(g1757
g363
Ntp2061
Rp2062
(dp2063
g1761
g1769
sg1762
g1791
sg387
S'c:/marmalade/7.10/s3e/h/std/stdarg.h'
p2064
sbsS'IwGeomCore.h'
p2065
g361
(g1757
g363
Ntp2066
Rp2067
(dp2068
g1761
g1444
sg1762
g1823
sg387
g1504
sbsS'Iw2DSceneGraph.h'
p2069
g361
(g1757
g363
Ntp2070
Rp2071
(dp2072
g1761
g1386
sg1762
(lp2073
S"'Marmalade Studio'"
p2074
ag1382
asg387
g1390
sbsS'endian.h'
p2075
g361
(g1757
g363
Ntp2076
Rp2077
(dp2078
g1761
g1769
sg1762
g1791
sg387
S'c:/marmalade/7.10/s3e/h/std/endian.h'
p2079
sbsS'gl3ext.h'
p2080
g361
(g1757
g363
Ntp2081
Rp2082
(dp2083
g1761
g1769
sg1762
(lp2084
g1771
aS'GL'
p2085
aS'GLES 3.0'
p2086
asg387
S'c:/marmalade/7.10/s3e/h/GLES3/gl3ext.h'
p2087
sbsS'glob.h'
p2088
g361
(g1757
g363
Ntp2089
Rp2090
(dp2091
g1761
g1769
sg1762
g1791
sg387
S'c:/marmalade/7.10/s3e/h/std/glob.h'
p2092
sbsS'fstream'
p2093
g361
(g1757
g363
Ntp2094
Rp2095
(dp2096
g1761
g1769
sg1762
g1770
sg387
S'c:/marmalade/7.10/s3e/h/std/c++/fstream'
p2097
sbsS's3eCamera.h'
p2098
g361
(g1757
g363
Ntp2099
Rp2100
(dp2101
g1761
g1769
sg1762
g1785
sg387
S'c:/marmalade/7.10/s3e/h/s3eCamera.h'
p2102
sbsS'jconfig.h'
p2103
g361
(g1757
g363
Ntp2104
Rp2105
(dp2106
g1761
g1724
sg1762
g1857
sg387
g1733
sbsS'memory'
p2107
g361
(g1757
g363
Ntp2108
Rp2109
(dp2110
g1761
g1769
sg1762
g1770
sg387
S'c:/marmalade/7.10/s3e/h/std/c++/memory'
p2111
sbsS'egl.h'
p2112
g361
(g1757
g363
Ntp2113
Rp2114
(dp2115
g1761
g1769
sg1762
(lp2116
g1771
aS'GL'
p2117
aS'EGL'
p2118
asg387
S'c:/marmalade/7.10/s3e/h/EGL/egl.h'
p2119
sbsS'IwClip.inl'
p2120
g361
(g1757
g363
Ntp2121
Rp2122
(dp2123
g1761
g1544
sg1762
g1903
sg387
g1570
sbsS'IwMemManagerDL.h'
p2124
g361
(g1757
g363
Ntp2125
Rp2126
(dp2127
g1761
g1608
sg1762
g1798
sg387
g1702
sbsS'deque'
p2128
g361
(g1757
g363
Ntp2129
Rp2130
(dp2131
g1761
g1769
sg1762
g1770
sg387
S'c:/marmalade/7.10/s3e/h/std/c++/deque'
p2132
sbsS'IwString.h'
p2133
g361
(g1757
g363
Ntp2134
Rp2135
(dp2136
g1761
g1608
sg1762
g1798
sg387
g1706
sbsS'cwchar'
p2137
g361
(g1757
g363
Ntp2138
Rp2139
(dp2140
g1761
g1769
sg1762
g1770
sg387
S'c:/marmalade/7.10/s3e/h/std/c++/cwchar'
p2141
sbsS'iwutil.mkf'
p2142
g361
(g1757
g363
Ntp2143
Rp2144
(dp2145
g1761
g1625
sg1762
g1798
sg387
g1623
sbsS'csignal'
p2146
g361
(g1757
g363
Ntp2147
Rp2148
(dp2149
g1761
g1769
sg1762
g1770
sg387
S'c:/marmalade/7.10/s3e/h/std/c++/csignal'
p2150
sbsS'pthread_types.h'
p2151
g361
(g1757
g363
Ntp2152
Rp2153
(dp2154
g1761
g1769
sg1762
g1791
sg387
S'c:/marmalade/7.10/s3e/h/std/pthread_types.h'
p2155
sbsS'pthread_alloc'
p2156
g361
(g1757
g363
Ntp2157
Rp2158
(dp2159
g1761
g1769
sg1762
g1770
sg387
S'c:/marmalade/7.10/s3e/h/std/c++/pthread_alloc'
p2160
sbsS'getopt.h'
p2161
g361
(g1757
g363
Ntp2162
Rp2163
(dp2164
g1761
g1769
sg1762
g1791
sg387
S'c:/marmalade/7.10/s3e/h/std/getopt.h'
p2165
sbsS'IwOptimiseARM.h'
p2166
g361
(g1757
g363
Ntp2167
Rp2168
(dp2169
g1761
g1608
sg1762
g1798
sg387
g1666
sbsS'times.h'
p2170
g361
(g1757
g363
Ntp2171
Rp2172
(dp2173
g1761
g1769
sg1762
g1917
sg387
S'c:/marmalade/7.10/s3e/h/std/sys/times.h'
p2174
sbsS'IwGeomFSphere.h'
p2175
g361
(g1757
g363
Ntp2176
Rp2177
(dp2178
g1761
g1444
sg1762
g1823
sg387
g1460
sbsS'amazon-ads-android-sdk.mkf'
p2179
g361
(g1757
g363
Ntp2180
Rp2181
(dp2182
g1761
g1264
sg1762
(lp2183
g1260
asg387
g1262
sbsS'IwTypes.h'
p2184
g361
(g1757
g363
Ntp2185
Rp2186
(dp2187
g1761
g1608
sg1762
g1798
sg387
g1646
sbsS'unistd.h'
p2188
g361
(g1757
g363
Ntp2189
Rp2190
(dp2191
g1761
g1769
sg1762
g1791
sg387
S'c:/marmalade/7.10/s3e/h/std/unistd.h'
p2192
sbsS'audio.cpp'
p2193
g361
(g1757
g363
Ntp2194
Rp2195
(dp2196
g1761
g1336
sg1762
(lp2197
g1332
asg387
g1343
sbsS's3eCompression.h'
p2198
g361
(g1757
g363
Ntp2199
Rp2200
(dp2201
g1761
g1769
sg1762
g1785
sg387
S'c:/marmalade/7.10/s3e/h/s3eCompression.h'
p2202
sbsS'langinfo.h'
p2203
g361
(g1757
g363
Ntp2204
Rp2205
(dp2206
g1761
g1769
sg1762
g1791
sg387
S'c:/marmalade/7.10/s3e/h/std/langinfo.h'
p2207
sbsS's3edebugHeap.h'
p2208
g361
(g1757
g363
Ntp2209
Rp2210
(dp2211
g1761
g1769
sg1762
g1986
sg387
S'c:/marmalade/7.10/s3e/h/ext/s3edebugHeap.h'
p2212
sbsS'AirplayVersion.h'
p2213
g361
(g1757
g363
Ntp2214
Rp2215
(dp2216
g1761
g1769
sg1762
g1785
sg387
S'c:/marmalade/7.10/s3e/h/AirplayVersion.h'
p2217
sbsS'gl2extimg.h'
p2218
g361
(g1757
g363
Ntp2219
Rp2220
(dp2221
g1761
g1769
sg1762
g2023
sg387
S'c:/marmalade/7.10/s3e/h/GLES2/gl2extimg.h'
p2222
sbsS'app.config.txt'
p2223
g361
(g1757
g363
Ntp2224
Rp2225
(dp2226
g1761
(dp2227
sg1762
g4
sg387
S'd:/Marmalade/Stage1/data/app.config.txt'
p2228
sbsS'IwGeomSqrt.h'
p2229
g361
(g1757
g363
Ntp2230
Rp2231
(dp2232
g1761
g1444
sg1762
g1823
sg387
g1514
sbsS'tiniconv_int.h'
p2233
g361
(g1757
g363
Ntp2234
Rp2235
(dp2236
g1761
g1269
sg1762
(lp2237
g1265
asg387
g1270
sbsS'syslog.h'
p2238
g361
(g1757
g363
Ntp2239
Rp2240
(dp2241
g1761
g1769
sg1762
g1791
sg387
S'c:/marmalade/7.10/s3e/h/std/syslog.h'
p2242
sbsS'IwGxFontTypes.h'
p2243
g361
(g1757
g363
Ntp2244
Rp2245
(dp2246
g1761
g1422
sg1762
g1763
sg387
g1438
sbsS'IwGeomFIntersect.h'
p2247
g361
(g1757
g363
Ntp2248
Rp2249
(dp2250
g1761
g1444
sg1762
g1823
sg387
g1484
sbsS'hash_map'
p2251
g361
(g1757
g363
Ntp2252
Rp2253
(dp2254
g1761
g1769
sg1762
g1770
sg387
S'c:/marmalade/7.10/s3e/h/std/c++/hash_map'
p2255
sbsS's3e.mkf'
p2256
g361
(g1757
g363
Ntp2257
Rp2258
(dp2259
g1761
(dp2260
sg1762
g1785
sg387
S'c:/marmalade/7.10/s3e/s3e.mkf'
p2261
sbsS'IwGeomMat2D.h.tpl'
p2262
g361
(g1757
g363
Ntp2263
Rp2264
(dp2265
g1761
g1444
sg1762
g1823
sg387
g1445
sbsS's3eOSReadString.h'
p2266
g361
(g1757
g363
Ntp2267
Rp2268
(dp2269
g1761
g1769
sg1762
g1986
sg387
S'c:/marmalade/7.10/s3e/h/ext/s3eOSReadString.h'
p2270
sbsS'IwSound.h'
p2271
g361
(g1757
g363
Ntp2272
Rp2273
(dp2274
g1761
g1284
sg1762
g1809
sg387
g1299
sbsS'map'
p2275
g361
(g1757
g363
Ntp2276
Rp2277
(dp2278
g1761
g1769
sg1762
g1770
sg387
S'c:/marmalade/7.10/s3e/h/std/c++/map'
p2279
sbsS'IwOptimiseSpeed.h'
p2280
g361
(g1757
g363
Ntp2281
Rp2282
(dp2283
g1761
g1608
sg1762
g1798
sg387
g1650
sbsS'ostream'
p2284
g361
(g1757
g363
Ntp2285
Rp2286
(dp2287
g1761
g1769
sg1762
g1770
sg387
S'c:/marmalade/7.10/s3e/h/std/c++/ostream'
p2288
sbsS'msl_string.h'
p2289
g361
(g1757
g363
Ntp2290
Rp2291
(dp2292
g1761
g1769
sg1762
g1770
sg387
S'c:/marmalade/7.10/s3e/h/std/c++/msl_string.h'
p2293
sbsS'select.h'
p2294
g361
(g1757
g363
Ntp2295
Rp2296
(dp2297
g1761
g1769
sg1762
g1917
sg387
S'c:/marmalade/7.10/s3e/h/std/sys/select.h'
p2298
sbsS'zlib.mkf'
p2299
g361
(g1757
g363
Ntp2300
Rp2301
(dp2302
g1761
g1718
sg1762
(lp2303
g1708
asg387
g1716
sbsS'signal.h'
p2304
g361
(g1757
g363
Ntp2305
Rp2306
(dp2307
g1761
g1769
sg1762
g1791
sg387
S'c:/marmalade/7.10/s3e/h/std/signal.h'
p2308
sbsS'sigcontext.h'
p2309
g361
(g1757
g363
Ntp2310
Rp2311
(dp2312
g1761
g1769
sg1762
g1791
sg387
S'c:/marmalade/7.10/s3e/h/std/sigcontext.h'
p2313
sbsS'libpng.mkf'
p2314
g361
(g1757
g363
Ntp2315
Rp2316
(dp2317
g1761
g1259
sg1762
(lp2318
g1248
asg387
g1257
sbsS's3eClipboard.h'
p2319
g361
(g1757
g363
Ntp2320
Rp2321
(dp2322
g1761
g1769
sg1762
g1785
sg387
S'c:/marmalade/7.10/s3e/h/s3eClipboard.h'
p2323
sbsS'IwGxFuncTable.h'
p2324
g361
(g1757
g363
Ntp2325
Rp2326
(dp2327
g1761
g1544
sg1762
g1903
sg387
g1586
sbsS'IwResHandlerGROUP.h'
p2328
g361
(g1757
g363
Ntp2329
Rp2330
(dp2331
g1761
g1520
sg1762
g2031
sg387
g1538
sbsS's3eDebug.h'
p2332
g361
(g1757
g363
Ntp2333
Rp2334
(dp2335
g1761
g1769
sg1762
g1785
sg387
S'c:/marmalade/7.10/s3e/h/s3eDebug.h'
p2336
sbsS'socket.h'
p2337
g361
(g1757
g363
Ntp2338
Rp2339
(dp2340
g1761
g1769
sg1762
g1917
sg387
S'c:/marmalade/7.10/s3e/h/std/sys/socket.h'
p2341
sbsS'glext.h'
p2342
g361
(g1757
g363
Ntp2343
Rp2344
(dp2345
g1761
g1769
sg1762
(lp2346
g1771
aS'GL'
p2347
aS'GLES 1.x'
p2348
asg387
S'c:/marmalade/7.10/s3e/h/GLES/glext.h'
p2349
sbsS'typeinfo.h'
p2350
g361
(g1757
g363
Ntp2351
Rp2352
(dp2353
g1761
g1769
sg1762
g1770
sg387
S'c:/marmalade/7.10/s3e/h/std/c++/typeinfo.h'
p2354
sbsS'typeinfo'
p2355
g361
(g1757
g363
Ntp2356
Rp2357
(dp2358
g1761
g1769
sg1762
g1770
sg387
S'c:/marmalade/7.10/s3e/h/std/c++/typeinfo'
p2359
sbsS'iwsound.config.txt'
p2360
g361
(g1757
g363
Ntp2361
Rp2362
(dp2363
g1761
g1284
sg1762
(lp2364
g1280
ag1295
asg387
g1297
sbsS'fstream.h'
p2365
g361
(g1757
g363
Ntp2366
Rp2367
(dp2368
g1761
g1769
sg1762
g1770
sg387
S'c:/marmalade/7.10/s3e/h/std/c++/fstream.h'
p2369
sbsS's3ePointer.h'
p2370
g361
(g1757
g363
Ntp2371
Rp2372
(dp2373
g1761
g1769
sg1762
g1785
sg387
S'c:/marmalade/7.10/s3e/h/s3ePointer.h'
p2374
sbsS'IwMemBucket.h'
p2375
g361
(g1757
g363
Ntp2376
Rp2377
(dp2378
g1761
g1608
sg1762
g1798
sg387
g1704
sbsS'PVRTexTool.h'
p2379
g361
(g1757
g363
Ntp2380
Rp2381
(dp2382
g1761
g1367
sg1762
(lp2383
S'Extensions'
p2384
ag1361
asg387
g1370
sbsS's3eGL.h'
p2385
g361
(g1757
g363
Ntp2386
Rp2387
(dp2388
g1761
g1769
sg1762
g1785
sg387
S'c:/marmalade/7.10/s3e/h/s3eGL.h'
p2389
sbsS'IwGeomFVec2.h'
p2390
g361
(g1757
g363
Ntp2391
Rp2392
(dp2393
g1761
g1444
sg1762
g1823
sg387
g1500
sbsS'IwGeomSVec4.h'
p2394
g361
(g1757
g363
Ntp2395
Rp2396
(dp2397
g1761
g1444
sg1762
g1823
sg387
g1462
sbsS'poll.h'
p2398
g361
(g1757
g363
Ntp2399
Rp2400
(dp2401
g1761
g1769
sg1762
g1791
sg387
S'c:/marmalade/7.10/s3e/h/std/poll.h'
p2402
sbsS'IwMatAnim.h'
p2403
g361
(g1757
g363
Ntp2404
Rp2405
(dp2406
g1761
g1544
sg1762
g1903
sg387
g1572
sbsS'IwGeomFVec4.h'
p2407
g361
(g1757
g363
Ntp2408
Rp2409
(dp2410
g1761
g1444
sg1762
g1823
sg387
g1512
sbsS'IwGx.h'
p2411
g361
(g1757
g363
Ntp2412
Rp2413
(dp2414
g1761
g1544
sg1762
g1903
sg387
g1561
sbsS'valarray'
p2415
g361
(g1757
g363
Ntp2416
Rp2417
(dp2418
g1761
g1769
sg1762
g1770
sg387
S'c:/marmalade/7.10/s3e/h/std/c++/valarray'
p2419
sbsS'iosfwd'
p2420
g361
(g1757
g363
Ntp2421
Rp2422
(dp2423
g1761
g1769
sg1762
g1770
sg387
S'c:/marmalade/7.10/s3e/h/std/c++/iosfwd'
p2424
sbsS'gl2.h'
p2425
g361
(g1757
g363
Ntp2426
Rp2427
(dp2428
g1761
g1769
sg1762
g2023
sg387
S'c:/marmalade/7.10/s3e/h/GLES2/gl2.h'
p2429
sbsS'jpegint.h'
p2430
g361
(g1757
g363
Ntp2431
Rp2432
(dp2433
g1761
g1724
sg1762
g1857
sg387
g1745
sbsS'stdiostream.h'
p2434
g361
(g1757
g363
Ntp2435
Rp2436
(dp2437
g1761
g1769
sg1762
g1770
sg387
S'c:/marmalade/7.10/s3e/h/std/c++/stdiostream.h'
p2438
sbsS'mem.h'
p2439
g361
(g1757
g363
Ntp2440
Rp2441
(dp2442
g1761
g1769
sg1762
g1770
sg387
S'c:/marmalade/7.10/s3e/h/std/c++/mem.h'
p2443
sbsS'jerror.h'
p2444
g361
(g1757
g363
Ntp2445
Rp2446
(dp2447
g1761
g1724
sg1762
g1857
sg387
g1731
sbsS'zconf.h'
p2448
g361
(g1757
g363
Ntp2449
Rp2450
(dp2451
g1761
g1713
sg1762
(lp2452
g1708
ag1250
asg387
g1711
sbsS's3e.config.txt'
p2453
g361
(g1757
g363
Ntp2454
Rp2455
(dp2456
g1761
g1769
sg1762
g1785
sg387
S'c:/marmalade/7.10/s3e/s3e.config.txt'
p2457
sbsS'numeric'
p2458
g361
(g1757
g363
Ntp2459
Rp2460
(dp2461
g1761
g1769
sg1762
g1770
sg387
S'c:/marmalade/7.10/s3e/h/std/c++/numeric'
p2462
sbsS'utime.h'
p2463
g361
(g1757
g363
Ntp2464
Rp2465
(dp2466
g1761
g1769
sg1762
g1791
sg387
S'c:/marmalade/7.10/s3e/h/std/utime.h'
p2467
sbsS'jdhuff.h'
p2468
g361
(g1757
g363
Ntp2469
Rp2470
(dp2471
g1761
g1724
sg1762
g1857
sg387
g1725
sbsS'IwResHandlerWAV.cpp'
p2472
g361
(g1757
g363
Ntp2473
Rp2474
(dp2475
g1761
g1284
sg1762
g1809
sg387
g1311
sbsS'un.h'
p2476
g361
(g1757
g363
Ntp2477
Rp2478
(dp2479
g1761
g1769
sg1762
g1917
sg387
S'c:/marmalade/7.10/s3e/h/std/sys/un.h'
p2480
sbsS'IwImage.h'
p2481
g361
(g1757
g363
Ntp2482
Rp2483
(dp2484
g1761
g1608
sg1762
g1798
sg387
g1613
sbsS's3eImagePicker.h'
p2485
g361
(g1757
g363
Ntp2486
Rp2487
(dp2488
g1761
g1769
sg1762
g1986
sg387
S'c:/marmalade/7.10/s3e/h/ext/s3eImagePicker.h'
p2489
sbsS'stdlib.h'
p2490
g361
(g1757
g363
Ntp2491
Rp2492
(dp2493
g1761
g1769
sg1762
g1791
sg387
S'c:/marmalade/7.10/s3e/h/std/stdlib.h'
p2494
sbsS'IwCopyingPtr.h'
p2495
g361
(g1757
g363
Ntp2496
Rp2497
(dp2498
g1761
g1608
sg1762
g1798
sg387
g1688
sbsS'iostream'
p2499
g361
(g1757
g363
Ntp2500
Rp2501
(dp2502
g1761
g1769
sg1762
g1770
sg387
S'c:/marmalade/7.10/s3e/h/std/c++/iostream'
p2503
sbsS'png.h'
p2504
g361
(g1757
g363
Ntp2505
Rp2506
(dp2507
g1761
g1254
sg1762
(lp2508
g1248
ag1250
asg387
g1252
sbsS'stddef.h'
p2509
g361
(g1757
g363
Ntp2510
Rp2511
(dp2512
g1761
g1769
sg1762
g1791
sg387
S'c:/marmalade/7.10/s3e/h/std/stddef.h'
p2513
sbsS'setjmp_win32.h'
p2514
g361
(g1757
g363
Ntp2515
Rp2516
(dp2517
g1761
g1769
sg1762
g1791
sg387
S'c:/marmalade/7.10/s3e/h/std/setjmp_win32.h'
p2518
sbsS'IwGxPrint.h'
p2519
g361
(g1757
g363
Ntp2520
Rp2521
(dp2522
g1761
g1544
sg1762
g1903
sg387
g1542
sbsS'iwgx_public.defines.txt'
p2523
g361
(g1757
g363
Ntp2524
Rp2525
(dp2526
g1761
g1544
sg1762
g1903
sg387
g1590
sbsS'streambuf.h'
p2527
g361
(g1757
g363
Ntp2528
Rp2529
(dp2530
g1761
g1769
sg1762
g1770
sg387
S'c:/marmalade/7.10/s3e/h/std/c++/streambuf.h'
p2531
sbsS'IwGeomFPlane.h'
p2532
g361
(g1757
g363
Ntp2533
Rp2534
(dp2535
g1761
g1444
sg1762
g1823
sg387
g1486
sbsS'wchar.h'
p2536
g361
(g1757
g363
Ntp2537
Rp2538
(dp2539
g1761
g1769
sg1762
g1791
sg387
S'c:/marmalade/7.10/s3e/h/std/wchar.h'
p2540
sbsS's3eCameraCapture.h'
p2541
g361
(g1757
g363
Ntp2542
Rp2543
(dp2544
g1761
g1769
sg1762
g1986
sg387
S'c:/marmalade/7.10/s3e/h/ext/s3eCameraCapture.h'
p2545
sbsS'eglext.h'
p2546
g361
(g1757
g363
Ntp2547
Rp2548
(dp2549
g1761
g1769
sg1762
g2116
sg387
S'c:/marmalade/7.10/s3e/h/EGL/eglext.h'
p2550
sbsS'IwResHandlerImage.h'
p2551
g361
(g1757
g363
Ntp2552
Rp2553
(dp2554
g1761
g1520
sg1762
g2031
sg387
g1523
sbsS'strstream.h'
p2555
g361
(g1757
g363
Ntp2556
Rp2557
(dp2558
g1761
g1769
sg1762
g1770
sg387
S'c:/marmalade/7.10/s3e/h/std/c++/strstream.h'
p2559
sbsS'tiniconv.h'
p2560
g361
(g1757
g363
Ntp2561
Rp2562
(dp2563
g1761
g1269
sg1762
g2237
sg387
g1267
sbsS'IwGLExt.h'
p2564
g361
(g1757
g363
Ntp2565
Rp2566
(dp2567
g1761
g1401
sg1762
g1779
sg387
g1404
sbsS'app.icf'
p2568
g361
(g1757
g363
Ntp2569
Rp2570
(dp2571
g1761
(dp2572
sg1762
g4
sg387
S'd:/Marmalade/Stage1/data/app.icf'
p2573
sbsS'IwClassFactory.h'
p2574
g361
(g1757
g363
Ntp2575
Rp2576
(dp2577
g1761
g1608
sg1762
g1798
sg387
g1621
sbsS'file.h'
p2578
g361
(g1757
g363
Ntp2579
Rp2580
(dp2581
g1761
g1769
sg1762
g1917
sg387
S'c:/marmalade/7.10/s3e/h/std/sys/file.h'
p2582
sbsS'cstring'
p2583
g361
(g1757
g363
Ntp2584
Rp2585
(dp2586
g1761
g1769
sg1762
g1770
sg387
S'c:/marmalade/7.10/s3e/h/std/c++/cstring'
p2587
sbsS'IwSoundInst.cpp'
p2588
g361
(g1757
g363
Ntp2589
Rp2590
(dp2591
g1761
g1284
sg1762
g1809
sg387
g1313
sbsS'iwutil.config.txt'
p2592
g361
(g1757
g363
Ntp2593
Rp2594
(dp2595
g1761
g1608
sg1762
g1798
sg387
g1690
sbsS's3eSMS.h'
p2596
g361
(g1757
g363
Ntp2597
Rp2598
(dp2599
g1761
g1769
sg1762
g1986
sg387
S'c:/marmalade/7.10/s3e/h/ext/s3eSMS.h'
p2600
sbsS'limits.h'
p2601
g361
(g1757
g363
Ntp2602
Rp2603
(dp2604
g1761
g1769
sg1762
g1791
sg387
S'c:/marmalade/7.10/s3e/h/std/limits.h'
p2605
sbsS'iwgl.config.txt'
p2606
g361
(g1757
g363
Ntp2607
Rp2608
(dp2609
g1761
g1401
sg1762
g1779
sg387
g1402
sbsS'IwMaterial.h'
p2610
g361
(g1757
g363
Ntp2611
Rp2612
(dp2613
g1761
g1544
sg1762
g1903
sg387
g1584
sbsS'amazon-ads-ios-sdk.mkf'
p2614
g361
(g1757
g363
Ntp2615
Rp2616
(dp2617
g1761
g1279
sg1762
(lp2618
g1275
asg387
g1277
sbsS'PVRTexTool_interface.cpp'
p2619
g361
(g1757
g363
Ntp2620
Rp2621
(dp2622
g1761
g1367
sg1762
(lp2623
g2384
ag1361
ag1363
asg387
g1365
sbsS'IwGxSurface.h'
p2624
g361
(g1757
g363
Ntp2625
Rp2626
(dp2627
g1761
g1544
sg1762
g1903
sg387
g1547
sbsS's3eSocket.h'
p2628
g361
(g1757
g363
Ntp2629
Rp2630
(dp2631
g1761
g1769
sg1762
g1785
sg387
S'c:/marmalade/7.10/s3e/h/s3eSocket.h'
p2632
sbsS'IwAutoFile.h'
p2633
g361
(g1757
g363
Ntp2634
Rp2635
(dp2636
g1761
g1608
sg1762
g1798
sg387
g1662
sbsS's3eVibra.h'
p2637
g361
(g1757
g363
Ntp2638
Rp2639
(dp2640
g1761
g1769
sg1762
g1785
sg387
S'c:/marmalade/7.10/s3e/h/s3eVibra.h'
p2641
sbsS'poll_1.h'
p2642
g361
(g1757
g363
Ntp2643
Rp2644
(dp2645
g1761
g1769
sg1762
g1917
sg387
S'c:/marmalade/7.10/s3e/h/std/sys/poll.h'
p2646
sbsS's3eThread.h'
p2647
g361
(g1757
g363
Ntp2648
Rp2649
(dp2650
g1761
g1769
sg1762
g1785
sg387
S'c:/marmalade/7.10/s3e/h/s3eThread.h'
p2651
sbsS'ucontext.h'
p2652
g361
(g1757
g363
Ntp2653
Rp2654
(dp2655
g1761
g1769
sg1762
g1791
sg387
S'c:/marmalade/7.10/s3e/h/std/ucontext.h'
p2656
sbsS'time.h'
p2657
g361
(g1757
g363
Ntp2658
Rp2659
(dp2660
g1761
g1769
sg1762
g1791
sg387
S'c:/marmalade/7.10/s3e/h/std/time.h'
p2661
sbsS'jchuff.h'
p2662
g361
(g1757
g363
Ntp2663
Rp2664
(dp2665
g1761
g1724
sg1762
g1857
sg387
g1743
sbsS'IwSoundPCM.cpp'
p2666
g361
(g1757
g363
Ntp2667
Rp2668
(dp2669
g1761
g1284
sg1762
g1809
sg387
g1285
sbsS's3eSoundRecord.h'
p2670
g361
(g1757
g363
Ntp2671
Rp2672
(dp2673
g1761
g1769
sg1762
g1785
sg387
S'c:/marmalade/7.10/s3e/h/s3eSoundRecord.h'
p2674
sbsS'IwFibre.h'
p2675
g361
(g1757
g363
Ntp2676
Rp2677
(dp2678
g1761
g1608
sg1762
g1798
sg387
g1634
sbsS's3eVersion.h'
p2679
g361
(g1757
g363
Ntp2680
Rp2681
(dp2682
g1761
g1769
sg1762
g1785
sg387
S'c:/marmalade/7.10/s3e/h/s3eVersion.h'
p2683
sbsS'input.cpp'
p2684
g361
(g1757
g363
Ntp2685
Rp2686
(dp2687
g1761
g1336
sg1762
g2197
sg387
g1341
sbsS'IwSoundGroup.h'
p2688
g361
(g1757
g363
Ntp2689
Rp2690
(dp2691
g1761
g1284
sg1762
g1809
sg387
g1330
sbsS'IwSoundWAV.h'
p2692
g361
(g1757
g363
Ntp2693
Rp2694
(dp2695
g1761
g1284
sg1762
g1809
sg387
g1309
sbsS'IwGxFontGlyph.h'
p2696
g361
(g1757
g363
Ntp2697
Rp2698
(dp2699
g1761
g1422
sg1762
g1763
sg387
g1436
sbsS's3eTypes.h'
p2700
g361
(g1757
g363
Ntp2701
Rp2702
(dp2703
g1761
g1769
sg1762
g1785
sg387
S'c:/marmalade/7.10/s3e/h/s3eTypes.h'
p2704
sbsS'IwSoundSpec.h'
p2705
g361
(g1757
g363
Ntp2706
Rp2707
(dp2708
g1761
g1284
sg1762
g1809
sg387
g1289
sbsS'signal_2.h'
p2709
g361
(g1757
g363
Ntp2710
Rp2711
(dp2712
g1761
g1769
sg1762
g1770
sg387
S'c:/marmalade/7.10/s3e/h/std/c++/signal.h'
p2713
sbsS'termios.h'
p2714
g361
(g1757
g363
Ntp2715
Rp2716
(dp2717
g1761
g1769
sg1762
g1791
sg387
S'c:/marmalade/7.10/s3e/h/std/termios.h'
p2718
sbsS's3eAmazonAds_interface.cpp'
p2719
g361
(g1757
g363
Ntp2720
Rp2721
(dp2722
g1761
g1353
sg1762
(lp2723
g1345
ag1347
ag1349
asg387
g1354
sbsS'iw2dscenegraph.mkf'
p2724
g361
(g1757
g363
Ntp2725
Rp2726
(dp2727
g1761
g1389
sg1762
g2073
sg387
g1387
sbsS'slist'
p2728
g361
(g1757
g363
Ntp2729
Rp2730
(dp2731
g1761
g1769
sg1762
g1770
sg387
S'c:/marmalade/7.10/s3e/h/std/c++/slist'
p2732
sbsS'cstdlib'
p2733
g361
(g1757
g363
Ntp2734
Rp2735
(dp2736
g1761
g1769
sg1762
g1770
sg387
S'c:/marmalade/7.10/s3e/h/std/c++/cstdlib'
p2737
sbsS's3eLocation.h'
p2738
g361
(g1757
g363
Ntp2739
Rp2740
(dp2741
g1761
g1769
sg1762
g1785
sg387
S'c:/marmalade/7.10/s3e/h/s3eLocation.h'
p2742
sbsS'IwMemBucketHelpers.h'
p2743
g361
(g1757
g363
Ntp2744
Rp2745
(dp2746
g1761
g1608
sg1762
g1798
sg387
g1619
sbsS's3eHash.h'
p2747
g361
(g1757
g363
Ntp2748
Rp2749
(dp2750
g1761
g1769
sg1762
g1785
sg387
S'c:/marmalade/7.10/s3e/h/s3eHash.h'
p2751
sbsS'IwSoundGroup.cpp'
p2752
g361
(g1757
g363
Ntp2753
Rp2754
(dp2755
g1761
g1284
sg1762
g1809
sg387
g1323
sbsS'IwGeomFMat.h'
p2756
g361
(g1757
g363
Ntp2757
Rp2758
(dp2759
g1761
g1444
sg1762
g1823
sg387
g1502
sbsS'type_traits.h'
p2760
g361
(g1757
g363
Ntp2761
Rp2762
(dp2763
g1761
g1769
sg1762
g1770
sg387
S'c:/marmalade/7.10/s3e/h/std/c++/type_traits.h'
p2764
sbsS's3eAtomic.h'
p2765
g361
(g1757
g363
Ntp2766
Rp2767
(dp2768
g1761
g1769
sg1762
g1785
sg387
S'c:/marmalade/7.10/s3e/h/s3eAtomic.h'
p2769
sbsS'IwMenu.h'
p2770
g361
(g1757
g363
Ntp2771
Rp2772
(dp2773
g1761
g1608
sg1762
g1798
sg387
g1615
sbsS'IwResHandlerITX.h'
p2774
g361
(g1757
g363
Ntp2775
Rp2776
(dp2777
g1761
g1520
sg1762
g2031
sg387
g1525
sbsS'IwSoundData.h'
p2778
g361
(g1757
g363
Ntp2779
Rp2780
(dp2781
g1761
g1284
sg1762
g1809
sg387
g1319
sbsS'IwArray.h'
p2782
g361
(g1757
g363
Ntp2783
Rp2784
(dp2785
g1761
g1608
sg1762
g1798
sg387
g1617
sbsS'IwUTF8.h'
p2786
g361
(g1757
g363
Ntp2787
Rp2788
(dp2789
g1761
g1608
sg1762
g1798
sg387
g1698
sbsS'math_rvct.h'
p2790
g361
(g1757
g363
Ntp2791
Rp2792
(dp2793
g1761
g1769
sg1762
g1791
sg387
S'c:/marmalade/7.10/s3e/h/std/math_rvct.h'
p2794
sbsS'IwUtil.h'
p2795
g361
(g1757
g363
Ntp2796
Rp2797
(dp2798
g1761
g1608
sg1762
g1798
sg387
g1632
sbsS'IwFColour.h'
p2799
g361
(g1757
g363
Ntp2800
Rp2801
(dp2802
g1761
g1544
sg1762
g1903
sg387
g1588
sbsS's3eamazonads.mkf'
p2803
g361
(g1757
g363
Ntp2804
Rp2805
(dp2806
g1761
g1358
sg1762
(lp2807
g1345
ag1347
asg387
g1356
sbsS'wctype.h'
p2808
g361
(g1757
g363
Ntp2809
Rp2810
(dp2811
g1761
g1769
sg1762
g1791
sg387
S'c:/marmalade/7.10/s3e/h/std/wctype.h'
p2812
sbsS'cstddef'
p2813
g361
(g1757
g363
Ntp2814
Rp2815
(dp2816
g1761
g1769
sg1762
g1770
sg387
S'c:/marmalade/7.10/s3e/h/std/c++/cstddef'
p2817
sbsS'assert.h'
p2818
g361
(g1757
g363
Ntp2819
Rp2820
(dp2821
g1761
g1769
sg1762
g1791
sg387
S'c:/marmalade/7.10/s3e/h/std/assert.h'
p2822
sbsS'mman.h'
p2823
g361
(g1757
g363
Ntp2824
Rp2825
(dp2826
g1761
g1769
sg1762
g1917
sg387
S'c:/marmalade/7.10/s3e/h/std/sys/mman.h'
p2827
sbsS'IwRandom.h'
p2828
g361
(g1757
g363
Ntp2829
Rp2830
(dp2831
g1761
g1608
sg1762
g1798
sg387
g1674
sbsS'libgen.h'
p2832
g361
(g1757
g363
Ntp2833
Rp2834
(dp2835
g1761
g1769
sg1762
g1791
sg387
S'c:/marmalade/7.10/s3e/h/std/libgen.h'
p2836
sbsS'utsname.h'
p2837
g361
(g1757
g363
Ntp2838
Rp2839
(dp2840
g1761
g1769
sg1762
g1917
sg387
S'c:/marmalade/7.10/s3e/h/std/sys/utsname.h'
p2841
sbsS'wait.h'
p2842
g361
(g1757
g363
Ntp2843
Rp2844
(dp2845
g1761
g1769
sg1762
g1917
sg387
S'c:/marmalade/7.10/s3e/h/std/sys/wait.h'
p2846
sbsS'param.h'
p2847
g361
(g1757
g363
Ntp2848
Rp2849
(dp2850
g1761
g1769
sg1762
g1917
sg387
S'c:/marmalade/7.10/s3e/h/std/sys/param.h'
p2851
sbsS'IwDivide.h'
p2852
g361
(g1757
g363
Ntp2853
Rp2854
(dp2855
g1761
g1608
sg1762
g1798
sg387
g1626
sbsS'Iw2DSceneGraphCore.cpp'
p2856
g361
(g1757
g363
Ntp2857
Rp2858
(dp2859
g1761
g1601
sg1762
(lp2860
S"'Marmalade Studio'"
p2861
ag1594
asg387
g1602
sbsS'IwResManager.h'
p2862
g361
(g1757
g363
Ntp2863
Rp2864
(dp2865
g1761
g1520
sg1762
g2031
sg387
g1527
sbsS'IwSoundManager.h'
p2866
g361
(g1757
g363
Ntp2867
Rp2868
(dp2869
g1761
g1284
sg1762
g1809
sg387
g1293
sbsS'cwctype'
p2870
g361
(g1757
g363
Ntp2871
Rp2872
(dp2873
g1761
g1769
sg1762
g1770
sg387
S'c:/marmalade/7.10/s3e/h/std/c++/cwctype'
p2874
sbsS'set'
p2875
g361
(g1757
g363
Ntp2876
Rp2877
(dp2878
g1761
g1769
sg1762
g1770
sg387
S'c:/marmalade/7.10/s3e/h/std/c++/set'
p2879
sbsS'IwGeomSQuat.h'
p2880
g361
(g1757
g363
Ntp2881
Rp2882
(dp2883
g1761
g1444
sg1762
g1823
sg387
g1488
sbsS'locale'
p2884
g361
(g1757
g363
Ntp2885
Rp2886
(dp2887
g1761
g1769
sg1762
g1770
sg387
S'c:/marmalade/7.10/s3e/h/std/c++/locale'
p2888
sbsS'cstdio'
p2889
g361
(g1757
g363
Ntp2890
Rp2891
(dp2892
g1761
g1769
sg1762
g1770
sg387
S'c:/marmalade/7.10/s3e/h/std/c++/cstdio'
p2893
sbsS'cdjpeg.h'
p2894
g361
(g1757
g363
Ntp2895
Rp2896
(dp2897
g1761
g1724
sg1762
g1857
sg387
g1729
sbsS'audio.h'
p2898
g361
(g1757
g363
Ntp2899
Rp2900
(dp2901
g1761
g1336
sg1762
g2197
sg387
g1337
sbsS'IwList.h'
p2902
g361
(g1757
g363
Ntp2903
Rp2904
(dp2905
g1761
g1608
sg1762
g1798
sg387
g1670
sbsS'inttypes.h'
p2906
g361
(g1757
g363
Ntp2907
Rp2908
(dp2909
g1761
g1769
sg1762
g1791
sg387
S'c:/marmalade/7.10/s3e/h/std/inttypes.h'
p2910
sbsS'dirent.h'
p2911
g361
(g1757
g363
Ntp2912
Rp2913
(dp2914
g1761
g1769
sg1762
g1791
sg387
S'c:/marmalade/7.10/s3e/h/std/dirent.h'
p2915
sbsS'IwGeomVec3.h'
p2916
g361
(g1757
g363
Ntp2917
Rp2918
(dp2919
g1761
g1444
sg1762
g1823
sg387
g1472
sbsS'transupp.h'
p2920
g361
(g1757
g363
Ntp2921
Rp2922
(dp2923
g1761
g1724
sg1762
g1857
sg387
g1727
sbsS'IwMath.h'
p2924
g361
(g1757
g363
Ntp2925
Rp2926
(dp2927
g1761
g1608
sg1762
g1798
sg387
g1644
sbsS'IwGeomQuat.h'
p2928
g361
(g1757
g363
Ntp2929
Rp2930
(dp2931
g1761
g1444
sg1762
g1823
sg387
g1442
sbsS'glplatform.h'
p2932
g361
(g1757
g363
Ntp2933
Rp2934
(dp2935
g1761
g1769
sg1762
g2346
sg387
S'c:/marmalade/7.10/s3e/h/GLES/glplatform.h'
p2936
sbsS's3e-default.mkf'
p2937
g361
(g1757
g363
Ntp2938
Rp2939
(dp2940
g1761
g1379
sg1762
(lp2941
g1375
asg387
g1377
sbsS'bitset'
p2942
g361
(g1757
g363
Ntp2943
Rp2944
(dp2945
g1761
g1769
sg1762
g1770
sg387
S'c:/marmalade/7.10/s3e/h/std/c++/bitset'
p2946
sbsS'alloca.h'
p2947
g361
(g1757
g363
Ntp2948
Rp2949
(dp2950
g1761
g1769
sg1762
g1791
sg387
S'c:/marmalade/7.10/s3e/h/std/alloca.h'
p2951
sbsS'IwResHandler.h'
p2952
g361
(g1757
g363
Ntp2953
Rp2954
(dp2955
g1761
g1520
sg1762
g2031
sg387
g1518
sbsS'IwResHandlerMTL.h'
p2956
g361
(g1757
g363
Ntp2957
Rp2958
(dp2959
g1761
g1544
sg1762
g1903
sg387
g1582
sbsS'IwRuntime.h'
p2960
g361
(g1757
g363
Ntp2961
Rp2962
(dp2963
g1761
g1608
sg1762
g1798
sg387
g1696
sbsS'limits'
p2964
g361
(g1757
g363
Ntp2965
Rp2966
(dp2967
g1761
g1769
sg1762
g1770
sg387
S'c:/marmalade/7.10/s3e/h/std/c++/limits'
p2968
sbsS'IwGeomBBox.h'
p2969
g361
(g1757
g363
Ntp2970
Rp2971
(dp2972
g1761
g1444
sg1762
g1823
sg387
g1492
sbsS's3eContacts.h'
p2973
g361
(g1757
g363
Ntp2974
Rp2975
(dp2976
g1761
g1769
sg1762
g1785
sg387
S'c:/marmalade/7.10/s3e/h/s3eContacts.h'
p2977
sbsS's3eLicense.h'
p2978
g361
(g1757
g363
Ntp2979
Rp2980
(dp2981
g1761
g1769
sg1762
g1785
sg387
S'c:/marmalade/7.10/s3e/h/s3eLicense.h'
p2982
sbsS'iwgx.config.txt'
p2983
g361
(g1757
g363
Ntp2984
Rp2985
(dp2986
g1761
g1544
sg1762
g1903
sg387
g1555
sbsS'IwTextParser.h'
p2987
g361
(g1757
g363
Ntp2988
Rp2989
(dp2990
g1761
g1608
sg1762
g1798
sg387
g1648
sbsS's3eTimer.h'
p2991
g361
(g1757
g363
Ntp2992
Rp2993
(dp2994
g1761
g1769
sg1762
g1785
sg387
S'c:/marmalade/7.10/s3e/h/s3eTimer.h'
p2995
sbsS'IwGeomVec.h'
p2996
g361
(g1757
g363
Ntp2997
Rp2998
(dp2999
g1761
g1444
sg1762
g1823
sg387
g1496
sbsS'IwSerialise.h'
p3000
g361
(g1757
g363
Ntp3001
Rp3002
(dp3003
g1761
g1608
sg1762
g1798
sg387
g1642
sbsS'cstdarg'
p3004
g361
(g1757
g363
Ntp3005
Rp3006
(dp3007
g1761
g1769
sg1762
g1770
sg387
S'c:/marmalade/7.10/s3e/h/std/c++/cstdarg'
p3008
sbsS'gl2ext.h'
p3009
g361
(g1757
g363
Ntp3010
Rp3011
(dp3012
g1761
g1769
sg1762
g2023
sg387
S'c:/marmalade/7.10/s3e/h/GLES2/gl2ext.h'
p3013
sbsS'IwChar.h'
p3014
g361
(g1757
g363
Ntp3015
Rp3016
(dp3017
g1761
g1608
sg1762
g1798
sg387
g1658
sbsS's3eSound.h'
p3018
g361
(g1757
g363
Ntp3019
Rp3020
(dp3021
g1761
g1769
sg1762
g1785
sg387
S'c:/marmalade/7.10/s3e/h/s3eSound.h'
p3022
sbsS'IwOptimiseThumb.h'
p3023
g361
(g1757
g363
Ntp3024
Rp3025
(dp3026
g1761
g1608
sg1762
g1798
sg387
g1660
sbsS'exception.h'
p3027
g361
(g1757
g363
Ntp3028
Rp3029
(dp3030
g1761
g1769
sg1762
g1770
sg387
S'c:/marmalade/7.10/s3e/h/std/c++/exception.h'
p3031
sbsS'iwgeom.config.txt'
p3032
g361
(g1757
g363
Ntp3033
Rp3034
(dp3035
g1761
g1444
sg1762
g1823
sg387
g1453
sbsS'gl31.h'
p3036
g361
(g1757
g363
Ntp3037
Rp3038
(dp3039
g1761
g1769
sg1762
g2084
sg387
S'c:/marmalade/7.10/s3e/h/GLES3/gl31.h'
p3040
sbsS'gl.h'
p3041
g361
(g1757
g363
Ntp3042
Rp3043
(dp3044
g1761
g1769
sg1762
g2346
sg387
S'c:/marmalade/7.10/s3e/h/GLES/gl.h'
p3045
sbsS'zlib.h'
p3046
g361
(g1757
g363
Ntp3047
Rp3048
(dp3049
g1761
g1713
sg1762
g2452
sg387
g1714
sbsS'temp_defines_release.h'
p3050
g361
(g1757
g363
Ntp3051
Rp3052
(dp3053
g1761
(lp3054
sg1762
(lp3055
S"'generated files'"
p3056
asg387
S'd:/Marmalade/Stage1/build_stage1_vc14/temp_defines_release.h'
p3057
sbsS'iwgl.mkf'
p3058
g361
(g1757
g363
Ntp3059
Rp3060
(dp3061
g1761
g1398
sg1762
g1779
sg387
g1396
sbsS'IwColour.h'
p3062
g361
(g1757
g363
Ntp3063
Rp3064
(dp3065
g1761
g1544
sg1762
g1903
sg387
g1557
sbsS's3eLibrary.h'
p3066
g361
(g1757
g363
Ntp3067
Rp3068
(dp3069
g1761
g1769
sg1762
g1986
sg387
S'c:/marmalade/7.10/s3e/h/ext/s3eLibrary.h'
p3070
sbsS'types.h'
p3071
g361
(g1757
g363
Ntp3072
Rp3073
(dp3074
g1761
g1769
sg1762
g1917
sg387
S'c:/marmalade/7.10/s3e/h/std/sys/types.h'
p3075
sbsS'ifaddrs.h'
p3076
g361
(g1757
g363
Ntp3077
Rp3078
(dp3079
g1761
g1769
sg1762
g1791
sg387
S'c:/marmalade/7.10/s3e/h/std/ifaddrs.h'
p3080
sbsS'strstream'
p3081
g361
(g1757
g363
Ntp3082
Rp3083
(dp3084
g1761
g1769
sg1762
g1770
sg387
S'c:/marmalade/7.10/s3e/h/std/c++/strstream'
p3085
sbsS'Stage1.cpp'
p3086
g361
(g1757
g363
Ntp3087
Rp3088
(dp3089
g1761
g1336
sg1762
g2197
sg387
g1339
sbsS'exception'
p3090
g361
(g1757
g363
Ntp3091
Rp3092
(dp3093
g1761
g1769
sg1762
g1770
sg387
S'c:/marmalade/7.10/s3e/h/std/c++/exception'
p3094
sbsS's3eAmazonAds.defines.txt'
p3095
g361
(g1757
g363
Ntp3096
Rp3097
(dp3098
g1761
g1353
sg1762
g2723
sg387
g1351
sbsS'rlocks.h'
p3099
g361
(g1757
g363
Ntp3100
Rp3101
(dp3102
g1761
g1769
sg1762
g1770
sg387
S'c:/marmalade/7.10/s3e/h/std/c++/rlocks.h'
p3103
sbsS'ioctl.h'
p3104
g361
(g1757
g363
Ntp3105
Rp3106
(dp3107
g1761
g1769
sg1762
g1917
sg387
S'c:/marmalade/7.10/s3e/h/std/sys/ioctl.h'
p3108
sbsS'rope'
p3109
g361
(g1757
g363
Ntp3110
Rp3111
(dp3112
g1761
g1769
sg1762
g1770
sg387
S'c:/marmalade/7.10/s3e/h/std/c++/rope'
p3113
sbsS'jinclude.h'
p3114
g361
(g1757
g363
Ntp3115
Rp3116
(dp3117
g1761
g1724
sg1762
g1857
sg387
g1747
sbsS'IwEvent.h'
p3118
g361
(g1757
g363
Ntp3119
Rp3120
(dp3121
g1761
g1608
sg1762
g1798
sg387
g1694
sbsS'IwOptimiseSize.h'
p3122
g361
(g1757
g363
Ntp3123
Rp3124
(dp3125
g1761
g1608
sg1762
g1798
sg387
g1684
sbsS'iwgxfont_public.defines.txt'
p3126
g361
(g1757
g363
Ntp3127
Rp3128
(dp3129
g1761
g1422
sg1762
g1763
sg387
g1432
sbsS'iconv.h'
p3130
g361
(g1757
g363
Ntp3131
Rp3132
(dp3133
g1761
g1769
sg1762
g1791
sg387
S'c:/marmalade/7.10/s3e/h/std/iconv.h'
p3134
sbsS'sendfile.h'
p3135
g361
(g1757
g363
Ntp3136
Rp3137
(dp3138
g1761
g1769
sg1762
g1917
sg387
S'c:/marmalade/7.10/s3e/h/std/sys/sendfile.h'
p3139
sbsS'IwGeomSphere.h'
p3140
g361
(g1757
g363
Ntp3141
Rp3142
(dp3143
g1761
g1444
sg1762
g1823
sg387
g1478
sbsS'tiniconv.mkf'
p3144
g361
(g1757
g363
Ntp3145
Rp3146
(dp3147
g1761
g1274
sg1762
g2237
sg387
g1272
sbsS'iw2dscenegraph.defines.txt'
p3148
g361
(g1757
g363
Ntp3149
Rp3150
(dp3151
g1761
g1386
sg1762
g2073
sg387
g1392
sbsS'jdct.h'
p3152
g361
(g1757
g363
Ntp3153
Rp3154
(dp3155
g1761
g1724
sg1762
g1857
sg387
g1737
sbsS'cctype'
p3156
g361
(g1757
g363
Ntp3157
Rp3158
(dp3159
g1761
g1769
sg1762
g1770
sg387
S'c:/marmalade/7.10/s3e/h/std/c++/cctype'
p3160
sbsS'IwSoundADPCM.cpp'
p3161
g361
(g1757
g363
Ntp3162
Rp3163
(dp3164
g1761
g1284
sg1762
g1809
sg387
g1305
sbsS's3eConfig.h'
p3165
g361
(g1757
g363
Ntp3166
Rp3167
(dp3168
g1761
g1769
sg1762
g1785
sg387
S'c:/marmalade/7.10/s3e/h/s3eConfig.h'
p3169
sbsS'IwHashString.h'
p3170
g361
(g1757
g363
Ntp3171
Rp3172
(dp3173
g1761
g1608
sg1762
g1798
sg387
g1638
sbsS'stat.h'
p3174
g361
(g1757
g363
Ntp3175
Rp3176
(dp3177
g1761
g1769
sg1762
g1917
sg387
S'c:/marmalade/7.10/s3e/h/std/sys/stat.h'
p3178
sbsS'byteswap.h'
p3179
g361
(g1757
g363
Ntp3180
Rp3181
(dp3182
g1761
g1769
sg1762
g1791
sg387
S'c:/marmalade/7.10/s3e/h/std/byteswap.h'
p3183
sbsS'iwresmanager.mkf'
p3184
g361
(g1757
g363
Ntp3185
Rp3186
(dp3187
g1761
g1533
sg1762
g2031
sg387
g1531
sbsS'IwUtilInitTerm.h'
p3188
g361
(g1757
g363
Ntp3189
Rp3190
(dp3191
g1761
g1608
sg1762
g1798
sg387
g1692
sbsS'pthread_1.h'
p3192
g361
(g1757
g363
Ntp3193
Rp3194
(dp3195
g1761
g1769
sg1762
g1770
sg387
S'c:/marmalade/7.10/s3e/h/std/c++/pthread.h'
p3196
sbsS'iw2d.mkf'
p3197
g361
(g1757
g363
Ntp3198
Rp3199
(dp3200
g1761
g1410
sg1762
g1862
sg387
g1408
sbsS'complex'
p3201
g361
(g1757
g363
Ntp3202
Rp3203
(dp3204
g1761
g1769
sg1762
g1770
sg387
S'c:/marmalade/7.10/s3e/h/std/c++/complex'
p3205
sbsS'algorithm'
p3206
g361
(g1757
g363
Ntp3207
Rp3208
(dp3209
g1761
g1769
sg1762
g1770
sg387
S'c:/marmalade/7.10/s3e/h/std/c++/algorithm'
p3210
sbsS's3e.icf'
p3211
g361
(g1757
g363
Ntp3212
Rp3213
(dp3214
g1761
g1769
sg1762
g1785
sg387
S'c:/marmalade/7.10/s3e/s3e.icf'
p3215
sbsS'IwVariableBitField.h'
p3216
g361
(g1757
g363
Ntp3217
Rp3218
(dp3219
g1761
g1608
sg1762
g1798
sg387
g1686
sbsS'sem.h'
p3220
g361
(g1757
g363
Ntp3221
Rp3222
(dp3223
g1761
g1769
sg1762
g1917
sg387
S'c:/marmalade/7.10/s3e/h/std/sys/sem.h'
p3224
sbsS'IwGxFontState.h'
p3225
g361
(g1757
g363
Ntp3226
Rp3227
(dp3228
g1761
g1422
sg1762
g1763
sg387
g1430
sbsS'stdio.h'
p3229
g361
(g1757
g363
Ntp3230
Rp3231
(dp3232
g1761
g1769
sg1762
g1791
sg387
S'c:/marmalade/7.10/s3e/h/std/stdio.h'
p3233
sbsS'jmemsys.h'
p3234
g361
(g1757
g363
Ntp3235
Rp3236
(dp3237
g1761
g1724
sg1762
g1857
sg387
g1741
sbsS'ios'
p3238
g361
(g1757
g363
Ntp3239
Rp3240
(dp3241
g1761
g1769
sg1762
g1770
sg387
S'c:/marmalade/7.10/s3e/h/std/c++/ios'
p3242
sbsS'PVRTexTool.defines.txt'
p3243
g361
(g1757
g363
Ntp3244
Rp3245
(dp3246
g1761
g1367
sg1762
g2623
sg387
g1368
sbsS'stack'
p3247
g361
(g1757
g363
Ntp3248
Rp3249
(dp3250
g1761
g1769
sg1762
g1770
sg387
S'c:/marmalade/7.10/s3e/h/std/c++/stack'
p3251
sbsS'IwSoundParams.h'
p3252
g361
(g1757
g363
Ntp3253
Rp3254
(dp3255
g1761
g1284
sg1762
g1809
sg387
g1303
sbsS'new.h'
p3256
g361
(g1757
g363
Ntp3257
Rp3258
(dp3259
g1761
g1769
sg1762
g1770
sg387
S'c:/marmalade/7.10/s3e/h/std/c++/new.h'
p3260
sbsS's3eAmazonAds.h'
p3261
g361
(g1757
g363
Ntp3262
Rp3263
(dp3264
g1761
g1353
sg1762
g2807
sg387
g1359
sbsS's3eEMail.h'
p3265
g361
(g1757
g363
Ntp3266
Rp3267
(dp3268
g1761
g1769
sg1762
g1986
sg387
S'c:/marmalade/7.10/s3e/h/ext/s3eEMail.h'
p3269
sbsS's3eVideo.h'
p3270
g361
(g1757
g363
Ntp3271
Rp3272
(dp3273
g1761
g1769
sg1762
g1785
sg387
S'c:/marmalade/7.10/s3e/h/s3eVideo.h'
p3274
sbsS'pngconf.h'
p3275
g361
(g1757
g363
Ntp3276
Rp3277
(dp3278
g1761
g1254
sg1762
g2508
sg387
g1255
sbsS'pwd.h'
p3279
g361
(g1757
g363
Ntp3280
Rp3281
(dp3282
g1761
g1769
sg1762
g1791
sg387
S'c:/marmalade/7.10/s3e/h/std/pwd.h'
p3283
sbsS'gl3.h'
p3284
g361
(g1757
g363
Ntp3285
Rp3286
(dp3287
g1761
g1769
sg1762
g2084
sg387
S'c:/marmalade/7.10/s3e/h/GLES3/gl3.h'
p3288
sbsS'IwClip.h'
p3289
g361
(g1757
g363
Ntp3290
Rp3291
(dp3292
g1761
g1544
sg1762
g1903
sg387
g1553
sbsS'IwSoundInst.h'
p3293
g361
(g1757
g363
Ntp3294
Rp3295
(dp3296
g1761
g1284
sg1762
g1809
sg387
g1282
sbsS'iwresmanager.config.txt'
p3297
g361
(g1757
g363
Ntp3298
Rp3299
(dp3300
g1761
g1520
sg1762
g2031
sg387
g1521
sbsS'IwGxShaderTechnique.h'
p3301
g361
(g1757
g363
Ntp3302
Rp3303
(dp3304
g1761
g1544
sg1762
g1903
sg387
g1592
sbsS'IwCore.h'
p3305
g361
(g1757
g363
Ntp3306
Rp3307
(dp3308
g1761
g1608
sg1762
g1798
sg387
g1654
sbsS'cfloat'
p3309
g361
(g1757
g363
Ntp3310
Rp3311
(dp3312
g1761
g1769
sg1762
g1770
sg387
S'c:/marmalade/7.10/s3e/h/std/c++/cfloat'
p3313
sbsS'IwGeomMat2D.h'
p3314
g361
(g1757
g363
Ntp3315
Rp3316
(dp3317
g1761
g1444
sg1762
g1823
sg387
g1508
sbsS'IwAllocator.h'
p3318
g361
(g1757
g363
Ntp3319
Rp3320
(dp3321
g1761
g1608
sg1762
g1798
sg387
g1656
sbsS'IwPath.h'
p3322
g361
(g1757
g363
Ntp3323
Rp3324
(dp3325
g1761
g1608
sg1762
g1798
sg387
g1609
sbsS'iwgxfont.mkf'
p3326
g361
(g1757
g363
Ntp3327
Rp3328
(dp3329
g1761
g1427
sg1762
g1763
sg387
g1425
sbsS'IwTexture.h'
p3330
g361
(g1757
g363
Ntp3331
Rp3332
(dp3333
g1761
g1544
sg1762
g1903
sg387
g1576
sbsS'IwGeomVec.h.tpl'
p3334
g361
(g1757
g363
Ntp3335
Rp3336
(dp3337
g1761
g1444
sg1762
g1823
sg387
g1451
sbsS's3eAccelerometer.h'
p3338
g361
(g1757
g363
Ntp3339
Rp3340
(dp3341
g1761
g1769
sg1762
g1785
sg387
S'c:/marmalade/7.10/s3e/h/s3eAccelerometer.h'
p3342
sbsS'setjmp.h'
p3343
g361
(g1757
g363
Ntp3344
Rp3345
(dp3346
g1761
g1769
sg1762
g1791
sg387
S'c:/marmalade/7.10/s3e/h/std/setjmp.h'
p3347
sbsS'IwSoundParams.cpp'
p3348
g361
(g1757
g363
Ntp3349
Rp3350
(dp3351
g1761
g1284
sg1762
g1809
sg387
g1321
sbsS'IwFile.h'
p3352
g361
(g1757
g363
Ntp3353
Rp3354
(dp3355
g1761
g1608
sg1762
g1798
sg387
g1611
sbsS'IwTextParseable.h'
p3356
g361
(g1757
g363
Ntp3357
Rp3358
(dp3359
g1761
g1608
sg1762
g1798
sg387
g1680
sbsS'istream.h'
p3360
g361
(g1757
g363
Ntp3361
Rp3362
(dp3363
g1761
g1769
sg1762
g1770
sg387
S'c:/marmalade/7.10/s3e/h/std/c++/istream.h'
p3364
sbsS'stdint.h'
p3365
g361
(g1757
g363
Ntp3366
Rp3367
(dp3368
g1761
g1769
sg1762
g1791
sg387
S'c:/marmalade/7.10/s3e/h/std/stdint.h'
p3369
sbsS'semaphore.h'
p3370
g361
(g1757
g363
Ntp3371
Rp3372
(dp3373
g1761
g1769
sg1762
g1791
sg387
S'c:/marmalade/7.10/s3e/h/std/semaphore.h'
p3374
sbsS'ctime'
p3375
g361
(g1757
g363
Ntp3376
Rp3377
(dp3378
g1761
g1769
sg1762
g1770
sg387
S'c:/marmalade/7.10/s3e/h/std/c++/ctime'
p3379
sbsS'sstream'
p3380
g361
(g1757
g363
Ntp3381
Rp3382
(dp3383
g1761
g1769
sg1762
g1770
sg387
S'c:/marmalade/7.10/s3e/h/std/c++/sstream'
p3384
sbsS'IwGeomFBBox.h'
p3385
g361
(g1757
g363
Ntp3386
Rp3387
(dp3388
g1761
g1444
sg1762
g1823
sg387
g1455
sbsS'IwDebugPrim.h'
p3389
g361
(g1757
g363
Ntp3390
Rp3391
(dp3392
g1761
g1544
sg1762
g1903
sg387
g1563
sbsS'IwGxFontContainer.h'
p3393
g361
(g1757
g363
Ntp3394
Rp3395
(dp3396
g1761
g1422
sg1762
g1763
sg387
g1434
sbsS'IwGeomSVec3.h'
p3397
g361
(g1757
g363
Ntp3398
Rp3399
(dp3400
g1761
g1444
sg1762
g1823
sg387
g1466
sbsS'iw2dscenegraphcore.mkf'
p3401
g361
(g1757
g363
Ntp3402
Rp3403
(dp3404
g1761
g1598
sg1762
g2860
sg387
g1596
sbsS's3eExt.h'
p3405
g361
(g1757
g363
Ntp3406
Rp3407
(dp3408
g1761
g1769
sg1762
g1785
sg387
S'c:/marmalade/7.10/s3e/h/s3eExt.h'
p3409
sbsS'IwGeomFVec3.h'
p3410
g361
(g1757
g363
Ntp3411
Rp3412
(dp3413
g1761
g1444
sg1762
g1823
sg387
g1506
sbsS'streambuf'
p3414
g361
(g1757
g363
Ntp3415
Rp3416
(dp3417
g1761
g1769
sg1762
g1770
sg387
S'c:/marmalade/7.10/s3e/h/std/c++/streambuf'
p3418
sbsS's3eMetrics.h'
p3419
g361
(g1757
g363
Ntp3420
Rp3421
(dp3422
g1761
g1769
sg1762
g1986
sg387
S'c:/marmalade/7.10/s3e/h/ext/s3eMetrics.h'
p3423
sbsS'IwGxFont.h'
p3424
g361
(g1757
g363
Ntp3425
Rp3426
(dp3427
g1761
g1422
sg1762
g1763
sg387
g1420
sbsS's3eSecureStorage.h'
p3428
g361
(g1757
g363
Ntp3429
Rp3430
(dp3431
g1761
g1769
sg1762
g1785
sg387
S'c:/marmalade/7.10/s3e/h/s3eSecureStorage.h'
p3432
sbsS'string.h'
p3433
g361
(g1757
g363
Ntp3434
Rp3435
(dp3436
g1761
g1769
sg1762
g1791
sg387
S'c:/marmalade/7.10/s3e/h/std/string.h'
p3437
sbsS'IwResource.h'
p3438
g361
(g1757
g363
Ntp3439
Rp3440
(dp3441
g1761
g1608
sg1762
g1798
sg387
g1682
sbsS'IwGeomSVec2.h'
p3442
g361
(g1757
g363
Ntp3443
Rp3444
(dp3445
g1761
g1444
sg1762
g1823
sg387
g1490
sbsS'libjpeg.mkf'
p3446
g361
(g1757
g363
Ntp3447
Rp3448
(dp3449
g1761
g1753
sg1762
(lp3450
g1719
asg387
g1751
sbsS'IwGxDebug.h'
p3451
g361
(g1757
g363
Ntp3452
Rp3453
(dp3454
g1761
g1544
sg1762
g1903
sg387
g1551
sbsS'float.h'
p3455
g361
(g1757
g363
Ntp3456
Rp3457
(dp3458
g1761
g1769
sg1762
g1791
sg387
S'c:/marmalade/7.10/s3e/h/std/float.h'
p3459
sbsS'iomanip.h'
p3460
g361
(g1757
g363
Ntp3461
Rp3462
(dp3463
g1761
g1769
sg1762
g1770
sg387
S'c:/marmalade/7.10/s3e/h/std/c++/iomanip.h'
p3464
sbsS'IwKeymap.h'
p3465
g361
(g1757
g363
Ntp3466
Rp3467
(dp3468
g1761
g1608
sg1762
g1798
sg387
g1652
sbsS'IwDebug.h'
p3469
g361
(g1757
g363
Ntp3470
Rp3471
(dp3472
g1761
g1608
sg1762
g1798
sg387
g1678
sbsS's3eIOSBackgroundAudio.h'
p3473
g361
(g1757
g363
Ntp3474
Rp3475
(dp3476
g1761
g1769
sg1762
g1986
sg387
S'c:/marmalade/7.10/s3e/h/ext/s3eIOSBackgroundAudio.h'
p3477
sbsS'IwGeomMenu.h'
p3478
g361
(g1757
g363
Ntp3479
Rp3480
(dp3481
g1761
g1444
sg1762
g1823
sg387
g1498
sbsS'IwDivTable.h'
p3482
g361
(g1757
g363
Ntp3483
Rp3484
(dp3485
g1761
g1608
sg1762
g1798
sg387
g1606
sbsS'ctype.h'
p3486
g361
(g1757
g363
Ntp3487
Rp3488
(dp3489
g1761
g1769
sg1762
g1791
sg387
S'c:/marmalade/7.10/s3e/h/std/ctype.h'
p3490
sbsS'IwGeomMat.h'
p3491
g361
(g1757
g363
Ntp3492
Rp3493
(dp3494
g1761
g1444
sg1762
g1823
sg387
g1510
sbsS'IwResGroup.h'
p3495
g361
(g1757
g363
Ntp3496
Rp3497
(dp3498
g1761
g1520
sg1762
g2031
sg387
g1536
sbsS'signal_1.h'
p3499
g361
(g1757
g363
Ntp3500
Rp3501
(dp3502
g1761
g1769
sg1762
g1917
sg387
S'c:/marmalade/7.10/s3e/h/std/sys/signal.h'
p3503
sbsS'IwSoundData.cpp'
p3504
g361
(g1757
g363
Ntp3505
Rp3506
(dp3507
g1761
g1284
sg1762
g1809
sg387
g1315
sbsS'functional'
p3508
g361
(g1757
g363
Ntp3509
Rp3510
(dp3511
g1761
g1769
sg1762
g1770
sg387
S'c:/marmalade/7.10/s3e/h/std/c++/functional'
p3512
sbsS'shm.h'
p3513
g361
(g1757
g363
Ntp3514
Rp3515
(dp3516
g1761
g1769
sg1762
g1917
sg387
S'c:/marmalade/7.10/s3e/h/std/sys/shm.h'
p3517
sbsS'IwManagedList.h'
p3518
g361
(g1757
g363
Ntp3519
Rp3520
(dp3521
g1761
g1608
sg1762
g1798
sg387
g1630
sbsS'prctl.h'
p3522
g361
(g1757
g363
Ntp3523
Rp3524
(dp3525
g1761
g1769
sg1762
g1917
sg387
S'c:/marmalade/7.10/s3e/h/std/sys/prctl.h'
p3526
sbsS'IwGxStream.h'
p3527
g361
(g1757
g363
Ntp3528
Rp3529
(dp3530
g1761
g1544
sg1762
g1903
sg387
g1578
sbsS'temp_defines_debug.h'
p3531
g361
(g1757
g363
Ntp3532
Rp3533
(dp3534
g1761
(lp3535
sg1762
(lp3536
g3056
asg387
S'd:/Marmalade/Stage1/build_stage1_vc14/temp_defines_debug.h'
p3537
sbsS'utility'
p3538
g361
(g1757
g363
Ntp3539
Rp3540
(dp3541
g1761
g1769
sg1762
g1770
sg387
S'c:/marmalade/7.10/s3e/h/std/c++/utility'
p3542
sbsS'input.h'
p3543
g361
(g1757
g363
Ntp3544
Rp3545
(dp3546
g1761
g1336
sg1762
g2197
sg387
g1334
sbsS'IwGeomLegacy.h'
p3547
g361
(g1757
g363
Ntp3548
Rp3549
(dp3550
g1761
g1444
sg1762
g1823
sg387
g1480
sbsS'IwTPage.h'
p3551
g361
(g1757
g363
Ntp3552
Rp3553
(dp3554
g1761
g1544
sg1762
g1903
sg387
g1580
sbsS'IwResSerialise.h'
p3555
g361
(g1757
g363
Ntp3556
Rp3557
(dp3558
g1761
g1520
sg1762
g2031
sg387
g1529
sbsS's3eCrypto.h'
p3559
g361
(g1757
g363
Ntp3560
Rp3561
(dp3562
g1761
g1769
sg1762
g1785
sg387
S'c:/marmalade/7.10/s3e/h/s3eCrypto.h'
p3563
sbsS's3eKeyboard.h'
p3564
g361
(g1757
g363
Ntp3565
Rp3566
(dp3567
g1761
g1769
sg1762
g1785
sg387
S'c:/marmalade/7.10/s3e/h/s3eKeyboard.h'
p3568
sbsS'fcntl.h'
p3569
g361
(g1757
g363
Ntp3570
Rp3571
(dp3572
g1761
g1769
sg1762
g1791
sg387
S'c:/marmalade/7.10/s3e/h/std/fcntl.h'
p3573
sbsS'Iw2DSceneGraphCore.h'
p3574
g361
(g1757
g363
Ntp3575
Rp3576
(dp3577
g1761
g1601
sg1762
g2860
sg387
g1599
sbsS'memory.h'
p3578
g361
(g1757
g363
Ntp3579
Rp3580
(dp3581
g1761
g1769
sg1762
g1791
sg387
S'c:/marmalade/7.10/s3e/h/std/memory.h'
p3582
sbsS'pthread.h'
p3583
g361
(g1757
g363
Ntp3584
Rp3585
(dp3586
g1761
g1769
sg1762
g1791
sg387
S'c:/marmalade/7.10/s3e/h/std/pthread.h'
p3587
sbsS'IwGeomIntersect.h'
p3588
g361
(g1757
g363
Ntp3589
Rp3590
(dp3591
g1761
g1444
sg1762
g1823
sg387
g1447
sbsS'IwTextParserITX.h'
p3592
g361
(g1757
g363
Ntp3593
Rp3594
(dp3595
g1761
g1608
sg1762
g1798
sg387
g1668
sbsS'egl_1.h'
p3596
g361
(g1757
g363
Ntp3597
Rp3598
(dp3599
g1761
g1769
sg1762
g2346
sg387
S'c:/marmalade/7.10/s3e/h/GLES/egl.h'
p3600
sbsS'Iw2DSceneGraph.cpp'
p3601
g361
(g1757
g363
Ntp3602
Rp3603
(dp3604
g1761
g1386
sg1762
g2073
sg387
g1384
sbsS'ostream.h'
p3605
g361
(g1757
g363
Ntp3606
Rp3607
(dp3608
g1761
g1769
sg1762
g1770
sg387
S'c:/marmalade/7.10/s3e/h/std/c++/ostream.h'
p3609
sbsS'stl_user_config.h'
p3610
g361
(g1757
g363
Ntp3611
Rp3612
(dp3613
g1761
g1769
sg1762
g1770
sg387
S'c:/marmalade/7.10/s3e/h/std/c++/stl_user_config.h'
p3614
sbsS'iwgx.mkf'
p3615
g361
(g1757
g363
Ntp3616
Rp3617
(dp3618
g1761
g1569
sg1762
g1903
sg387
g1567
sbsS'IwProfileMenu.h'
p3619
g361
(g1757
g363
Ntp3620
Rp3621
(dp3622
g1761
g1608
sg1762
g1798
sg387
g1676
sbsS'MarmaladeVersion.h'
p3623
g361
(g1757
g363
Ntp3624
Rp3625
(dp3626
g1761
g1769
sg1762
g1785
sg387
S'c:/marmalade/7.10/s3e/h/MarmaladeVersion.h'
p3627
sbsS'IwResHandlerWAV.h'
p3628
g361
(g1757
g363
Ntp3629
Rp3630
(dp3631
g1761
g1284
sg1762
g1809
sg387
g1291
sbsS'gl3platform.h'
p3632
g361
(g1757
g363
Ntp3633
Rp3634
(dp3635
g1761
g1769
sg1762
g2084
sg387
S'c:/marmalade/7.10/s3e/h/GLES3/gl3platform.h'
p3636
sbsS'ios.h'
p3637
g361
(g1757
g363
Ntp3638
Rp3639
(dp3640
g1761
g1769
sg1762
g1770
sg387
S'c:/marmalade/7.10/s3e/h/std/c++/ios.h'
p3641
sbsS'IwImageHelper.h'
p3642
g361
(g1757
g363
Ntp3643
Rp3644
(dp3645
g1761
g1608
sg1762
g1798
sg387
g1700
sbsS'hash_set'
p3646
g361
(g1757
g363
Ntp3647
Rp3648
(dp3649
g1761
g1769
sg1762
g1770
sg387
S'c:/marmalade/7.10/s3e/h/std/c++/hash_set'
p3650
sbsS'IwGeomFQuat.h'
p3651
g361
(g1757
g363
Ntp3652
Rp3653
(dp3654
g1761
g1444
sg1762
g1823
sg387
g1476
sbsS'jmorecfg.h'
p3655
g361
(g1757
g363
Ntp3656
Rp3657
(dp3658
g1761
g1724
sg1762
g1857
sg387
g1735
sbsS'eglplatform.h'
p3659
g361
(g1757
g363
Ntp3660
Rp3661
(dp3662
g1761
g1769
sg1762
g2116
sg387
S'c:/marmalade/7.10/s3e/h/EGL/eglplatform.h'
p3663
sbsS'cmath'
p3664
g361
(g1757
g363
Ntp3665
Rp3666
(dp3667
g1761
g1769
sg1762
g1770
sg387
S'c:/marmalade/7.10/s3e/h/std/c++/cmath'
p3668
sbsS'math_gcc.h'
p3669
g361
(g1757
g363
Ntp3670
Rp3671
(dp3672
g1761
g1769
sg1762
g1791
sg387
S'c:/marmalade/7.10/s3e/h/std/math_gcc.h'
p3673
sbsS's3eMemory.h'
p3674
g361
(g1757
g363
Ntp3675
Rp3676
(dp3677
g1761
g1769
sg1762
g1785
sg387
S'c:/marmalade/7.10/s3e/h/s3eMemory.h'
p3678
sbsS'strings.h'
p3679
g361
(g1757
g363
Ntp3680
Rp3681
(dp3682
g1761
g1769
sg1762
g1791
sg387
S'c:/marmalade/7.10/s3e/h/std/strings.h'
p3683
sbsS's3eFile.h'
p3684
g361
(g1757
g363
Ntp3685
Rp3686
(dp3687
g1761
g1769
sg1762
g1785
sg387
S'c:/marmalade/7.10/s3e/h/s3eFile.h'
p3688
sbsS'IwGxTypes.h'
p3689
g361
(g1757
g363
Ntp3690
Rp3691
(dp3692
g1761
g1544
sg1762
g1903
sg387
g1559
sbsS'cerrno'
p3693
g361
(g1757
g363
Ntp3694
Rp3695
(dp3696
g1761
g1769
sg1762
g1770
sg387
S'c:/marmalade/7.10/s3e/h/std/c++/cerrno'
p3697
sbsS'IwSoundManager.cpp'
p3698
g361
(g1757
g363
Ntp3699
Rp3700
(dp3701
g1761
g1284
sg1762
g1809
sg387
g1317
sbsS'soundengine.mkf'
p3702
g361
(g1757
g363
Ntp3703
Rp3704
(dp3705
g1761
g1327
sg1762
g1809
sg387
g1325
sbsS'resource.h'
p3706
g361
(g1757
g363
Ntp3707
Rp3708
(dp3709
g1761
g1769
sg1762
g1917
sg387
S'c:/marmalade/7.10/s3e/h/std/sys/resource.h'
p3710
sbsS'clocale'
p3711
g361
(g1757
g363
Ntp3712
Rp3713
(dp3714
g1761
g1769
sg1762
g1770
sg387
S'c:/marmalade/7.10/s3e/h/std/c++/clocale'
p3715
sbsS'pvrtextool.mkf'
p3716
g361
(g1757
g363
Ntp3717
Rp3718
(dp3719
g1761
g1374
sg1762
g2383
sg387
g1372
sbsS'csetjmp'
p3720
g361
(g1757
g363
Ntp3721
Rp3722
(dp3723
g1761
g1769
sg1762
g1770
sg387
S'c:/marmalade/7.10/s3e/h/std/c++/csetjmp'
p3724
sbsS'netdb.h'
p3725
g361
(g1757
g363
Ntp3726
Rp3727
(dp3728
g1761
g1769
sg1762
g1791
sg387
S'c:/marmalade/7.10/s3e/h/std/netdb.h'
p3729
sbsS's3eAndroidJNI.h'
p3730
g361
(g1757
g363
Ntp3731
Rp3732
(dp3733
g1761
g1769
sg1762
g1986
sg387
S'c:/marmalade/7.10/s3e/h/ext/s3eAndroidJNI.h'
p3734
sbsS'stdexcept'
p3735
g361
(g1757
g363
Ntp3736
Rp3737
(dp3738
g1761
g1769
sg1762
g1770
sg387
S'c:/marmalade/7.10/s3e/h/std/c++/stdexcept'
p3739
sbsS'math.h'
p3740
g361
(g1757
g363
Ntp3741
Rp3742
(dp3743
g1761
g1769
sg1762
g1791
sg387
S'c:/marmalade/7.10/s3e/h/std/math.h'
p3744
sbsS'stdbool.h'
p3745
g361
(g1757
g363
Ntp3746
Rp3747
(dp3748
g1761
g1769
sg1762
g1791
sg387
S'c:/marmalade/7.10/s3e/h/std/stdbool.h'
p3749
sbsS'uio.h'
p3750
g361
(g1757
g363
Ntp3751
Rp3752
(dp3753
g1761
g1769
sg1762
g1917
sg387
S'c:/marmalade/7.10/s3e/h/std/sys/uio.h'
p3754
sbsS'IwUncopyable.h'
p3755
g361
(g1757
g363
Ntp3756
Rp3757
(dp3758
g1761
g1608
sg1762
g1798
sg387
g1672
sbssS'juice_build_type'
p3759
g4
sS'tests'
p3760
(lp3761
sS'project_name'
p3762
g369
sS'root_file'
p3763
g145
sS'current_root'
p3764
S'd:/Marmalade/Stage1'
p3765
sS'dependencies'
p3766
(lp3767
sS'include_paths'
p3768
(lp3769
S'c:/marmalade/7.10/extensions/s3eamazonads/h'
p3770
aS'c:/marmalade/7.10/modules/iwutil/h'
p3771
aS'c:/marmalade/7.10/modules/third_party/libjpeg/h'
p3772
aS'c:/marmalade/7.10/modules/third_party/zlib/h'
p3773
aS'c:/marmalade/7.10/modules/third_party/libpng/h'
p3774
aS'c:/marmalade/7.10/modules/iw2d/h'
p3775
aS'c:/marmalade/7.10/modules/iwgx/h'
p3776
aS'c:/marmalade/7.10/modules/iwgl/h'
p3777
aS'c:/marmalade/7.10/modules/iwgeom/h'
p3778
aS'c:/marmalade/7.10/modules/iwresmanager/h'
p3779
aS'c:/marmalade/7.10/extensions/pvrtextool/h'
p3780
aS'c:/marmalade/7.10/modules/iwgxfont/h'
p3781
aS'c:/marmalade/7.10/modules/third_party/tiniconv/source'
p3782
aS'c:/marmalade/7.10/modules/iw2dscenegraph/h'
p3783
aS'c:/marmalade/7.10/modules/iw2dscenegraphcore/h'
p3784
aS'd:/marmalade/modules/soundengine/h'
p3785
aS'd:/marmalade/modules/soundengine/source'
p3786
aS'c:/marmalade/7.10/s3e/h'
p3787
aS'c:/marmalade/7.10/s3e/h/ext'
p3788
aS'c:/marmalade/7.10/s3e/h/std'
p3789
aS'c:/marmalade/7.10/s3e/h/std/c++'
p3790
aS'c:/marmalade/7.10/s3e/h/ext_legacy'
p3791
aS'c:/marmalade/7.10/s3e/h/legacy'
p3792
asS'weak_frameworks'
p3793
(lp3794
sS'extprojects'
p3795
(dp3796
sg692
(dp3797
g686
(lp3798
(S'd:/Marmalade/Stage1/data/textures'
p3799
S'textures'
p3800
I0
tp3801
a(S'd:/Marmalade/Stage1/data/audio'
p3802
S'audio'
p3803
I0
tp3804
assS'macro_types'
p3805
(dp3806
g615
I0
sg617
I1
sg618
I0
sg619
I0
sg620
I0
sg622
I0
sg623
I0
sg624
I0
sg625
I0
sg626
I0
sg627
I0
sg628
I0
sg630
I0
sg631
I0
sg632
I0
sg633
I0
sg634
I0
sg635
I0
sg636
I0
sg637
I0
sg638
I0
sg640
I0
sg641
I0
sg642
I0
sg643
I0
sg644
I0
sg645
I0
sg646
I0
sg647
I1
sg648
I0
sg649
I0
sg650
I0
sg651
I0
sg652
I01
sg653
I1
sg654
I0
sg655
I0
sg656
I0
sg657
I0
sg658
I0
sg659
I0
sg660
I0
ssS'commands'
p3807
(lp3808
sg694
(g1241
S'VC14'
p3809
S'X86ARMAARCH64'
p3810
tp3811
sS'build_libs'
p3812
(dp3813
sg696
g0
sS'frameworks'
p3814
(lp3815
sS'environ'
p3816
(dp3817
S'NACL_ROOT'
p3818
S'c:\\marmalade\\7.10/tools/gcc/x86_64/nacl_windows'
p3819
ssS'target_name_debug'
p3820
g369
sS'builders'
p3821
(dp3822
g686
(dp3823
S'.S'
p3824
(dp3825
S'gcc_aarch64'
p3826
(lp3827
S'.obj'
p3828
aS'echo AARCH64 Assembling(GCC) ${SOURCE}...'
p3829
aS'c:/marmalade/7.10/s3e\\gcc\\win32\\aarch64\\bin\\aarch64-none-elf-gcc -c -o ${TARGET} ${SOURCE}'
p3830
asS'rvct'
p3831
(lp3832
g3828
aS'echo ARM Assembling(RVCT) ${SOURCE}...'
p3833
aS'c:/marmalade/7.10/s3e\\rvct\\bin\\armasm -o ${TARGET} ${SOURCE}'
p3834
asg490
(lp3835
g3828
aS'echo ARM Assembling(GCC) ${SOURCE}...'
p3836
aS'c:/marmalade/7.10/s3e\\gcc\\win32\\arm\\bin\\arm-none-eabi-gcc -c -o ${TARGET} ${SOURCE}'
p3837
asS'ppu'
p3838
(lp3839
S'.a'
p3840
aS'echo PPU Assembling(SNC) ${SOURCE}...'
p3841
aS'c:/marmalade/7.10/s3e\\rvct\\bin\\armasm -o ${TARGET} ${SOURCE}'
p3842
assS'.s'
p3843
g3825
sS'.vp'
p3844
(lp3845
NaS'"C:/Marmalade/7.10/s3e/python/python.exe" "c:/marmalade/7.10/modules/iwgx/tools/compile_shaders.py" ${SOURCE}'
p3846
asssS'extproject_names'
p3847
(lp3848
sbtp3849
.