((dp0
S'arm_dbg_args'
p1
S'-via:"d:\\Marmalade\\Stage1\\build_stage1_vc14\\Stage1_vc14_arm_debug.via" -qemu'
p2
sS'game-icf'
p3
S''
p4
sS'dist'
p5
NsS'csproj'
p6
g4
sS'module_path_append'
p7
NsS'tizen_x86_dbg_exe'
p8
S'c:\\marmalade\\7.10\\s3e\\makefile_builder\\tool_launcher.exe'
p9
sS'global_path'
p10
S'd:\\marmalade'
p11
sS'system_path'
p12
S'c:\\marmalade\\7.10\\s3e\\makefile_builder'
p13
sS'android_x86_dbg_args'
p14
S'../../tools/DeployTool/DeployTool.exe --dir "d:\\Marmalade\\Stage1\\build_stage1_vc14"'
p15
sS'aarch64-arch-mod'
p16
g4
sS'no-emit'
p17
NsS'androidnativedebug'
p18
NsS'arm-float-abi'
p19
g4
sS'arm_rel_rtsm_args'
p20
S'-via:"d:\\Marmalade\\Stage1\\build_stage1_vc14\\Stage1_vc14_arm_release.via" -qemu'
p21
sS'amd64'
p22
NsS'line-width'
p23
I80
sS'gcc_dbg_args'
p24
S'-via:"d:\\Marmalade\\Stage1\\build_stage1_vc14\\Stage1_vc14_gcc_debug.via" -qemu'
p25
sS'sim-release-loader'
p26
NsS'android-x86'
p27
NsS'x86_dbg_exe'
p28
S'c:/marmalade/7.10/s3e\\win32\\s3e_simulator_debug.exe'
p29
sS'jflags'
p30
NsS'nacl_x86_64_rel_args'
p31
g15
sS'release'
p32
NsS'no-make'
p33
NsS'xcode-x86-build-settings'
p34
g4
sS'optimise-size'
p35
NsS'fat'
p36
NsS'output-name-debug'
p37
g4
sS'arm-fpu'
p38
g4
sS'proj_name'
p39
S'Stage1_vc14'
p40
sS'rvct-version'
p41
S'none'
p42
sS'compiler'
p43
g4
sS'execute'
p44
NsS'compile-static'
p45
NsS'nacl_x86_64_rel_exe'
p46
g9
sS'msvc-project'
p47
NsS'buildenv'
p48
S'VC14'
p49
sS'quick'
p50
NsS'module_path'
p51
NsS'mkf_default'
p52
S's3e-default.mkf'
p53
sS'use-release-std-libs'
p54
NsS'using_perforce'
p55
I00
sS'tizen-x86'
p56
NsS'mips-s3e'
p57
NsS's3e-api-lib-name'
p58
S's3e_api_iwgl'
p59
sS'ios-no-pic'
p60
NsS'shared-arm-lib'
p61
NsS'arm-cpu'
p62
g4
sS'compile-thumb'
p63
NsS'no-ide'
p64
NsS'msvc-version'
p65
S'6.0'
p66
sS'arm'
p67
NsS'nacl_x86_64_dbg_exe'
p68
g9
sS'builddir'
p69
g4
sS'compile-debug-as-release'
p70
I0
sS'arm-arch'
p71
g4
sS'brief'
p72
NsS'dll'
p73
NsS'buildenv-toolset'
p74
g4
sS'version'
p75
NsS'aarch64-arch'
p76
g4
sS'ccache'
p77
I0
sS'offline'
p78
NsS'ios-version'
p79
g4
sS'hub_data'
p80
g4
sS'fake_vc_call'
p81
I01
sS'jobs'
p82
I0
sS'linkflags'
p83
NsS'gcc_aarch64_dbg_args'
p84
g15
sS'nacl_x86_64_dbg_args'
p85
g15
sS'debug'
p86
NsS'xcode-build-order'
p87
g4
sS'gcc_aarch64_rel_rtsm_args'
p88
S'-via:"d:\\Marmalade\\Stage1\\build_stage1_vc14\\Stage1_vc14_gcc_aarch64_release.via" -qemu'
p89
sS'gcc_rel_rtsm_args'
p90
S'-via:"d:\\Marmalade\\Stage1\\build_stage1_vc14\\Stage1_vc14_gcc_release.via" -qemu'
p91
sS'done_defaults'
p92
I1
sS'path'
p93
(lp94
S'c:/marmalade/7.10/tools/gcc/x86_64/nacl_windows/toolchain/win_x86_glibc/bin'
p95
asS's3e-data-dir'
p96
S'd:/Marmalade/Stage1\\data'
p97
sS'enable-exceptions'
p98
NsS'osx-dll'
p99
NsS'extension'
p100
g4
sS'no-vc6'
p101
NsS'aarch64'
p102
NsS'win32-console'
p103
NsS'dist-format'
p104
g4
sS's3e-force-arch'
p105
NsS'dump_defines'
p106
NsS'use-shared-std-libs'
p107
NsS'gcc-version'
p108
g4
sS'x86_dbg_args'
p109
S'-via:"d:\\Marmalade\\Stage1\\build_stage1_vc14\\Stage1_vc14_debug.via"'
p110
sS'nacl'
p111
NsS'tizen_x86_dbg_args'
p112
g15
sS'arm-debugger'
p113
g4
sS'use_temp_extension'
p114
NsS'verbose'
p115
I0
sS'log'
p116
NsS'no-strip'
p117
NsS'rebuild'
p118
NsS'mips_dbg_args'
p119
g15
sS'win32-simulator-dll'
p120
NsS'strict'
p121
NsS'xcode-aarch64-build-settings'
p122
g4
sS'enable-global-path'
p123
NsS'gcc_aarch64_rel_args'
p124
g15
sS'cflags'
p125
NsS'dist-dir'
p126
g4
sS'xcode-arm-build-settings'
p127
g4
sS'disable-runtime-checks'
p128
NsS'csprojSDKRefs'
p129
g4
sS'tizen_x86_rel_exe'
p130
g9
sS'builddirroot'
p131
g4
sS'distcc'
p132
NsS'external-compiler'
p133
NsS'stripflags'
p134
NsS'retry-build'
p135
S'0'
p136
sS'preinclude'
p137
NsS'using_sdk'
p138
I01
sS'nologo'
p139
NsS'warn-level'
p140
I2
sS'mips_dbg_exe'
p141
g9
sS'mkb_in'
p142
S'd:/Marmalade/Stage1/Stage1.mkb'
p143
sS'no-objc-arc'
p144
NsS'app-icf'
p145
NsS'arm_dbg_exe'
p146
S'c:/marmalade/7.10/s3e\\bin\\armdebug.exe'
p147
sS'mdev-first'
p148
NsS'csprojDLLRef'
p149
NsS'tizen_x86_rel_args'
p150
g15
sS'android_x86_dbg_exe'
p151
g9
sS'naclx86_64'
p152
NsS'test-config'
p153
g4
sS'list-targets'
p154
NsS'arm_rel_exe'
p155
g9
sS'arm_rel_args'
p156
g15
sS'makedeps'
p157
NsS'android_x86_rel_exe'
p158
g9
sS'default-buildenv'
p159
S'VC14'
p160
sS'x86_rel_exe'
p161
S'c:/marmalade/7.10/s3e\\win32\\s3e_simulator_release.exe'
p162
sS'preprocess-java'
p163
NsS'mips_rel_args'
p164
g15
sS'test-assets'
p165
g4
sS'lib'
p166
NsS'non-interactive'
p167
NsS'global_argv'
p168
(lp169
S'C:\\Marmalade\\7.10\\s3e\\makefile_builder\\mkb.py'
p170
aS'D:/Marmalade/Stage1/Stage1.mkb'
p171
aS'--buildenv=VC14'
p172
aS'--fake-vc-call'
p173
asS'make'
p174
NsS'optimise-speed'
p175
NsS'internal'
p176
NsS'enable-stdinc'
p177
NsS'defines'
p178
NsS'deploy-only'
p179
NsS'x86'
p180
NsS'deploy'
p181
g4
sS'objc-arc'
p182
NsS'x86_run_exe'
p183
S'c:/marmalade/7.10/s3e\\win32\\s3e_simulator_debug.exe'
p184
sS'cxxflags'
p185
NsS'x86_rel_args'
p186
S'-via:"d:\\Marmalade\\Stage1\\build_stage1_vc14\\Stage1_vc14_release.via"'
p187
sS'gcc_rel_args'
p188
g15
sS'mips'
p189
NsS'xcode-build-settings'
p190
g4
sS'csprojPostBuildActions'
p191
NsS'incredibuild'
p192
NsS'strict-compile'
p193
NsS'use-auto-subdirs'
p194
NsS'mips_rel_exe'
p195
g9
sS'android_x86_rel_args'
p196
g15
sS'no-distcc'
p197
NsS'deployargs'
p198
NsS'iosnativedebug'
p199
NsS'use_prebuilt'
p200
NsS'win-target-platform'
p201
g4
sS'mkf_in'
p202
(lp203
S'c:\\marmalade\\7.10\\s3e\\s3e-default.mkf'
p204
aS'c:\\marmalade\\7.10\\extensions\\s3eamazonads\\s3eamazonads.mkf'
p205
aS'c:\\marmalade\\7.10\\modules\\iwutil\\iwutil.mkf'
p206
aS'c:\\marmalade\\7.10\\modules\\third_party\\libjpeg\\libjpeg.mkf'
p207
aS'c:\\marmalade\\7.10\\modules\\third_party\\libpng\\libpng.mkf'
p208
aS'c:\\marmalade\\7.10\\modules\\third_party\\zlib\\zlib.mkf'
p209
aS'c:\\marmalade\\7.10\\platform_libs\\android\\amazon-ads-android-sdk\\amazon-ads-android-sdk.mkf'
p210
aS'c:\\marmalade\\7.10\\platform_libs\\iphone\\amazon-ads-ios-sdk\\amazon-ads-ios-sdk.mkf'
p211
aS'c:\\marmalade\\7.10\\modules\\iw2d\\iw2d.mkf'
p212
aS'c:\\marmalade\\7.10\\modules\\iwgx\\iwgx.mkf'
p213
aS'c:\\marmalade\\7.10\\modules\\iwgl\\iwgl.mkf'
p214
aS'c:\\marmalade\\7.10\\modules\\iwgeom\\iwgeom.mkf'
p215
aS'c:\\marmalade\\7.10\\modules\\iwresmanager\\iwresmanager.mkf'
p216
aS'c:\\marmalade\\7.10\\extensions\\pvrtextool\\pvrtextool.mkf'
p217
aS'c:\\marmalade\\7.10\\modules\\iwgxfont\\iwgxfont.mkf'
p218
aS'c:\\marmalade\\7.10\\modules\\third_party\\tiniconv\\tiniconv.mkf'
p219
asS'strict-mkb'
p220
NsS'executeargs'
p221
NsS'clean'
p222
NsS'no-asm'
p223
NsS'output-name'
p224
g4
sS'no-modules'
p225
NsS'find_define'
p226
g4
s(dp227
S'c:\\marmalade\\7.10\\s3e\\makefile_builder\\templates\\aarch64_linker_script'
p228
F1443314056.0
sS'c:\\marmalade\\7.10\\s3e\\makefile_builder\\plugins\\xcode4_schememanagement.py'
p229
F1443314056.0
sS'c:\\marmalade\\7.10\\s3e\\makefile_builder\\templates\\wp81_csproj.pyc'
p230
F1443317622.0
sS'c:\\marmalade\\7.10\\s3e\\makefile_builder\\plugins\\s3e_win10.pyc'
p231
F1443317622.0
sS'c:\\marmalade\\7.10\\s3e\\makefile_builder\\mkb_launcher.exe'
p232
F1443315030.0
sS'c:\\marmalade\\7.10\\s3e\\makefile_builder\\templates\\win8_ext_csproj.pyc'
p233
F1443317622.0
sS'c:\\marmalade\\7.10\\s3e\\makefile_builder\\templates\\ws8_ext_sln.pyc'
p234
F1443317588.0
sS'c:\\marmalade\\7.10\\s3e\\makefile_builder\\templates\\ws81_sln.pyc'
p235
F1443317680.0
sS'c:\\marmalade\\7.10\\s3e\\makefile_builder\\templates\\xcode4_DeployTool.xcscheme'
p236
F1443314058.0
sS'c:\\marmalade\\7.10\\s3e\\makefile_builder\\plugins\\linux_vc14.pyc'
p237
F1443317654.0
sS'c:\\marmalade\\7.10\\s3e\\makefile_builder\\templates\\ws81_vcxproj.pyc'
p238
F1443317670.0
sS'c:\\marmalade\\7.10\\s3e\\makefile_builder\\plugins\\MakeEmitter.pyc'
p239
F1443317622.0
sS'c:\\marmalade\\7.10\\s3e\\makefile_builder\\templates\\win8_sln.pyc'
p240
F1443317610.0
sS'c:\\marmalade\\7.10\\s3e\\makefile_builder\\templates\\wp8_ext_csproj.pyc'
p241
F1443317704.0
sS'c:\\marmalade\\7.10\\s3e\\makefile_builder\\templates\\ws8_ext_csproj.pyc'
p242
F1443317594.0
sS'c:\\marmalade\\7.10\\s3e\\makefile_builder\\plugins\\deploy.pyc'
p243
F1443317634.0
sS'c:\\marmalade\\7.10\\s3e\\makefile_builder\\mkb_upstream.pyc'
p244
F1443317644.0
sS'c:\\marmalade\\7.10\\s3e\\makefile_builder\\templates\\wp81_vcxproj.pyc'
p245
F1443317612.0
sS'c:\\marmalade\\7.10\\s3e\\makefile_builder\\templates\\vc14_androidnative_ext_sln.pyc'
p246
F1443317640.0
sS'c:\\marmalade\\7.10\\s3e\\makefile_builder\\tool_launcher.exe'
p247
F1443315032.0
sS'c:\\marmalade\\7.10\\s3e\\makefile_builder\\plugins\\wp81_wp81.pyc'
p248
F1443317580.0
sS'c:\\marmalade\\7.10\\s3e\\makefile_builder\\templates\\qmake_user.py'
p249
F1443314056.0
sS'c:\\marmalade\\7.10\\s3e\\makefile_builder\\templates\\template.opt'
p250
F1443314056.0
sS'c:\\marmalade\\7.10\\s3e\\makefile_builder\\templates\\ws8_csproj_user.pyc'
p251
F1443317586.0
sS'c:\\marmalade\\7.10\\s3e\\makefile_builder\\plugins\\osx_scons.pyc'
p252
F1443317596.0
sS'c:\\marmalade\\7.10\\s3e\\makefile_builder\\plugins\\s3e_make.pyc'
p253
F1443317570.0
sS'c:\\marmalade\\7.10\\s3e\\makefile_builder\\templates\\win32_vcxproj.pyc'
p254
F1443317682.0
sS'c:\\marmalade\\7.10\\s3e\\makefile_builder\\templates\\win32_vcxproj_filters.pyc'
p255
F1443317594.0
sS'c:\\marmalade\\7.10\\s3e\\makefile_builder\\templates\\win32_dsp.pyc'
p256
F1443317690.0
sS'c:\\marmalade\\7.10\\s3e\\makefile_builder\\plugins\\linux_scons.pyc'
p257
F1443317710.0
sS'c:\\marmalade\\7.10\\s3e\\makefile_builder\\templates\\ws8_sln.pyc'
p258
F1443317680.0
sS'c:\\marmalade\\7.10\\s3e\\makefile_builder\\templates\\mips_linker_script'
p259
F1443314056.0
sS'c:\\marmalade\\7.10\\s3e\\makefile_builder\\templates\\wp8_vcxproj.pyc'
p260
F1443317624.0
sS'c:\\marmalade\\7.10\\s3e\\makefile_builder\\docs'
p261
F1446019855.710399
sS'c:\\marmalade\\7.10\\s3e\\makefile_builder\\templates\\xcode4_arm.xcscheme'
p262
F1443314058.0
sS'c:\\marmalade\\7.10\\s3e\\makefile_builder\\mkb_option.pyc'
p263
F1443317578.0
sS'c:\\marmalade\\7.10\\s3e\\makefile_builder\\templates\\xcode.py'
p264
F1443314058.0
sS'c:\\marmalade\\7.10\\s3e\\makefile_builder\\templates\\ws81_ext_sln.pyc'
p265
F1443317604.0
sS'c:\\marmalade\\7.10\\s3e\\makefile_builder\\templates\\win10_csproj.pyc'
p266
F1443317704.0
sS'c:\\marmalade\\7.10\\s3e\\makefile_builder\\templates\\wp8_csproj_user.pyc'
p267
F1443317658.0
sS'c:\\marmalade\\7.10\\s3e\\makefile_builder\\plugins\\s3e_wp8.pyc'
p268
F1443317680.0
sS'c:\\marmalade\\7.10\\s3e\\makefile_builder\\templates\\qmake.py'
p269
F1443314056.0
sS'c:\\marmalade\\7.10\\s3e\\makefile_builder\\templates\\win32_dsw.pyc'
p270
F1443317576.0
sS'c:\\marmalade\\7.10\\s3e\\makefile_builder\\templates\\wp8_sln.pyc'
p271
F1443317596.0
sS'c:\\marmalade\\7.10\\s3e\\makefile_builder\\templates\\vc6_opt.pyc'
p272
F1443317684.0
sS'c:\\marmalade\\7.10\\s3e\\makefile_builder\\plugins\\win10_win10.pyc'
p273
F1443317686.0
sS'c:\\marmalade\\7.10\\s3e\\makefile_builder\\templates\\linker_script'
p274
F1443314056.0
sS'c:\\marmalade\\7.10\\s3e\\makefile_builder\\templates\\win10_ext_sln.pyc'
p275
F1443317588.0
sS'c:\\marmalade\\7.10\\s3e\\makefile_builder\\plugins\\Win8Emitter.pyc'
p276
F1443317652.0
sS'c:\\marmalade\\7.10\\s3e\\makefile_builder\\nacl.mkf'
p277
F1443314056.0
sS'c:\\marmalade\\7.10\\s3e\\makefile_builder\\templates\\win10_ext_csproj.pyc'
p278
F1443317582.0
sS'c:\\marmalade\\7.10\\s3e\\makefile_builder\\templates\\wp81_ext_sln.pyc'
p279
F1443317610.0
sS'c:\\marmalade\\7.10\\s3e\\makefile_builder\\plugins\\s3e_wp81.pyc'
p280
F1443317678.0
sS'c:\\marmalade\\7.10\\s3e\\makefile_builder\\templates\\win8_csproj_user.pyc'
p281
F1443317596.0
sS'c:\\marmalade\\7.10\\s3e\\makefile_builder\\docs\\deployment_options.txt'
p282
F1443314056.0
sS'c:\\marmalade\\7.10\\s3e\\makefile_builder\\plugins\\s3e_vc14_androidnative.pyc'
p283
F1443317612.0
sS'c:\\marmalade\\7.10\\s3e\\makefile_builder\\templates\\wp8_csproj.pyc'
p284
F1443317690.0
sS'c:\\marmalade\\7.10\\s3e\\makefile_builder\\plugins\\VisualStudioEmitter.pyc'
p285
F1443317624.0
sS'c:\\marmalade\\7.10\\s3e\\makefile_builder\\mkb.py'
p286
F1443314056.0
sS'c:\\marmalade\\7.10\\s3e\\makefile_builder\\mkb_globals.pyc'
p287
F1443317674.0
sS'c:\\marmalade\\7.10\\s3e\\makefile_builder\\templates\\win10_sln.pyc'
p288
F1443317688.0
sS'c:\\marmalade\\7.10\\s3e\\makefile_builder\\plugins\\null.pyc'
p289
F1443317640.0
sS'c:\\marmalade\\7.10\\s3e\\makefile_builder\\docs\\mkb.defines.txt'
p290
F1443314056.0
sS'c:\\marmalade\\7.10\\s3e\\makefile_builder\\templates\\vc7_suo.pyc'
p291
F1443317678.0
sS'c:\\marmalade\\7.10\\s3e\\makefile_builder\\plugins\\S3EEmitter.pyc'
p292
F1443317686.0
sS'c:\\marmalade\\7.10\\s3e\\makefile_builder\\templates\\ws81_ext_csproj.pyc'
p293
F1443317660.0
sS'c:\\marmalade\\7.10\\s3e\\makefile_builder\\templates\\win8_vcxproj.pyc'
p294
F1443317706.0
sS'c:\\marmalade\\7.10\\s3e\\makefile_builder\\plugins\\s3e_vc6.pyc'
p295
F1443317594.0
sS'c:\\marmalade\\7.10\\s3e\\makefile_builder\\templates\\vc10_user.pyc'
p296
F1443317674.0
sS'c:\\marmalade\\7.10\\s3e\\makefile_builder\\docs\\deprecated.options.txt'
p297
F1443314056.0
sS'c:\\marmalade\\7.10\\s3e\\makefile_builder\\docs\\deprecated.defines.txt'
p298
F1443314056.0
sS'c:\\marmalade\\7.10\\s3e\\makefile_builder\\templates\\wp81_sln.pyc'
p299
F1443317634.0
sS'c:\\marmalade\\7.10\\s3e\\makefile_builder\\templates\\rvct_linker_script'
p300
F1443314056.0
sS'c:\\marmalade\\7.10\\s3e\\makefile_builder\\templates\\win10_vcxproj.pyc'
p301
F1443317618.0
sS'c:\\marmalade\\7.10\\s3e\\makefile_builder\\templates\\vc14_androidproj.pyc'
p302
F1443317640.0
sS'c:\\marmalade\\7.10\\s3e\\makefile_builder\\plugins\\XcodeEmitter.pyc'
p303
F1446052656.065168
sS'c:\\marmalade\\7.10\\s3e\\makefile_builder\\plugins\\s3e_scons.pyc'
p304
F1443317644.0
sS'c:\\marmalade\\7.10\\s3e\\makefile_builder\\templates\\win32_sln.pyc'
p305
F1443317704.0
sS'c:\\marmalade\\7.10\\s3e\\makefile_builder\\templates\\wp81_ext_csproj.pyc'
p306
F1443317684.0
sS'c:\\marmalade\\7.10\\s3e\\makefile_builder\\templates\\wp81_csproj_user.pyc'
p307
F1443317632.0
sS'c:\\marmalade\\7.10\\s3e\\makefile_builder\\plugins\\win8_utils.pyc'
p308
F1443317686.0
sS'c:\\marmalade\\7.10\\s3e\\makefile_builder\\plugins\\win32_vc6.pyc'
p309
F1443317604.0
sS'c:\\marmalade\\7.10\\s3e\\makefile_builder\\plugins\\ws8_ws8.pyc'
p310
F1443317676.0
sS'c:\\marmalade\\7.10\\s3e\\makefile_builder\\templates\\ws81_csproj.pyc'
p311
F1443317608.0
sS'c:\\marmalade\\7.10\\s3e\\makefile_builder\\plugins\\s3e_qmake.py'
p312
F1443314056.0
sS'c:\\marmalade\\7.10\\s3e\\makefile_builder\\plugins\\Emitter.pyc'
p313
F1443317632.0
sS'c:\\marmalade\\7.10\\s3e\\makefile_builder\\plugins\\wp8_wp8.pyc'
p314
F1443317650.0
sS'c:\\marmalade\\7.10\\s3e\\makefile_builder\\plugins\\s3e_win8.pyc'
p315
F1443317610.0
sS'c:\\marmalade\\7.10\\s3e\\makefile_builder\\templates\\gdb_start.txt'
p316
F1443314056.0
sS'c:\\marmalade\\7.10\\s3e\\makefile_builder\\templates\\Info.plist'
p317
F1443314056.0
sS'c:\\marmalade\\7.10\\s3e\\makefile_builder\\plugins\\vc7_utils.pyc'
p318
F1443317620.0
sS'c:\\marmalade\\7.10\\s3e\\makefile_builder\\templates\\vc8_user.pyc'
p319
F1443317650.0
sS'c:\\marmalade\\7.10\\s3e\\makefile_builder\\plugins\\s3e_ws81.pyc'
p320
F1443317688.0
sS'c:\\marmalade\\7.10\\s3e\\makefile_builder\\templates\\win10_csproj_user.pyc'
p321
F1443317618.0
sS'c:\\marmalade\\7.10\\s3e\\makefile_builder\\templates\\xcode_pbxuser.py'
p322
F1443314058.0
sS'c:\\marmalade\\7.10\\s3e\\makefile_builder\\mkb_parser.pyc'
p323
F1443317612.0
sS'c:\\marmalade\\7.10\\s3e\\makefile_builder\\templates\\ws8_vcxproj.pyc'
p324
F1443317696.0
sS'c:\\marmalade\\7.10\\s3e\\makefile_builder\\plugins\\xcode4_schememanagement.pyc'
p325
F1446052656.0711737
sS'c:\\marmalade\\7.10\\s3e\\makefile_builder\\templates'
p326
F1446019856.4123716
sS'c:\\marmalade\\7.10\\s3e\\makefile_builder\\templates\\xcode4.xcscheme'
p327
F1443314058.0
sS'c:\\marmalade\\7.10\\s3e\\makefile_builder\\plugins\\ws81_ws81.pyc'
p328
F1443317638.0
sS'c:\\marmalade\\7.10\\s3e\\makefile_builder\\docs\\parse_options.pyc'
p329
F1443317690.0
sS'c:\\marmalade\\7.10\\s3e\\makefile_builder\\templates\\template.suo'
p330
F1443314056.0
sS'c:\\marmalade\\7.10\\s3e\\makefile_builder\\docs\\options.txt'
p331
F1443314056.0
sS'c:\\marmalade\\7.10\\s3e\\makefile_builder\\mkb_util.pyc'
p332
F1443317616.0
sS'c:\\marmalade\\7.10\\s3e\\makefile_builder\\templates\\ws81_csproj_user.pyc'
p333
F1443317686.0
sS'c:\\marmalade\\7.10\\s3e\\makefile_builder\\plugins\\s3e_qmake.pyc'
p334
F1446052656.1569195
sS'c:\\marmalade\\7.10\\s3e\\makefile_builder\\templates\\win32_vcproj.pyc'
p335
F1443317676.0
sS'c:\\marmalade\\7.10\\s3e\\makefile_builder\\templates\\vc14_androidnative_vcxproj.pyc'
p336
F1443317580.0
sS'c:\\marmalade\\7.10\\s3e\\makefile_builder\\plugins\\s3e_xcode.pyc'
p337
F1446052656.1934426
sS'c:\\marmalade\\7.10\\s3e\\makefile_builder\\plugins\\s3e_xcode.py'
p338
F1443314056.0
sS'c:\\marmalade\\7.10\\s3e\\makefile_builder\\templates\\MainWindow.xib'
p339
F1443314056.0
sS'c:\\marmalade\\7.10\\s3e\\makefile_builder\\plugins'
p340
F1446052656.1919422
sS'c:\\marmalade\\7.10\\s3e\\makefile_builder\\templates\\win8_csproj.pyc'
p341
F1443317710.0
sS'c:\\marmalade\\7.10\\s3e\\makefile_builder\\plugins\\s3e_web.pyc'
p342
F1443317636.0
sS'c:\\marmalade\\7.10\\s3e\\makefile_builder\\templates\\make.py'
p343
F1443314056.0
sS'c:\\marmalade\\7.10\\s3e\\makefile_builder\\plugins\\s3e_ws8.pyc'
p344
F1443317684.0
sS'c:\\marmalade\\7.10\\s3e\\makefile_builder\\deployment.pyc'
p345
F1443317652.0
sS'c:\\marmalade\\7.10\\s3e\\makefile_builder\\plugins\\XcodeEmitter.py'
p346
F1443314056.0
sS'c:\\marmalade\\7.10\\s3e\\makefile_builder\\plugins\\vc6_utils.pyc'
p347
F1443317682.0
sS'c:\\marmalade\\7.10\\s3e\\makefile_builder\\plugins\\SConsEmitter.pyc'
p348
F1443317608.0
sS'c:\\marmalade\\7.10\\s3e\\makefile_builder\\templates\\ws8_csproj.pyc'
p349
F1443317670.0
sS'c:\\marmalade\\7.10\\s3e\\makefile_builder\\plugins\\java.pyc'
p350
F1443317626.0
sS'c:\\marmalade\\7.10\\s3e\\makefile_builder\\plugins\\osx_xcode.pyc'
p351
F1443317590.0
sS'c:\\marmalade\\7.10\\s3e\\makefile_builder\\templates\\vc14_androidnative_sln.pyc'
p352
F1443317622.0
sS'c:\\marmalade\\7.10\\s3e\\makefile_builder\\templates\\scons.pyc'
p353
F1443317700.0
sS'c:\\marmalade\\7.10\\s3e\\makefile_builder\\mkb_main.pyc'
p354
F1443317632.0
sS'c:\\marmalade\\7.10\\s3e\\makefile_builder\\plugins\\iphone.pyc'
p355
F1443317654.0
sccopy_reg
_reconstructor
p356
(cmkb_main
MkbFile
p357
c__builtin__
object
p358
Ntp359
Rp360
(dp361
g5
(lp362
sS'target_name'
p363
S'Stage1'
p364
sS'current_file'
p365
g143
sS'package_path'
p366
(lp367
sS'post_build'
p368
(lp369
(lp370
S'c:/marmalade/7.10/s3e/tools'
p371
aS'C:\\Marmalade\\7.10\\s3e\\python\\python.exe .\\process_map.py "$(TargetPath)"'
p372
aa(S'c:\\marmalade\\7.10\\s3e\\bin'
p373
S'"s3e_plink" -l "$(TargetPath)" '
p374
g180
tp375
asS'librarys'
p376
(lp377
g356
(cmkb_main
Library
p378
g358
Ntp379
Rp380
(dp381
S'name'
p382
S'vc12_compat.lib'
p383
sS'expand_name'
p384
I00
sS'include_spec_rvct_objs'
p385
(lp386
sS'include_all_objs'
p387
I00
sS'share_arm'
p388
I00
sS'arch'
p389
S'x86'
p390
sS'nodebug'
p391
I00
sg43
Nsbag356
(g378
g358
Ntp392
Rp393
(dp394
g382
S'iwutil'
p395
sg384
I01
sg385
(lp396
sg387
Nsg388
Nsg389
Nsg391
I00
sg43
Nsbag356
(g378
g358
Ntp397
Rp398
(dp399
g382
S'jpeg'
p400
sg384
I01
sg385
g396
sg387
Nsg388
Nsg389
Nsg391
I00
sg43
Nsbag356
(g378
g358
Ntp401
Rp402
(dp403
g382
S'z'
p404
sg384
I01
sg385
g396
sg387
Nsg388
Nsg389
Nsg391
I00
sg43
Nsbag356
(g378
g358
Ntp405
Rp406
(dp407
g382
S'png'
p408
sg384
I01
sg385
g396
sg387
Nsg388
Nsg389
Nsg391
I00
sg43
Nsbag356
(g378
g358
Ntp409
Rp410
(dp411
g382
S'iw2d'
p412
sg384
I01
sg385
g396
sg387
Nsg388
Nsg389
Nsg391
I00
sg43
Nsbag356
(g378
g358
Ntp413
Rp414
(dp415
g382
S'ATI_Compress_MT_VC7.lib'
p416
sg384
I00
sg385
g396
sg387
Nsg388
Nsg389
S'x86'
p417
sg391
I00
sg43
Nsbag356
(g378
g358
Ntp418
Rp419
(dp420
g382
S'iwgx'
p421
sg384
I01
sg385
g396
sg387
Nsg388
Nsg389
Nsg391
I00
sg43
Nsbag356
(g378
g358
Ntp422
Rp423
(dp424
g382
S'iwgl'
p425
sg384
I01
sg385
g396
sg387
Nsg388
Nsg389
Nsg391
I00
sg43
Nsbag356
(g378
g358
Ntp426
Rp427
(dp428
g382
S'iwgeom'
p429
sg384
I01
sg385
g396
sg387
Nsg388
Nsg389
Nsg391
I00
sg43
Nsbag356
(g378
g358
Ntp430
Rp431
(dp432
g382
S'iwresmanager'
p433
sg384
I01
sg385
g396
sg387
Nsg388
Nsg389
Nsg391
I00
sg43
Nsbag356
(g378
g358
Ntp434
Rp435
(dp436
g382
S'iwgxfont'
p437
sg384
I01
sg385
g396
sg387
Nsg388
Nsg389
Nsg391
I00
sg43
Nsbag356
(g378
g358
Ntp438
Rp439
(dp440
g382
S'tiniconv'
p441
sg384
I01
sg385
g396
sg387
Nsg388
Nsg389
Nsg391
I00
sg43
Nsbag356
(g378
g358
Ntp442
Rp443
(dp444
g382
S's3e_cpp'
p445
sg384
I01
sg385
g386
sg387
I00
sg388
I00
sg389
Nsg391
I00
sg43
Nsbag356
(g378
g358
Ntp446
Rp447
(dp448
g382
S's3e_vc14'
p449
sg384
I01
sg385
(lp450
S'iwcrt.o'
p451
asg387
I00
sg388
I00
sg389
S'x86'
p452
sg391
I00
sg43
Nsbag356
(g378
g358
Ntp453
Rp454
(dp455
g382
S's3e'
p456
sg384
I01
sg385
(lp457
g451
asg387
I00
sg388
I00
sg389
S'!x86'
p458
sg391
I00
sg43
Nsbag356
(g378
g358
Ntp459
Rp460
(dp461
g382
g59
sg384
I01
sg385
g386
sg387
I00
sg388
I00
sg389
S'x86'
p462
sg391
I01
sg43
Nsbag356
(g378
g358
Ntp463
Rp464
(dp465
g382
g59
sg384
I01
sg385
g386
sg387
I00
sg388
I00
sg389
S'!x86'
p466
sg391
I01
sg43
Nsbag356
(g378
g358
Ntp467
Rp468
(dp469
g382
S'stdc++'
p470
sg384
I00
sg385
g386
sg387
I00
sg388
I00
sg389
S'mips'
p471
sg391
I00
sg43
Nsbag356
(g378
g358
Ntp472
Rp473
(dp474
g382
S'c'
p475
sg384
I00
sg385
g386
sg387
I00
sg388
I00
sg389
S'mips'
p476
sg391
I00
sg43
Nsbag356
(g378
g358
Ntp477
Rp478
(dp479
g382
S'm'
p480
sg384
I00
sg385
g386
sg387
I00
sg388
I00
sg389
S'mips'
p481
sg391
I00
sg43
Nsbag356
(g378
g358
Ntp482
Rp483
(dp484
g382
S'gcc'
p485
sg384
I00
sg385
g386
sg387
I00
sg388
I00
sg389
S'mips'
p486
sg391
I00
sg43
Nsbag356
(g378
g358
Ntp487
Rp488
(dp489
g382
g485
sg384
I00
sg385
g386
sg387
I00
sg388
I00
sg389
S'naclx86_64'
p490
sg391
I00
sg43
Nsbag356
(g378
g358
Ntp491
Rp492
(dp493
g382
S'gcc_eh'
p494
sg384
I00
sg385
g386
sg387
I00
sg388
I00
sg389
S'naclx86_64'
p495
sg391
I00
sg43
Nsbag356
(g378
g358
Ntp496
Rp497
(dp498
g382
g475
sg384
I00
sg385
g386
sg387
I00
sg388
I00
sg389
S'naclx86_64'
p499
sg391
I00
sg43
Nsbag356
(g378
g358
Ntp500
Rp501
(dp502
g382
g480
sg384
I00
sg385
g386
sg387
I00
sg388
I00
sg389
S'naclx86_64'
p503
sg391
I00
sg43
Nsbag356
(g378
g358
Ntp504
Rp505
(dp506
g382
S'supc++'
p507
sg384
I00
sg385
g386
sg387
I00
sg388
I00
sg389
S'naclx86_64'
p508
sg391
I00
sg43
Nsbag356
(g378
g358
Ntp509
Rp510
(dp511
g382
S'supc++'
p512
sg384
I00
sg385
g386
sg387
I00
sg388
I00
sg389
S'gcc_x86_android'
p513
sg391
I00
sg43
Nsbag356
(g378
g358
Ntp514
Rp515
(dp516
g382
g475
sg384
I00
sg385
g386
sg387
I00
sg388
I00
sg389
S'gcc_x86_android'
p517
sg391
I00
sg43
Nsbag356
(g378
g358
Ntp518
Rp519
(dp520
g382
g480
sg384
I00
sg385
g386
sg387
I00
sg388
I00
sg389
S'gcc_x86_android'
p521
sg391
I00
sg43
Nsbag356
(g378
g358
Ntp522
Rp523
(dp524
g382
g485
sg384
I00
sg385
g386
sg387
I00
sg388
I00
sg389
S'gcc_x86_android'
p525
sg391
I00
sg43
Nsbag356
(g378
g358
Ntp526
Rp527
(dp528
g382
S'dl'
p529
sg384
I00
sg385
g386
sg387
I00
sg388
I00
sg389
S'gcc_x86_android'
p530
sg391
I00
sg43
Nsbag356
(g378
g358
Ntp531
Rp532
(dp533
g382
S'supc++'
p534
sg384
I00
sg385
g386
sg387
I00
sg388
I00
sg389
S'gcc_arm_android'
p535
sg391
I00
sg43
Nsbag356
(g378
g358
Ntp536
Rp537
(dp538
g382
g475
sg384
I00
sg385
g386
sg387
I00
sg388
I00
sg389
S'gcc_arm_android'
p539
sg391
I00
sg43
Nsbag356
(g378
g358
Ntp540
Rp541
(dp542
g382
g480
sg384
I00
sg385
g386
sg387
I00
sg388
I00
sg389
S'gcc_arm_android'
p543
sg391
I00
sg43
Nsbag356
(g378
g358
Ntp544
Rp545
(dp546
g382
g485
sg384
I00
sg385
g386
sg387
I00
sg388
I00
sg389
S'gcc_arm_android'
p547
sg391
I00
sg43
Nsbag356
(g378
g358
Ntp548
Rp549
(dp550
g382
g529
sg384
I00
sg385
g386
sg387
I00
sg388
I00
sg389
S'gcc_arm_android'
p551
sg391
I00
sg43
NsbasS'library_paths'
p552
(lp553
g356
(cmkb_main
LibraryPath
p554
g358
Ntp555
Rp556
(dp557
S'expand_path'
p558
I01
sg382
S'c:/marmalade/7.10/modules/iwutil'
p559
sbag356
(g554
g358
Ntp560
Rp561
(dp562
g558
I01
sg382
S'c:/marmalade/7.10/modules/third_party/libjpeg'
p563
sbag356
(g554
g358
Ntp564
Rp565
(dp566
g558
I01
sg382
S'c:/marmalade/7.10/modules/third_party/zlib'
p567
sbag356
(g554
g358
Ntp568
Rp569
(dp570
g558
I01
sg382
S'c:/marmalade/7.10/modules/third_party/libpng'
p571
sbag356
(g554
g358
Ntp572
Rp573
(dp574
g558
I01
sg382
S'c:/marmalade/7.10/modules/iw2d'
p575
sbag356
(g554
g358
Ntp576
Rp577
(dp578
g558
I00
sg382
S'c:/marmalade/7.10/modules/iwgx/atitools'
p579
sbag356
(g554
g358
Ntp580
Rp581
(dp582
g558
I01
sg382
S'c:/marmalade/7.10/modules/iwgx'
p583
sbag356
(g554
g358
Ntp584
Rp585
(dp586
g558
I01
sg382
S'c:/marmalade/7.10/modules/iwgl'
p587
sbag356
(g554
g358
Ntp588
Rp589
(dp590
g558
I01
sg382
S'c:/marmalade/7.10/modules/iwgeom'
p591
sbag356
(g554
g358
Ntp592
Rp593
(dp594
g558
I01
sg382
S'c:/marmalade/7.10/modules/iwresmanager'
p595
sbag356
(g554
g358
Ntp596
Rp597
(dp598
g558
I01
sg382
S'c:/marmalade/7.10/modules/iwgxfont'
p599
sbag356
(g554
g358
Ntp600
Rp601
(dp602
g558
I01
sg382
S'c:/marmalade/7.10/modules/third_party/tiniconv'
p603
sbag356
(g554
g358
Ntp604
Rp605
(dp606
g558
I01
sg382
S'c:/marmalade/7.10/s3e'
p607
sbasS'macros'
p608
(dp609
S'IW_TRACE_CHANNEL_AMAZONADS'
p610
S'1'
p611
sS'IW_USE_CALLSTACK'
p612
NsS'IW_PLATFORM_S3E'
p613
NsS'I3D_PLATFORM_S3E'
p614
NsS'__S3E__'
p615
NsS'IW_TRACE_CHANNEL_AMAZONADS_VERBOSE'
p616
S'2'
p617
sS'IW_MKF_LIBJPEG'
p618
NsS'I3D_OS_S3E'
p619
NsS'IW_MKF_PVRTEXTOOL'
p620
NsS'IW_MKF_AMAZON_ADS_IOS_SDK'
p621
NsS'IW_MKF_TINICONV'
p622
NsS'IW_APP_VERSION'
p623
S'"1.0"'
p624
sS'IW_MKF_IWRESMANAGER'
p625
NsS'IW_MKF_FREELICENSE'
p626
NsS'IW_MKF_S3EAMAZONADS'
p627
NsS'IW_MKF_IWUTIL'
p628
NsS'IW_MKF_IWGEOM'
p629
NsS'IW_MKF_AMAZON_ADS_ANDROID_SDK'
p630
NsS'IW_ASSERTION_CHANNEL_2D'
p631
g611
sS'IW_APP_NAME'
p632
S'"Stage1"'
p633
sS'IW_MKF_S3E_DEFAULT'
p634
NsS'IW_MKF_IWGXFONT'
p635
NsS'IW_MKF_ZLIB'
p636
NsS'IW_MKF_IWGX'
p637
NsS'IW_ASSERTION_CHANNEL_AMAZONADS'
p638
g611
sS'IW_USE_ASSERTIONS'
p639
NsS'_CRT_SECURE_NO_DEPRECATE'
p640
NsS'IW_MKF_IWGL'
p641
NsS'IW_MKF_LIBPNG'
p642
NsS'IW_DEBUG'
p643
NsS'IW_USE_TRACING'
p644
NsS'IW_TRACE_CHANNEL_PVRTEXTOOL'
p645
g611
sS'IW_SDK'
p646
NsS'S3E_INCLUDE_LEGACY'
p647
NsS'IW_TRACE_CHANNEL_PVRTEXTOOL_VERBOSE'
p648
g617
sS'IW_MKF_IW2D'
p649
NsS'IW_ASSERTION_CHANNEL_PVRTEXTOOL'
p650
g611
ssS'done_warnings'
p651
(dp652
sS'subprojects'
p653
(dp654
g209
S'zlib'
p655
sg219
S'tiniconv'
p656
sg204
S's3e-default.mkf'
p657
sg217
S'PVRTexTool'
p658
sg216
S'iwresmanager'
p659
sg211
S'amazon-ads-ios-sdk'
p660
sg215
S'iwgeom'
p661
sg210
S'amazon-ads-android-sdk'
p662
sg213
S'iwgx'
p663
sg208
S'libpng'
p664
sg206
S'iwutil'
p665
sg205
S's3eAmazonAds'
p666
sg207
S'libjpeg'
p667
sg218
S'iwgxfont'
p668
sg214
S'iwgl'
p669
sg212
S'iw2d'
p670
ssS'deployments'
p671
(dp672
S'Default'
p673
g356
(cdeployment
Deployment
p674
g358
Ntp675
Rp676
(dp677
S'got_version'
p678
I0
sS'assets'
p679
g673
sS'mkb'
p680
g360
sS'target'
p681
Nsg389
(lp682
sS'options'
p683
(dp684
S'iphone-link-lib'
p685
(lp686
S's3eAmazonAds'
p687
asS'game-icf'
p688
NsS'android-tm'
p689
NsS'winmobile-icon32'
p690
NsS'ws8-logo-image150x150'
p691
NsS'wp81-logo-image150x150'
p692
NsS'win10-product-name'
p693
NsS'android-keystore'
p694
NsS'osx-ext-dll'
p695
(lp696
S'c:/marmalade/7.10/extensions/pvrtextool/lib/osx/libPVRTexTool.dylib'
p697
asS'iphone-provisioning-profile'
p698
NsS'win10-identity-name'
p699
NsS'ws8-splash-screen-image620x300'
p700
NsS'wp81-extra-pri'
p701
(lp702
sS'ws8-ext-capabilities'
p703
(lp704
sS'android-icon-hdpi'
p705
NsS'iphone-ipad-only'
p706
NsS'iphone-splash-full-orient'
p707
NsS'wp8-tile-fliptemplate-supports-large'
p708
NsS'iphone-show-status-bar'
p709
NsS'roku-requires-mkv'
p710
NsS'long-caption'
p711
NsS'android-pkgname'
p712
NsS'ws8-ext-native-only-dll'
p713
(lp714
sS'wp81-publisher-display-name'
p715
NsS'win10-logo-image150x150'
p716
NsS'blackberry-permissions-read-device-identifying-information'
p717
NsS'ws81-certificate-end-date'
p718
NsS'psp-dlgcontentid'
p719
NsS'android-version-code'
p720
NsS'win10-ext-uap-capabilities'
p721
(lp722
sS'iphone-minimum-ios-version'
p723
NsS'target-folder'
p724
NsS'tizen-dist1-CA-path'
p725
NsS'symbian-icon2-format'
p726
NsS'tizen-author-key'
p727
NsS'firefoxos-icon-128X128'
p728
NsS'iphone-region'
p729
NsS'uiq3-icon3-mask'
p730
NsS'brew-encoding'
p731
NsS'version'
p732
NsS'nds-initialcode'
p733
NsS'win10-ext-native-dll'
p734
(lp735
sS'iphone-persistent-wifi'
p736
NsS'psp-snd0'
p737
NsS'roku-icon-focus-hd'
p738
NsS'osx-appid'
p739
NsS'ws81-ext-native-only-dll'
p740
(lp741
sS'winmobile-install-folder'
p742
NsS'android-external-res'
p743
(lp744
sS'ws8-product-version'
p745
NsS'brew-priviledges'
p746
NsS'iphone-icon-ipad-search'
p747
NsS'iphone-icon-ipad'
p748
NsS'iphone-skip-icon-generation'
p749
NsS'nacl-icon-128X128'
p750
NsS'roku-hidden'
p751
NsS'psp-titlename'
p752
NsS'wp81-product-version'
p753
NsS'symbian-icon1-mask'
p754
NsS'psp-parentallevel'
p755
NsS'iphone-launch-storyboard'
p756
NsS'splashscreen-use-all'
p757
NsS'symbian-disable-ecompxl'
p758
NsS'splashscreen-auto-onblack'
p759
NsS'iphone-icon-dir'
p760
NsS'iphone-icon-extra'
p761
NsS'win32-ext-dll'
p762
(lp763
S'c:/marmalade/7.10/extensions/pvrtextool/lib/win32/PVRTexTool.dll'
p764
asS'iphone-development-key'
p765
NsS'winmobile-icon48'
p766
NsS'android-unsigned'
p767
NsS'osx-appstore-category'
p768
NsS'version-revision'
p769
NsS'roku-icon-focus-sd'
p770
NsS'ws81-product-version'
p771
NsS'winmobile-png90'
p772
NsS'iphone-icon-ipad-high-res'
p773
NsS'iphone-disable-ipad'
p774
NsS'win10-ext-sdk-ref'
p775
(lp776
sS'ws81-splash-screen-background'
p777
NsS'wp8-ext-capabilities'
p778
(lp779
sS'brew-icon-large'
p780
NsS'symbian-icon1-mask-black'
p781
NsS'ws8-extra-res'
p782
(lp783
sS'iphone-bundle-localisations'
p784
NsS'winmobile-png60'
p785
NsS'blackberry-permissions-access-shared'
p786
NsS'blackberry-author'
p787
NsS'android-icon-xxxhdpi'
p788
NsS'olddeploytoolstyle'
p789
NsS'android_icon_gallery'
p790
NsS'win10-distribution-pfx-password'
p791
NsS'wp81-splash-screen-background'
p792
NsS'wp8-exclude-720p'
p793
NsS'iphone-info-plist'
p794
NsS'ws81-ext-managed-dll'
p795
(lp796
sS'playbook-cskpass'
p797
NsS'win10-description'
p798
NsS'ws8-distribution-pfx-password'
p799
NsS'symbian-key'
p800
NsS'app-icf'
p801
NsS'blackberry-storepass'
p802
NsS'wp8-tile-fliptemplate-back-title'
p803
NsS'brew-compress-loader'
p804
NsS'iphone-testflight'
p805
NsS'win32-pref-windowposy'
p806
NsS'win32-pref-windowposx'
p807
NsS'roku-requires-audiometadata'
p808
NsS'wp8-exclude-low-mem'
p809
NsS'android-min-sdk-version'
p810
NsS'wp8-tile-fliptemplate-title'
p811
NsS'iphone-icon-ipad-search-high-res'
p812
NsS'iphone-link-libdir'
p813
(lp814
S'c:/marmalade/7.10/extensions/s3eamazonads/lib/iphone'
p815
asS'wp81-ext-capabilities'
p816
(lp817
sS'blackberry-permissions-read-geolocation'
p818
NsS'win10-splash-screen-image620x300'
p819
NsS'ws81-ext-device-capabilities'
p820
(lp821
sS'tizen-signed'
p822
NsS'android-extra-application-manifest'
p823
(lp824
S'c:/marmalade/7.10/extensions/s3eamazonads/source/android/ExtraAppManifests.xml'
p825
asS'android-x86'
p826
NsS'win10-extra-res'
p827
(lp828
sS'ws8-ext-native-dll'
p829
(lp830
sS'symbian-icon2-mask'
p831
NsS'iphone-launch-extra'
p832
NsS'webos-memory'
p833
NsS'android-keypass'
p834
NsS'name'
p835
NsS'uiq3-icon2-format'
p836
NsS'roku-splash-screen-sd'
p837
NsS'auto-derbh'
p838
NsS'roku-icon-side-sd'
p839
NsS'android-external-assets'
p840
(lp841
sS'nds-publicsavedatasize'
p842
NsS'splashscreen'
p843
NsS'wp8-product-id'
p844
NsS'iphone-icon-settings-high-res'
p845
NsS'android-manifest'
p846
NsS'ws81-splash-screen-image620x300'
p847
NsS'wp81-product-name'
p848
NsS's3e-compression'
p849
NsS'tizen-author-password'
p850
NsS'wp8-tile-fliptemplate-back-content'
p851
NsS'blackberry-extra-descriptor'
p852
(lp853
sS'android-java-source-version'
p854
NsS'symbian-icon1'
p855
NsS'symbian-icon2'
p856
NsS'nds-makercode'
p857
NsS'android-extra-styles-file'
p858
NsS'android-ext-target-sdk-version'
p859
(lp860
I17
asS'wp81-publisher-id'
p861
NsS'nds-bannertitle-jp'
p862
NsS'wp81-logo-image44x44'
p863
NsS'osx-sign-for-store'
p864
NsS'symbian7-uid'
p865
NsS'wp8-tile-fliptemplate-large-back-content'
p866
NsS'wp81-phone-publisher-id'
p867
NsS'nds-bannertitle-cn'
p868
NsS'iphone-distribution-key'
p869
NsS'win10-phone-publisher-id'
p870
NsS'android-icon-gallery'
p871
NsS'blackberry-keystore'
p872
NsS'iphone-nosign'
p873
NsS'caption'
p874
NsS'nacl-permissions'
p875
NsS'android-extra-manifest'
p876
(lp877
sS'wp81-ext-sdk-ref'
p878
(lp879
sS'android-icon-xxhdpi'
p880
NsS'version-minor'
p881
NsS'iphone-skip-launch-generation'
p882
NsS'iphone-link-libdirs'
p883
(lp884
sS'iphone-icon-large'
p885
NsS'symbian-keypwd'
p886
NsS'symbian8-uid'
p887
NsS'symbian-cert-key'
p888
NsS'winmobile-ampd-part-number'
p889
NsS'arch'
p890
NsS'nds-romheadertemplate'
p891
NsS'webos-icon'
p892
NsS'wp81-ext-device-capabilities'
p893
(lp894
sS'psp-dlgprotectdocument'
p895
NsS'ws8-splash-screen-background'
p896
NsS'android-icon-mdpi'
p897
NsS'android-sdk-build-tools-version'
p898
NsS'nds-icon'
p899
NsS'ws8-custom-manifest-fill'
p900
NsS'iphone-development-cert'
p901
NsS'symbian-icon2-mask-black'
p902
NsS'blackberry-phone-icon'
p903
NsS'iphone-enable-4inch-retina'
p904
NsS'ws8-custom-manifest'
p905
NsS'version-major'
p906
NsS'wp8-genre-isgame'
p907
NsS'uiq3-uid'
p908
NsS'iphone-splash-retina-generate'
p909
NsS'tizen-hw-acceleration'
p910
NsS'iphone_bundle_localisations'
p911
NsS'tizen-dist1-key'
p912
NsS'wp81-custom-manifest-fill'
p913
NsS'wp8-custom-manifest'
p914
NsS'nds-bannertitle-ge'
p915
NsS'iphone-sign-for-distribution'
p916
NsS'wp8-tile-fliptemplate-medium-back-image'
p917
NsS'wp8-publisher-id'
p918
NsS'icon'
p919
NsS'android-target-sdk-version'
p920
NsS'win10-ext-capabilities'
p921
(lp922
sS'wp8-exclude-wxga'
p923
NsS'wp81-identity-name'
p924
NsS'uiq3-icon2-mask'
p925
NsS'iphone-splashscreen-portrait'
p926
NsS'iphone-icon-high-res'
p927
NsS'ws81-distribution-pfx-password'
p928
NsS'playbook-author'
p929
NsS'wp8-custom-manifest-fill'
p930
NsS'linux-ext-lib'
p931
(lp932
sS'blackberry-permissions-access-internet'
p933
NsS'lgtv-use-drm'
p934
NsS'win10-splash-screen-image480x800'
p935
NsS'symbian-platsecflags'
p936
NsS'ws8-description'
p937
NsS'blackberry-playbook-icon'
p938
NsS'win10-distribution-cer'
p939
NsS'copyright'
p940
NsS'winmobile-cab-compress'
p941
NsS'win32-gles-directory'
p942
NsS'wp8-author'
p943
NsS'android-ext-min-sdk-version'
p944
(lp945
I4
asS'iphone-uiviewcontroller-based-status-bar'
p946
NsS'ws81-logo-image150x150'
p947
NsS'osx-signing-identity-app'
p948
NsS'tizen-project-url'
p949
NsS'symbian-icon-svg'
p950
NsS'android-aliasname'
p951
NsS'psp-dlgmanual'
p952
NsS'brew-uid'
p953
NsS'wp81-ext-native-only-dll'
p954
(lp955
sS'symbian-locationsupport'
p956
NsS'wp81-logo-image50x50'
p957
NsS'ws8-ext-managed-dll'
p958
(lp959
sS'nds-bannertitle-it'
p960
NsS'ws81-custom-manifest-fill'
p961
NsS'ws8-ext-sdk-manifest-part'
p962
(lp963
sS'uiq3-icon1-mask'
p964
NsS'winmobile-icon16'
p965
NsS'ws8-product-name'
p966
NsS'blackberry-cskpass'
p967
NsS'winmobile-start-menu-folder'
p968
NsS'brew-clsid'
p969
NsS'roku-requires-bluetooth'
p970
NsS'iphone-default-development-profile'
p971
NsS'ws8-ext-device-capabilities'
p972
(lp973
sS'blackberry-permissions-use-camera'
p974
NsS'ws81-extra-pri'
p975
(lp976
sS'iphone-prerendered-icon'
p977
NsS'iphone-appid'
p978
NsS'ws8-identity-name'
p979
NsS'tizen-dist2-CA-path'
p980
NsS'android-external-jars'
p981
(lp982
S'c:/marmalade/7.10/platform_libs/android/amazon-ads-android-sdk/third_party/lib/amazon-ads-5.5.149.jar'
p983
aS'c:/marmalade/7.10/extensions/s3eamazonads/lib/android/s3eAmazonAds.jar'
p984
asS'winmobile-icon64'
p985
NsS'blackberry-permissions-post-notification'
p986
NsS'winmobile-setup-dll'
p987
NsS'firefoxos-manifest'
p988
NsS'win8-winrt-extra-res'
p989
(lp990
sS'wp81-ext-sdk-manifest-part'
p991
(lp992
sS'symbian9-uid'
p993
NsS'iphone-icon-ipad-ios7'
p994
NsS'winmobile-trace-file'
p995
NsS'roku-splash-color'
p996
NsS'psp-appversion'
p997
NsS'android-java-target-version'
p998
NsS'ws8-publisher-id'
p999
NsS'win10-splash-screen-background'
p1000
NsS'win10-product-id'
p1001
NsS'win10-logo-image30x30'
p1002
NsS'winmobile-png45'
p1003
NsS'wp81-extra-res'
p1004
(lp1005
sS'android-storepass'
p1006
NsS'nacl-icon-16X16'
p1007
NsS'osx-signing-identity-inst'
p1008
NsS'android-custom-activity'
p1009
NsS'psp-discversion'
p1010
NsS'wp81-ext-managed-dll'
p1011
(lp1012
sS'nacl-clear-user-data'
p1013
NsS'psp-copyright'
p1014
NsS'win10-ext-managed-dll'
p1015
(lp1016
sS'win10-logo-image50x50'
p1017
NsS'embed-icf'
p1018
NsS'tizen-manifest'
p1019
NsS'osx-icon'
p1020
NsS'webos-appinfo'
p1021
NsS'psp-dlghealthwarning'
p1022
NsS'webos-appid'
p1023
NsS'roku-icon-side-hd'
p1024
NsS'iphone-icon-ipad-search-high-res-ios7'
p1025
NsS'iphone-extra-plist'
p1026
(lp1027
sS'ws81-ext-sdk-manifest-part'
p1028
(lp1029
sS'loader_name_prefix'
p1030
NsS'iphone-launch-dir'
p1031
NsS'nds-titlename'
p1032
NsS'ws81-logo-image50x50'
p1033
NsS'wp81-custom-manifest'
p1034
NsS'osx-entitlements-plist'
p1035
NsS'win10-product-version'
p1036
NsS'psp-dlgicon0'
p1037
NsS'winmobile-nouninstall'
p1038
NsS'psp-discid'
p1039
NsS'tizen-dist2-password'
p1040
NsS'android-supports-gl-texture'
p1041
(lp1042
sS'ws8-ext-sdk-ref'
p1043
(lp1044
sS'iphone-extra-string'
p1045
(lp1046
sS'version-string'
p1047
NsS'iphone-icon-high-res-ios7'
p1048
NsS'ws8-certificate-end-date'
p1049
NsS'nacl-skip-zip'
p1050
NsS'win10-custom-manifest'
p1051
NsS'tizen-so'
p1052
(lp1053
sS'win10-logo-image44x44'
p1054
NsS'win10-custom-manifest-fill'
p1055
NsS'wp8-tile-fliptemplate-small-image'
p1056
NsS'win10-certificate-end-date'
p1057
NsS'playbook-authorid'
p1058
NsS'win10-publisher-id'
p1059
NsS'iphone-signing-identity'
p1060
NsS'roku-persist-quota'
p1061
NsS'nds-bannertitle-fr'
p1062
NsS'ws8-distribution-pfx'
p1063
NsS'ws8-publisher-display-name'
p1064
NsS'brew-icon-small'
p1065
NsS'psp-dlgpic2'
p1066
NsS'psp-dlgpic0'
p1067
NsS'win10-phone-product-id'
p1068
NsS'psp-pic0'
p1069
NsS'psp-pic1'
p1070
NsS'win32-pref-windowtitle'
p1071
NsS'psp-icon0'
p1072
NsS'psp-icon1'
p1073
NsS'ws81-identity-name'
p1074
NsS'win10-distribution-pfx'
p1075
NsS'winmobile-icon'
p1076
NsS'iphone-no-splash'
p1077
NsS'iphone-splash'
p1078
NsS'iphone-app-fonts'
p1079
NsS'wp8-ext-native-dll'
p1080
(lp1081
sS'wp81-splash-screen-image480x800'
p1082
NsS'ws81-distribution-cer'
p1083
NsS'win10-ext-sdk-manifest-part'
p1084
(lp1085
sS'uiq3-icon2'
p1086
NsS'uiq3-icon3'
p1087
NsS'uiq3-icon1'
p1088
NsS'uiq3-icon1-format'
p1089
NsS'ws8-logo-image50x50'
p1090
NsS'iphone-info-plist-override'
p1091
NsS'symbian-run-on-install'
p1092
NsS'wp81-description'
p1093
NsS'ws81-publisher-display-name'
p1094
NsS'android-version-name'
p1095
NsS'firefoxos-xulrunner'
p1096
NsS'symbian-soundrecordsupport'
p1097
NsS'iphone-backgroundmode-audio'
p1098
NsS'nds-bannertitle-sp'
p1099
NsS'win10-extra-pri'
p1100
(lp1101
sS'psp-producer'
p1102
NsS'iphone-apple-wwdr-cert'
p1103
NsS'android-icon-nonstandard'
p1104
NsS'win32-pref-processtitle'
p1105
NsS'android-icon-xhdpi'
p1106
NsS'nds-bannertitle-hn'
p1107
NsS'tizen-dist2-key'
p1108
NsS'brew-depends'
p1109
NsS'ws81-custom-manifest'
p1110
NsS'iphone-allow-launch-rotation'
p1111
NsS'brew-mif'
p1112
NsS'iphone-icon-ipad-search-ios7'
p1113
NsS'brew-icon-medium'
p1114
NsS'iphone-bundle-url-name'
p1115
NsS'wp8-tile-fliptemplate-large-front-image'
p1116
NsS'tizen-dist2-CA-root-path'
p1117
NsS'ws81-description'
p1118
NsS'uiq3-icon3-format'
p1119
NsS'win10-publisher-display-name'
p1120
NsS'ws81-logo-image30x30'
p1121
NsS'win10-ext-device-capabilities'
p1122
(lp1123
sS'win8-phone-extra-res'
p1124
(lp1125
sS'iphone-signing-host'
p1126
NsS'tizen-icon'
p1127
NsS'osx-info-plist'
p1128
NsS'symbian-icon1-format'
p1129
NsS'ws81-distribution-pfx'
p1130
NsS'win32-aux-dll'
p1131
(lp1132
sS'blackberry-authorid'
p1133
NsS'ws81-publisher-id'
p1134
NsS'win8-store-extra-res'
p1135
(lp1136
sS'wp8-description'
p1137
NsS'iphone-link-opts'
p1138
(lp1139
S'-Fc:/marmalade/7.10/platform_libs/iphone/amazon-ads-ios-sdk/third_party/Ads -framework AmazonAd'
p1140
aS'-weak_framework AdSupport -weak_framework CoreLocation -weak_framework SystemConfiguration'
p1141
aS'-weak_framework CoreTelephony -weak_framework MediaPlayer'
p1142
aS'-weak_framework EventKit -weak_framework EventKitUI'
p1143
asS'ws81-ext-sdk-ref'
p1144
(lp1145
sS'roku-splash-min-time'
p1146
NsS'wp8-tile-fliptemplate-medium-front-image'
p1147
NsS'iphone-disable-launch-images'
p1148
NsS'android-sdk-platform-version'
p1149
NsS'provider'
p1150
NsS'playbook-keystore'
p1151
NsS'tizen-appid'
p1152
NsS'wp8-extra-res'
p1153
(lp1154
sS'symbian-osexecsupport'
p1155
NsS'android-install-location'
p1156
NsS'nds-privatesavedatasize'
p1157
NsS'iphone-disable-testflight'
p1158
NsS'playbook-storepass'
p1159
NsS'android-icon-ldpi'
p1160
NsS'manufacturer'
p1161
NsS'itunes-artwork'
p1162
NsS'iphone-extra-sections'
p1163
NsS'ws81-product-name'
p1164
NsS'ws81-ext-native-dll'
p1165
(lp1166
sS'ws8-extra-pri'
p1167
(lp1168
sS'win32-icon'
p1169
NsS'ws8-logo-image30x30'
p1170
NsS'wp8-ext-managed-dll'
p1171
(lp1172
sS'iphone-splashscreen-landscape'
p1173
NsS'symbian-maxheapsize'
p1174
NsS'android-extra-packages'
p1175
(lp1176
sS'priv-sign-key'
p1177
NsS'networking'
p1178
NsS'android-icon'
p1179
NsS'iphone-icon-settings'
p1180
NsS'nacl-manifest'
p1181
NsS'wp81-phone-product-id'
p1182
NsS'firefoxos-icon-60X60'
p1183
NsS'iphone-distribution-cert'
p1184
NsS'android_extra_strings'
p1185
NsS'nds-bannertitle-en'
p1186
NsS'blackberry-permissions-record-audio'
p1187
NsS'android-so'
p1188
(lp1189
S'c:/marmalade/7.10/extensions/s3eamazonads/lib/android/libs3eAmazonAds.so'
p1190
asS'wp8-higher-mem'
p1191
NsS'wp8-ext-sdk-ref'
p1192
(lp1193
sS'wp8-fast-resume-mode'
p1194
NsS'roku-splash-screen-hd'
p1195
NsS'iphone-bundle-url-schemes'
p1196
NsS'roku-screensaver-private'
p1197
NsS'osx-extra-res'
p1198
(lp1199
sS'ws81-extra-res'
p1200
(lp1201
sS'playbook-icon'
p1202
NsS'uid'
p1203
NsS'pkguid-as-uid'
p1204
NsS'wp81-ext-native-dll'
p1205
(lp1206
sS'tizen-dist1-password'
p1207
NsS'roku-screensaver-title'
p1208
NsS'osx-minimum-osx-version'
p1209
NsS'symbian-cert'
p1210
NsS'iphone-icon'
p1211
NsS'ws81-ext-capabilities'
p1212
(lp1213
sS'ws8-distribution-cer'
p1214
NsS'playbook-access-shared'
p1215
NsS'iphone-icon-ipad-high-res-ios7'
p1216
NsS'iphone-link-libs'
p1217
(lp1218
sS'wp8-exclude-wvga'
p1219
NsS'assets'
p1220
NsS'wp8-tile-fliptemplate-large-back-image'
p1221
NsS'pub-sign-key'
p1222
NsS'nacl-legacy-ext'
p1223
NsS'android-extra-strings'
p1224
(lp1225
sS'tizen-author-CA-path'
p1226
Nssg382
g673
sbssS'platform'
p1227
S'S3E'
p1228
sg75
S'1.0'
p1229
sS'arcade_platform'
p1230
g4
sS'extensions'
p1231
(dp1232
sS'source_groups_tree'
p1233
(dp1234
S'(libpng)'
p1235
(dp1236
S'h'
p1237
(dp1238
S'c:/marmalade/7.10/modules/third_party/libpng/h/png.h'
p1239
(lp1240
I1
a(dp1241
asS'c:/marmalade/7.10/modules/third_party/libpng/h/pngconf.h'
p1242
(lp1243
I1
ag1241
assS'c:/marmalade/7.10/modules/third_party/libpng/libpng.mkf'
p1244
(lp1245
I1
a(dp1246
assS'(amazon-ads-android-sdk)'
p1247
(dp1248
S'c:/marmalade/7.10/platform_libs/android/amazon-ads-android-sdk/amazon-ads-android-sdk.mkf'
p1249
(lp1250
I1
a(dp1251
assS'(tiniconv)'
p1252
(dp1253
S'c:/marmalade/7.10/modules/third_party/tiniconv/source/tiniconv.h'
p1254
(lp1255
I1
a(dp1256
asS'c:/marmalade/7.10/modules/third_party/tiniconv/source/tiniconv_int.h'
p1257
(lp1258
I1
ag1256
asS'c:/marmalade/7.10/modules/third_party/tiniconv/tiniconv.mkf'
p1259
(lp1260
I1
a(dp1261
assS'(amazon-ads-ios-sdk)'
p1262
(dp1263
S'c:/marmalade/7.10/platform_libs/iphone/amazon-ads-ios-sdk/amazon-ads-ios-sdk.mkf'
p1264
(lp1265
I1
a(dp1266
assS'source'
p1267
(dp1268
S'd:/Marmalade/Stage1/source/input.h'
p1269
(lp1270
I1
a(dp1271
asS'd:/Marmalade/Stage1/source/Stage1.cpp'
p1272
(lp1273
I1
ag1271
asS'd:/Marmalade/Stage1/source/input.cpp'
p1274
(lp1275
I1
ag1271
assS'Extensions'
p1276
(dp1277
S's3eAmazonAds'
p1278
(dp1279
S'interface'
p1280
(dp1281
S'c:/marmalade/7.10/extensions/s3eamazonads/interface/s3eAmazonAds.defines.txt'
p1282
(lp1283
I1
a(dp1284
asS'c:/marmalade/7.10/extensions/s3eamazonads/interface/s3eAmazonAds_interface.cpp'
p1285
(lp1286
I1
ag1284
assS'c:/marmalade/7.10/extensions/s3eamazonads/s3eamazonads.mkf'
p1287
(lp1288
I1
a(dp1289
asS'c:/marmalade/7.10/extensions/s3eamazonads/h/s3eAmazonAds.h'
p1290
(lp1291
I1
ag1284
assS'PVRTexTool'
p1292
(dp1293
S'interface'
p1294
(dp1295
S'c:/marmalade/7.10/extensions/pvrtextool/interface/PVRTexTool_interface.cpp'
p1296
(lp1297
I1
a(dp1298
asS'c:/marmalade/7.10/extensions/pvrtextool/interface/PVRTexTool.defines.txt'
p1299
(lp1300
I1
ag1298
assS'c:/marmalade/7.10/extensions/pvrtextool/h/PVRTexTool.h'
p1301
(lp1302
I1
ag1298
asS'c:/marmalade/7.10/extensions/pvrtextool/pvrtextool.mkf'
p1303
(lp1304
I1
a(dp1305
asssS'(s3e-default)'
p1306
(dp1307
S'c:/marmalade/7.10/s3e/s3e-default.mkf'
p1308
(lp1309
I1
a(dp1310
assS"'Marmalade Studio'"
p1311
(dp1312
S'iwgl'
p1313
(dp1314
S'c:/marmalade/7.10/modules/iwgl/iwgl.mkf'
p1315
(lp1316
I1
a(dp1317
asS'c:/marmalade/7.10/modules/iwgl/h/IwGL.h'
p1318
(lp1319
I1
a(dp1320
asS'c:/marmalade/7.10/modules/iwgl/docs/iwgl.config.txt'
p1321
(lp1322
I1
ag1320
asS'c:/marmalade/7.10/modules/iwgl/h/IwGLExt.h'
p1323
(lp1324
I1
ag1320
assS'iw2d'
p1325
(dp1326
S'c:/marmalade/7.10/modules/iw2d/iw2d.mkf'
p1327
(lp1328
I1
a(dp1329
asS'c:/marmalade/7.10/modules/iw2d/docs/iw2d_public.defines.txt'
p1330
(lp1331
I1
a(dp1332
asS'c:/marmalade/7.10/modules/iw2d/h/Iw2D.h'
p1333
(lp1334
I1
ag1332
asS'c:/marmalade/7.10/modules/iw2d/docs/iw2d.config.txt'
p1335
(lp1336
I1
ag1332
assS'iwgxfont'
p1337
(dp1338
S'c:/marmalade/7.10/modules/iwgxfont/h/IwGxFont.h'
p1339
(lp1340
I1
a(dp1341
asS'c:/marmalade/7.10/modules/iwgxfont/h/IwGxFontPreparedData.h'
p1342
(lp1343
I1
ag1341
asS'c:/marmalade/7.10/modules/iwgxfont/iwgxfont.mkf'
p1344
(lp1345
I1
a(dp1346
asS'c:/marmalade/7.10/modules/iwgxfont/docs/iwgxfont.config.txt'
p1347
(lp1348
I1
ag1341
asS'c:/marmalade/7.10/modules/iwgxfont/h/IwGxFontState.h'
p1349
(lp1350
I1
ag1341
asS'c:/marmalade/7.10/modules/iwgxfont/docs/iwgxfont_public.defines.txt'
p1351
(lp1352
I1
ag1341
asS'c:/marmalade/7.10/modules/iwgxfont/h/IwGxFontContainer.h'
p1353
(lp1354
I1
ag1341
asS'c:/marmalade/7.10/modules/iwgxfont/h/IwGxFontGlyph.h'
p1355
(lp1356
I1
ag1341
asS'c:/marmalade/7.10/modules/iwgxfont/h/IwGxFontTypes.h'
p1357
(lp1358
I1
ag1341
assS'iwgeom'
p1359
(dp1360
S'c:/marmalade/7.10/modules/iwgeom/h/IwGeomQuat.h'
p1361
(lp1362
I1
a(dp1363
asS'c:/marmalade/7.10/modules/iwgeom/h/IwGeomMat2D.h.tpl'
p1364
(lp1365
I1
ag1363
asS'c:/marmalade/7.10/modules/iwgeom/h/IwGeomIntersect.h'
p1366
(lp1367
I1
ag1363
asS'c:/marmalade/7.10/modules/iwgeom/h/IwGeomQuat.h.tpl'
p1368
(lp1369
I1
ag1363
asS'c:/marmalade/7.10/modules/iwgeom/h/IwGeomVec.h.tpl'
p1370
(lp1371
I1
ag1363
asS'c:/marmalade/7.10/modules/iwgeom/docs/iwgeom.config.txt'
p1372
(lp1373
I1
ag1363
asS'c:/marmalade/7.10/modules/iwgeom/h/IwGeomFBBox.h'
p1374
(lp1375
I1
ag1363
asS'c:/marmalade/7.10/modules/iwgeom/iwgeom.mkf'
p1376
(lp1377
I1
a(dp1378
asS'c:/marmalade/7.10/modules/iwgeom/h/IwGeomFSphere.h'
p1379
(lp1380
I1
ag1363
asS'c:/marmalade/7.10/modules/iwgeom/h/IwGeomSVec4.h'
p1381
(lp1382
I1
ag1363
asS'c:/marmalade/7.10/modules/iwgeom/h/IwGeomPlane.h'
p1383
(lp1384
I1
ag1363
asS'c:/marmalade/7.10/modules/iwgeom/h/IwGeomSVec3.h'
p1385
(lp1386
I1
ag1363
asS'c:/marmalade/7.10/modules/iwgeom/h/IwGeomVec4.h'
p1387
(lp1388
I1
ag1363
asS'c:/marmalade/7.10/modules/iwgeom/h/IwGeom.h'
p1389
(lp1390
I1
ag1363
asS'c:/marmalade/7.10/modules/iwgeom/h/IwGeomVec3.h'
p1391
(lp1392
I1
ag1363
asS'c:/marmalade/7.10/modules/iwgeom/h/IwGeomMat.h.tpl'
p1393
(lp1394
I1
ag1363
asS'c:/marmalade/7.10/modules/iwgeom/h/IwGeomFQuat.h'
p1395
(lp1396
I1
ag1363
asS'c:/marmalade/7.10/modules/iwgeom/h/IwGeomSphere.h'
p1397
(lp1398
I1
ag1363
asS'c:/marmalade/7.10/modules/iwgeom/h/IwGeomLegacy.h'
p1399
(lp1400
I1
ag1363
asS'c:/marmalade/7.10/modules/iwgeom/h/IwGeomVec2.h'
p1401
(lp1402
I1
ag1363
asS'c:/marmalade/7.10/modules/iwgeom/h/IwGeomFIntersect.h'
p1403
(lp1404
I1
ag1363
asS'c:/marmalade/7.10/modules/iwgeom/h/IwGeomFPlane.h'
p1405
(lp1406
I1
ag1363
asS'c:/marmalade/7.10/modules/iwgeom/h/IwGeomSQuat.h'
p1407
(lp1408
I1
ag1363
asS'c:/marmalade/7.10/modules/iwgeom/h/IwGeomSVec2.h'
p1409
(lp1410
I1
ag1363
asS'c:/marmalade/7.10/modules/iwgeom/h/IwGeomBBox.h'
p1411
(lp1412
I1
ag1363
asS'c:/marmalade/7.10/modules/iwgeom/h/IwGeomFMat2D.h'
p1413
(lp1414
I1
ag1363
asS'c:/marmalade/7.10/modules/iwgeom/h/IwGeomVec.h'
p1415
(lp1416
I1
ag1363
asS'c:/marmalade/7.10/modules/iwgeom/h/IwGeomMenu.h'
p1417
(lp1418
I1
ag1363
asS'c:/marmalade/7.10/modules/iwgeom/h/IwGeomFVec2.h'
p1419
(lp1420
I1
ag1363
asS'c:/marmalade/7.10/modules/iwgeom/h/IwGeomFMat.h'
p1421
(lp1422
I1
ag1363
asS'c:/marmalade/7.10/modules/iwgeom/h/IwGeomCore.h'
p1423
(lp1424
I1
ag1363
asS'c:/marmalade/7.10/modules/iwgeom/h/IwGeomFVec3.h'
p1425
(lp1426
I1
ag1363
asS'c:/marmalade/7.10/modules/iwgeom/h/IwGeomMat2D.h'
p1427
(lp1428
I1
ag1363
asS'c:/marmalade/7.10/modules/iwgeom/h/IwGeomMat.h'
p1429
(lp1430
I1
ag1363
asS'c:/marmalade/7.10/modules/iwgeom/h/IwGeomFVec4.h'
p1431
(lp1432
I1
ag1363
asS'c:/marmalade/7.10/modules/iwgeom/h/IwGeomSqrt.h'
p1433
(lp1434
I1
ag1363
assS'iwresmanager'
p1435
(dp1436
S'c:/marmalade/7.10/modules/iwresmanager/h/IwResHandler.h'
p1437
(lp1438
I1
a(dp1439
asS'c:/marmalade/7.10/modules/iwresmanager/docs/iwresmanager.config.txt'
p1440
(lp1441
I1
ag1439
asS'c:/marmalade/7.10/modules/iwresmanager/h/IwResHandlerImage.h'
p1442
(lp1443
I1
ag1439
asS'c:/marmalade/7.10/modules/iwresmanager/h/IwResHandlerITX.h'
p1444
(lp1445
I1
ag1439
asS'c:/marmalade/7.10/modules/iwresmanager/h/IwResManager.h'
p1446
(lp1447
I1
ag1439
asS'c:/marmalade/7.10/modules/iwresmanager/h/IwResSerialise.h'
p1448
(lp1449
I1
ag1439
asS'c:/marmalade/7.10/modules/iwresmanager/iwresmanager.mkf'
p1450
(lp1451
I1
a(dp1452
asS'c:/marmalade/7.10/modules/iwresmanager/h/IwResManagerClass.h'
p1453
(lp1454
I1
ag1439
asS'c:/marmalade/7.10/modules/iwresmanager/h/IwResGroup.h'
p1455
(lp1456
I1
ag1439
asS'c:/marmalade/7.10/modules/iwresmanager/h/IwResHandlerGROUP.h'
p1457
(lp1458
I1
ag1439
assS'iwgx'
p1459
(dp1460
S'c:/marmalade/7.10/modules/iwgx/h/IwGxPrint.h'
p1461
(lp1462
I1
a(dp1463
asS'c:/marmalade/7.10/modules/iwgx/h/IwGxError.h'
p1464
(lp1465
I1
ag1463
asS'c:/marmalade/7.10/modules/iwgx/h/IwGxSurface.h'
p1466
(lp1467
I1
ag1463
asS'c:/marmalade/7.10/modules/iwgx/h/IwGxTransformSW.h'
p1468
(lp1469
I1
ag1463
asS'c:/marmalade/7.10/modules/iwgx/h/IwGxDebug.h'
p1470
(lp1471
I1
ag1463
asS'c:/marmalade/7.10/modules/iwgx/h/IwClip.h'
p1472
(lp1473
I1
ag1463
asS'c:/marmalade/7.10/modules/iwgx/docs/iwgx.config.txt'
p1474
(lp1475
I1
ag1463
asS'c:/marmalade/7.10/modules/iwgx/h/IwColour.h'
p1476
(lp1477
I1
ag1463
asS'c:/marmalade/7.10/modules/iwgx/h/IwGxTypes.h'
p1478
(lp1479
I1
ag1463
asS'c:/marmalade/7.10/modules/iwgx/h/IwGx.h'
p1480
(lp1481
I1
ag1463
asS'c:/marmalade/7.10/modules/iwgx/h/IwDebugPrim.h'
p1482
(lp1483
I1
ag1463
asS'c:/marmalade/7.10/modules/iwgx/h/IwGxMetrics.h'
p1484
(lp1485
I1
ag1463
asS'c:/marmalade/7.10/modules/iwgx/iwgx.mkf'
p1486
(lp1487
I1
a(dp1488
asS'c:/marmalade/7.10/modules/iwgx/h/IwClip.inl'
p1489
(lp1490
I1
ag1463
asS'c:/marmalade/7.10/modules/iwgx/h/IwMatAnim.h'
p1491
(lp1492
I1
ag1463
asS'c:/marmalade/7.10/modules/iwgx/h/IwGxState.h'
p1493
(lp1494
I1
ag1463
asS'c:/marmalade/7.10/modules/iwgx/h/IwTexture.h'
p1495
(lp1496
I1
ag1463
asS'c:/marmalade/7.10/modules/iwgx/h/IwGxStream.h'
p1497
(lp1498
I1
ag1463
asS'c:/marmalade/7.10/modules/iwgx/h/IwTPage.h'
p1499
(lp1500
I1
ag1463
asS'c:/marmalade/7.10/modules/iwgx/h/IwResHandlerMTL.h'
p1501
(lp1502
I1
ag1463
asS'c:/marmalade/7.10/modules/iwgx/h/IwMaterial.h'
p1503
(lp1504
I1
ag1463
asS'c:/marmalade/7.10/modules/iwgx/h/IwGxFuncTable.h'
p1505
(lp1506
I1
ag1463
asS'c:/marmalade/7.10/modules/iwgx/h/IwFColour.h'
p1507
(lp1508
I1
ag1463
asS'c:/marmalade/7.10/modules/iwgx/docs/iwgx_public.defines.txt'
p1509
(lp1510
I1
ag1463
asS'c:/marmalade/7.10/modules/iwgx/h/IwGxShaderTechnique.h'
p1511
(lp1512
I1
ag1463
assS'iwutil'
p1513
(dp1514
S'c:/marmalade/7.10/modules/iwutil/h/IwDivTable.h'
p1515
(lp1516
I1
a(dp1517
asS'c:/marmalade/7.10/modules/iwutil/h/IwPath.h'
p1518
(lp1519
I1
ag1517
asS'c:/marmalade/7.10/modules/iwutil/h/IwFile.h'
p1520
(lp1521
I1
ag1517
asS'c:/marmalade/7.10/modules/iwutil/h/IwImage.h'
p1522
(lp1523
I1
ag1517
asS'c:/marmalade/7.10/modules/iwutil/h/IwMenu.h'
p1524
(lp1525
I1
ag1517
asS'c:/marmalade/7.10/modules/iwutil/h/IwArray.h'
p1526
(lp1527
I1
ag1517
asS'c:/marmalade/7.10/modules/iwutil/h/IwMemBucketHelpers.h'
p1528
(lp1529
I1
ag1517
asS'c:/marmalade/7.10/modules/iwutil/h/IwClassFactory.h'
p1530
(lp1531
I1
ag1517
asS'c:/marmalade/7.10/modules/iwutil/iwutil.mkf'
p1532
(lp1533
I1
a(dp1534
asS'c:/marmalade/7.10/modules/iwutil/h/IwDivide.h'
p1535
(lp1536
I1
ag1517
asS'c:/marmalade/7.10/modules/iwutil/h/IwMemory.h'
p1537
(lp1538
I1
ag1517
asS'c:/marmalade/7.10/modules/iwutil/h/IwManagedList.h'
p1539
(lp1540
I1
ag1517
asS'c:/marmalade/7.10/modules/iwutil/h/IwUtil.h'
p1541
(lp1542
I1
ag1517
asS'c:/marmalade/7.10/modules/iwutil/h/IwFibre.h'
p1543
(lp1544
I1
ag1517
asS'c:/marmalade/7.10/modules/iwutil/h/IwBuffer.h'
p1545
(lp1546
I1
ag1517
asS'c:/marmalade/7.10/modules/iwutil/h/IwHashString.h'
p1547
(lp1548
I1
ag1517
asS'c:/marmalade/7.10/modules/iwutil/h/IwSingleton.h'
p1549
(lp1550
I1
ag1517
asS'c:/marmalade/7.10/modules/iwutil/h/IwSerialise.h'
p1551
(lp1552
I1
ag1517
asS'c:/marmalade/7.10/modules/iwutil/h/IwMath.h'
p1553
(lp1554
I1
ag1517
asS'c:/marmalade/7.10/modules/iwutil/h/IwTypes.h'
p1555
(lp1556
I1
ag1517
asS'c:/marmalade/7.10/modules/iwutil/h/IwTextParser.h'
p1557
(lp1558
I1
ag1517
asS'c:/marmalade/7.10/modules/iwutil/h/IwOptimiseSpeed.h'
p1559
(lp1560
I1
ag1517
asS'c:/marmalade/7.10/modules/iwutil/h/IwKeymap.h'
p1561
(lp1562
I1
ag1517
asS'c:/marmalade/7.10/modules/iwutil/h/IwCore.h'
p1563
(lp1564
I1
ag1517
asS'c:/marmalade/7.10/modules/iwutil/h/IwAllocator.h'
p1565
(lp1566
I1
ag1517
asS'c:/marmalade/7.10/modules/iwutil/h/IwChar.h'
p1567
(lp1568
I1
ag1517
asS'c:/marmalade/7.10/modules/iwutil/h/IwOptimiseThumb.h'
p1569
(lp1570
I1
ag1517
asS'c:/marmalade/7.10/modules/iwutil/h/IwAutoFile.h'
p1571
(lp1572
I1
ag1517
asS'c:/marmalade/7.10/modules/iwutil/h/IwManaged.h'
p1573
(lp1574
I1
ag1517
asS'c:/marmalade/7.10/modules/iwutil/h/IwOptimiseARM.h'
p1575
(lp1576
I1
ag1517
asS'c:/marmalade/7.10/modules/iwutil/h/IwTextParserITX.h'
p1577
(lp1578
I1
ag1517
asS'c:/marmalade/7.10/modules/iwutil/h/IwList.h'
p1579
(lp1580
I1
ag1517
asS'c:/marmalade/7.10/modules/iwutil/h/IwUncopyable.h'
p1581
(lp1582
I1
ag1517
asS'c:/marmalade/7.10/modules/iwutil/h/IwRandom.h'
p1583
(lp1584
I1
ag1517
asS'c:/marmalade/7.10/modules/iwutil/h/IwProfileMenu.h'
p1585
(lp1586
I1
ag1517
asS'c:/marmalade/7.10/modules/iwutil/h/IwDebug.h'
p1587
(lp1588
I1
ag1517
asS'c:/marmalade/7.10/modules/iwutil/h/IwTextParseable.h'
p1589
(lp1590
I1
ag1517
asS'c:/marmalade/7.10/modules/iwutil/h/IwResource.h'
p1591
(lp1592
I1
ag1517
asS'c:/marmalade/7.10/modules/iwutil/h/IwOptimiseSize.h'
p1593
(lp1594
I1
ag1517
asS'c:/marmalade/7.10/modules/iwutil/h/IwVariableBitField.h'
p1595
(lp1596
I1
ag1517
asS'c:/marmalade/7.10/modules/iwutil/h/IwCopyingPtr.h'
p1597
(lp1598
I1
ag1517
asS'c:/marmalade/7.10/modules/iwutil/docs/iwutil.config.txt'
p1599
(lp1600
I1
ag1517
asS'c:/marmalade/7.10/modules/iwutil/h/IwUtilInitTerm.h'
p1601
(lp1602
I1
ag1517
asS'c:/marmalade/7.10/modules/iwutil/h/IwEvent.h'
p1603
(lp1604
I1
ag1517
asS'c:/marmalade/7.10/modules/iwutil/h/IwRuntime.h'
p1605
(lp1606
I1
ag1517
asS'c:/marmalade/7.10/modules/iwutil/h/IwUTF8.h'
p1607
(lp1608
I1
ag1517
asS'c:/marmalade/7.10/modules/iwutil/h/IwImageHelper.h'
p1609
(lp1610
I1
ag1517
asS'c:/marmalade/7.10/modules/iwutil/h/IwMemManagerDL.h'
p1611
(lp1612
I1
ag1517
asS'c:/marmalade/7.10/modules/iwutil/h/IwMemBucket.h'
p1613
(lp1614
I1
ag1517
asS'c:/marmalade/7.10/modules/iwutil/h/IwString.h'
p1615
(lp1616
I1
ag1517
asssS'(zlib)'
p1617
(dp1618
g1237
(dp1619
S'c:/marmalade/7.10/modules/third_party/zlib/h/zconf.h'
p1620
(lp1621
I1
a(dp1622
asS'c:/marmalade/7.10/modules/third_party/zlib/h/zlib.h'
p1623
(lp1624
I1
ag1622
assS'c:/marmalade/7.10/modules/third_party/zlib/zlib.mkf'
p1625
(lp1626
I1
a(dp1627
assS'(libjpeg)'
p1628
(dp1629
g1237
(dp1630
S'c:/marmalade/7.10/modules/third_party/libjpeg/h/jpeglib.h'
p1631
(lp1632
I1
a(dp1633
asS'c:/marmalade/7.10/modules/third_party/libjpeg/h/jdhuff.h'
p1634
(lp1635
I1
ag1633
asS'c:/marmalade/7.10/modules/third_party/libjpeg/h/transupp.h'
p1636
(lp1637
I1
ag1633
asS'c:/marmalade/7.10/modules/third_party/libjpeg/h/cdjpeg.h'
p1638
(lp1639
I1
ag1633
asS'c:/marmalade/7.10/modules/third_party/libjpeg/h/jerror.h'
p1640
(lp1641
I1
ag1633
asS'c:/marmalade/7.10/modules/third_party/libjpeg/h/jconfig.h'
p1642
(lp1643
I1
ag1633
asS'c:/marmalade/7.10/modules/third_party/libjpeg/h/jmorecfg.h'
p1644
(lp1645
I1
ag1633
asS'c:/marmalade/7.10/modules/third_party/libjpeg/h/jdct.h'
p1646
(lp1647
I1
ag1633
asS'c:/marmalade/7.10/modules/third_party/libjpeg/h/cderror.h'
p1648
(lp1649
I1
ag1633
asS'c:/marmalade/7.10/modules/third_party/libjpeg/h/jmemsys.h'
p1650
(lp1651
I1
ag1633
asS'c:/marmalade/7.10/modules/third_party/libjpeg/h/jchuff.h'
p1652
(lp1653
I1
ag1633
asS'c:/marmalade/7.10/modules/third_party/libjpeg/h/jpegint.h'
p1654
(lp1655
I1
ag1633
asS'c:/marmalade/7.10/modules/third_party/libjpeg/h/jinclude.h'
p1656
(lp1657
I1
ag1633
asS'c:/marmalade/7.10/modules/third_party/libjpeg/h/jversion.h'
p1658
(lp1659
I1
ag1633
assS'c:/marmalade/7.10/modules/third_party/libjpeg/libjpeg.mkf'
p1660
(lp1661
I1
a(dp1662
asssS'files'
p1663
(dp1664
S'IwGxFontPreparedData.h'
p1665
g356
(cmkb_main
File
p1666
g358
Ntp1667
Rp1668
(dp1669
S'flags'
p1670
g1341
sS'group'
p1671
(lp1672
S"'Marmalade Studio'"
p1673
ag1337
asg382
g1342
sbsS'iterator'
p1674
g356
(g1666
g358
Ntp1675
Rp1676
(dp1677
g1670
(dp1678
sg1671
(lp1679
S"'Marmalade System (S3E)'"
p1680
aS'stdc headers'
p1681
aS'c++'
p1682
asg382
S'c:/marmalade/7.10/s3e/h/std/c++/iterator'
p1683
sbsS'IwGL.h'
p1684
g356
(g1666
g358
Ntp1685
Rp1686
(dp1687
g1670
g1320
sg1671
(lp1688
S"'Marmalade Studio'"
p1689
ag1313
asg382
g1318
sbsS's3e.h'
p1690
g356
(g1666
g358
Ntp1691
Rp1692
(dp1693
g1670
g1678
sg1671
(lp1694
g1680
asg382
S'c:/marmalade/7.10/s3e/h/s3e.h'
p1695
sbsS'errno.h'
p1696
g356
(g1666
g358
Ntp1697
Rp1698
(dp1699
g1670
g1678
sg1671
(lp1700
g1680
aS'stdc headers'
p1701
asg382
S'c:/marmalade/7.10/s3e/h/std/errno.h'
p1702
sbsS'IwSingleton.h'
p1703
g356
(g1666
g358
Ntp1704
Rp1705
(dp1706
g1670
g1517
sg1671
(lp1707
S"'Marmalade Studio'"
p1708
ag1513
asg382
g1549
sbsS'dlfcn.h'
p1709
g356
(g1666
g358
Ntp1710
Rp1711
(dp1712
g1670
g1678
sg1671
g1700
sg382
S'c:/marmalade/7.10/s3e/h/std/dlfcn.h'
p1713
sbsS'stdio_streambuf'
p1714
g356
(g1666
g358
Ntp1715
Rp1716
(dp1717
g1670
g1678
sg1671
g1679
sg382
S'c:/marmalade/7.10/s3e/h/std/c++/stdio_streambuf'
p1718
sbsS'sched.h'
p1719
g356
(g1666
g358
Ntp1720
Rp1721
(dp1722
g1670
g1678
sg1671
g1700
sg382
S'c:/marmalade/7.10/s3e/h/std/sched.h'
p1723
sbsS'IwGeomFMat2D.h'
p1724
g356
(g1666
g358
Ntp1725
Rp1726
(dp1727
g1670
g1363
sg1671
(lp1728
S"'Marmalade Studio'"
p1729
ag1359
asg382
g1413
sbsS's3eExt.h'
p1730
g356
(g1666
g358
Ntp1731
Rp1732
(dp1733
g1670
g1678
sg1671
g1694
sg382
S'c:/marmalade/7.10/s3e/h/s3eExt.h'
p1734
sbsS'grp.h'
p1735
g356
(g1666
g358
Ntp1736
Rp1737
(dp1738
g1670
g1678
sg1671
g1700
sg382
S'c:/marmalade/7.10/s3e/h/std/grp.h'
p1739
sbsS'list'
p1740
g356
(g1666
g358
Ntp1741
Rp1742
(dp1743
g1670
g1678
sg1671
g1679
sg382
S'c:/marmalade/7.10/s3e/h/std/c++/list'
p1744
sbsS'IwGeomMat.h.tpl'
p1745
g356
(g1666
g358
Ntp1746
Rp1747
(dp1748
g1670
g1363
sg1671
g1728
sg382
g1393
sbsS'istream'
p1749
g356
(g1666
g358
Ntp1750
Rp1751
(dp1752
g1670
g1678
sg1671
g1679
sg382
S'c:/marmalade/7.10/s3e/h/std/c++/istream'
p1753
sbsS'jpeglib.h'
p1754
g356
(g1666
g358
Ntp1755
Rp1756
(dp1757
g1670
g1633
sg1671
(lp1758
g1628
ag1237
asg382
g1631
sbsS'iw2d_public.defines.txt'
p1759
g356
(g1666
g358
Ntp1760
Rp1761
(dp1762
g1670
g1332
sg1671
(lp1763
S"'Marmalade Studio'"
p1764
ag1325
asg382
g1330
sbsS'iostream.h'
p1765
g356
(g1666
g358
Ntp1766
Rp1767
(dp1768
g1670
g1678
sg1671
g1679
sg382
S'c:/marmalade/7.10/s3e/h/std/c++/iostream.h'
p1769
sbsS'string'
p1770
g356
(g1666
g358
Ntp1771
Rp1772
(dp1773
g1670
g1678
sg1671
g1679
sg382
S'c:/marmalade/7.10/s3e/h/std/c++/string'
p1774
sbsS'IwMemory.h'
p1775
g356
(g1666
g358
Ntp1776
Rp1777
(dp1778
g1670
g1517
sg1671
g1707
sg382
g1537
sbsS'IwGeomPlane.h'
p1779
g356
(g1666
g358
Ntp1780
Rp1781
(dp1782
g1670
g1363
sg1671
g1728
sg382
g1383
sbsS'iw2d.config.txt'
p1783
g356
(g1666
g358
Ntp1784
Rp1785
(dp1786
g1670
g1332
sg1671
g1763
sg382
g1335
sbsS'iomanip'
p1787
g356
(g1666
g358
Ntp1788
Rp1789
(dp1790
g1670
g1678
sg1671
g1679
sg382
S'c:/marmalade/7.10/s3e/h/std/c++/iomanip'
p1791
sbsS'iwgeom.mkf'
p1792
g356
(g1666
g358
Ntp1793
Rp1794
(dp1795
g1670
g1378
sg1671
g1728
sg382
g1376
sbsS'IwGxError.h'
p1796
g356
(g1666
g358
Ntp1797
Rp1798
(dp1799
g1670
g1463
sg1671
(lp1800
S"'Marmalade Studio'"
p1801
ag1459
asg382
g1464
sbsS'IwGeom.h'
p1802
g356
(g1666
g358
Ntp1803
Rp1804
(dp1805
g1670
g1363
sg1671
g1728
sg382
g1389
sbsS'IwGeomVec4.h'
p1806
g356
(g1666
g358
Ntp1807
Rp1808
(dp1809
g1670
g1363
sg1671
g1728
sg382
g1387
sbsS'dir.h'
p1810
g356
(g1666
g358
Ntp1811
Rp1812
(dp1813
g1670
g1678
sg1671
(lp1814
g1680
aS'stdc headers'
p1815
aS'sys'
p1816
asg382
S'c:/marmalade/7.10/s3e/h/std/sys/dir.h'
p1817
sbsS'locale.h'
p1818
g356
(g1666
g358
Ntp1819
Rp1820
(dp1821
g1670
g1678
sg1671
g1700
sg382
S'c:/marmalade/7.10/s3e/h/std/locale.h'
p1822
sbsS'vector'
p1823
g356
(g1666
g358
Ntp1824
Rp1825
(dp1826
g1670
g1678
sg1671
g1679
sg382
S'c:/marmalade/7.10/s3e/h/std/c++/vector'
p1827
sbsS'IwManaged.h'
p1828
g356
(g1666
g358
Ntp1829
Rp1830
(dp1831
g1670
g1517
sg1671
g1707
sg382
g1573
sbsS's3eCompass.h'
p1832
g356
(g1666
g358
Ntp1833
Rp1834
(dp1835
g1670
g1678
sg1671
g1694
sg382
S'c:/marmalade/7.10/s3e/h/s3eCompass.h'
p1836
sbsS'cderror.h'
p1837
g356
(g1666
g358
Ntp1838
Rp1839
(dp1840
g1670
g1633
sg1671
g1758
sg382
g1648
sbsS'climits'
p1841
g356
(g1666
g358
Ntp1842
Rp1843
(dp1844
g1670
g1678
sg1671
g1679
sg382
S'c:/marmalade/7.10/s3e/h/std/c++/climits'
p1845
sbsS's3eVibra.h'
p1846
g356
(g1666
g358
Ntp1847
Rp1848
(dp1849
g1670
g1678
sg1671
g1694
sg382
S'c:/marmalade/7.10/s3e/h/s3eVibra.h'
p1850
sbsS'jversion.h'
p1851
g356
(g1666
g358
Ntp1852
Rp1853
(dp1854
g1670
g1633
sg1671
g1758
sg382
g1658
sbsS'fnmatch.h'
p1855
g356
(g1666
g358
Ntp1856
Rp1857
(dp1858
g1670
g1678
sg1671
g1700
sg382
S'c:/marmalade/7.10/s3e/h/std/fnmatch.h'
p1859
sbsS'IwGxState.h'
p1860
g356
(g1666
g358
Ntp1861
Rp1862
(dp1863
g1670
g1463
sg1671
g1800
sg382
g1493
sbsS's3eAudio.h'
p1864
g356
(g1666
g358
Ntp1865
Rp1866
(dp1867
g1670
g1678
sg1671
g1694
sg382
S'c:/marmalade/7.10/s3e/h/s3eAudio.h'
p1868
sbsS's3eSurface.h'
p1869
g356
(g1666
g358
Ntp1870
Rp1871
(dp1872
g1670
g1678
sg1671
g1694
sg382
S'c:/marmalade/7.10/s3e/h/s3eSurface.h'
p1873
sbsS'new'
p1874
g356
(g1666
g358
Ntp1875
Rp1876
(dp1877
g1670
g1678
sg1671
g1679
sg382
S'c:/marmalade/7.10/s3e/h/std/c++/new'
p1878
sbsS's3eWindow.h'
p1879
g356
(g1666
g358
Ntp1880
Rp1881
(dp1882
g1670
g1678
sg1671
(lp1883
g1680
aS'Extensions'
p1884
asg382
S'c:/marmalade/7.10/s3e/h/ext/s3eWindow.h'
p1885
sbsS'IwBuffer.h'
p1886
g356
(g1666
g358
Ntp1887
Rp1888
(dp1889
g1670
g1517
sg1671
g1707
sg382
g1545
sbsS'IwGeomQuat.h.tpl'
p1890
g356
(g1666
g358
Ntp1891
Rp1892
(dp1893
g1670
g1363
sg1671
g1728
sg382
g1368
sbsS's3eOSExec.h'
p1894
g356
(g1666
g358
Ntp1895
Rp1896
(dp1897
g1670
g1678
sg1671
g1883
sg382
S'c:/marmalade/7.10/s3e/h/ext/s3eOSExec.h'
p1898
sbsS'IwGxTransformSW.h'
p1899
g356
(g1666
g358
Ntp1900
Rp1901
(dp1902
g1670
g1463
sg1671
g1800
sg382
g1468
sbsS'IwGxMetrics.h'
p1903
g356
(g1666
g358
Ntp1904
Rp1905
(dp1906
g1670
g1463
sg1671
g1800
sg382
g1484
sbsS'iwgxfont.config.txt'
p1907
g356
(g1666
g358
Ntp1908
Rp1909
(dp1910
g1670
g1341
sg1671
g1672
sg382
g1347
sbsS'gl2platform.h'
p1911
g356
(g1666
g358
Ntp1912
Rp1913
(dp1914
g1670
g1678
sg1671
(lp1915
g1680
aS'GL'
p1916
aS'GLES 2.0'
p1917
asg382
S'c:/marmalade/7.10/s3e/h/GLES2/gl2platform.h'
p1918
sbsS'IwResManagerClass.h'
p1919
g356
(g1666
g358
Ntp1920
Rp1921
(dp1922
g1670
g1439
sg1671
(lp1923
g1311
ag1435
asg382
g1453
sbsS'queue'
p1924
g356
(g1666
g358
Ntp1925
Rp1926
(dp1927
g1670
g1678
sg1671
g1679
sg382
S'c:/marmalade/7.10/s3e/h/std/c++/queue'
p1928
sbsS'time_1.h'
p1929
g356
(g1666
g358
Ntp1930
Rp1931
(dp1932
g1670
g1678
sg1671
g1814
sg382
S'c:/marmalade/7.10/s3e/h/std/sys/time.h'
p1933
sbsS'Iw2D.h'
p1934
g356
(g1666
g358
Ntp1935
Rp1936
(dp1937
g1670
g1332
sg1671
g1763
sg382
g1333
sbsS'IwGeomVec2.h'
p1938
g356
(g1666
g358
Ntp1939
Rp1940
(dp1941
g1670
g1363
sg1671
g1728
sg382
g1401
sbsS's3eDevice.h'
p1942
g356
(g1666
g358
Ntp1943
Rp1944
(dp1945
g1670
g1678
sg1671
g1694
sg382
S'c:/marmalade/7.10/s3e/h/s3eDevice.h'
p1946
sbsS'malloc.h'
p1947
g356
(g1666
g358
Ntp1948
Rp1949
(dp1950
g1670
g1678
sg1671
g1700
sg382
S'c:/marmalade/7.10/s3e/h/std/malloc.h'
p1951
sbsS'stdarg.h'
p1952
g356
(g1666
g358
Ntp1953
Rp1954
(dp1955
g1670
g1678
sg1671
g1700
sg382
S'c:/marmalade/7.10/s3e/h/std/stdarg.h'
p1956
sbsS'IwGeomCore.h'
p1957
g356
(g1666
g358
Ntp1958
Rp1959
(dp1960
g1670
g1363
sg1671
g1728
sg382
g1423
sbsS'endian.h'
p1961
g356
(g1666
g358
Ntp1962
Rp1963
(dp1964
g1670
g1678
sg1671
g1700
sg382
S'c:/marmalade/7.10/s3e/h/std/endian.h'
p1965
sbsS'gl3ext.h'
p1966
g356
(g1666
g358
Ntp1967
Rp1968
(dp1969
g1670
g1678
sg1671
(lp1970
g1680
aS'GL'
p1971
aS'GLES 3.0'
p1972
asg382
S'c:/marmalade/7.10/s3e/h/GLES3/gl3ext.h'
p1973
sbsS'glob.h'
p1974
g356
(g1666
g358
Ntp1975
Rp1976
(dp1977
g1670
g1678
sg1671
g1700
sg382
S'c:/marmalade/7.10/s3e/h/std/glob.h'
p1978
sbsS'fstream'
p1979
g356
(g1666
g358
Ntp1980
Rp1981
(dp1982
g1670
g1678
sg1671
g1679
sg382
S'c:/marmalade/7.10/s3e/h/std/c++/fstream'
p1983
sbsS's3eCamera.h'
p1984
g356
(g1666
g358
Ntp1985
Rp1986
(dp1987
g1670
g1678
sg1671
g1694
sg382
S'c:/marmalade/7.10/s3e/h/s3eCamera.h'
p1988
sbsS'jconfig.h'
p1989
g356
(g1666
g358
Ntp1990
Rp1991
(dp1992
g1670
g1633
sg1671
g1758
sg382
g1642
sbsS'memory'
p1993
g356
(g1666
g358
Ntp1994
Rp1995
(dp1996
g1670
g1678
sg1671
g1679
sg382
S'c:/marmalade/7.10/s3e/h/std/c++/memory'
p1997
sbsS'egl.h'
p1998
g356
(g1666
g358
Ntp1999
Rp2000
(dp2001
g1670
g1678
sg1671
(lp2002
g1680
aS'GL'
p2003
aS'EGL'
p2004
asg382
S'c:/marmalade/7.10/s3e/h/EGL/egl.h'
p2005
sbsS'IwClip.inl'
p2006
g356
(g1666
g358
Ntp2007
Rp2008
(dp2009
g1670
g1463
sg1671
g1800
sg382
g1489
sbsS'IwMemManagerDL.h'
p2010
g356
(g1666
g358
Ntp2011
Rp2012
(dp2013
g1670
g1517
sg1671
g1707
sg382
g1611
sbsS'deque'
p2014
g356
(g1666
g358
Ntp2015
Rp2016
(dp2017
g1670
g1678
sg1671
g1679
sg382
S'c:/marmalade/7.10/s3e/h/std/c++/deque'
p2018
sbsS'IwString.h'
p2019
g356
(g1666
g358
Ntp2020
Rp2021
(dp2022
g1670
g1517
sg1671
g1707
sg382
g1615
sbsS'cwchar'
p2023
g356
(g1666
g358
Ntp2024
Rp2025
(dp2026
g1670
g1678
sg1671
g1679
sg382
S'c:/marmalade/7.10/s3e/h/std/c++/cwchar'
p2027
sbsS'iwutil.mkf'
p2028
g356
(g1666
g358
Ntp2029
Rp2030
(dp2031
g1670
g1534
sg1671
g1707
sg382
g1532
sbsS'csignal'
p2032
g356
(g1666
g358
Ntp2033
Rp2034
(dp2035
g1670
g1678
sg1671
g1679
sg382
S'c:/marmalade/7.10/s3e/h/std/c++/csignal'
p2036
sbsS'float.h'
p2037
g356
(g1666
g358
Ntp2038
Rp2039
(dp2040
g1670
g1678
sg1671
g1700
sg382
S'c:/marmalade/7.10/s3e/h/std/float.h'
p2041
sbsS'pthread_alloc'
p2042
g356
(g1666
g358
Ntp2043
Rp2044
(dp2045
g1670
g1678
sg1671
g1679
sg382
S'c:/marmalade/7.10/s3e/h/std/c++/pthread_alloc'
p2046
sbsS'getopt.h'
p2047
g356
(g1666
g358
Ntp2048
Rp2049
(dp2050
g1670
g1678
sg1671
g1700
sg382
S'c:/marmalade/7.10/s3e/h/std/getopt.h'
p2051
sbsS'IwOptimiseARM.h'
p2052
g356
(g1666
g358
Ntp2053
Rp2054
(dp2055
g1670
g1517
sg1671
g1707
sg382
g1575
sbsS'times.h'
p2056
g356
(g1666
g358
Ntp2057
Rp2058
(dp2059
g1670
g1678
sg1671
g1814
sg382
S'c:/marmalade/7.10/s3e/h/std/sys/times.h'
p2060
sbsS'IwGeomFSphere.h'
p2061
g356
(g1666
g358
Ntp2062
Rp2063
(dp2064
g1670
g1363
sg1671
g1728
sg382
g1379
sbsS'amazon-ads-android-sdk.mkf'
p2065
g356
(g1666
g358
Ntp2066
Rp2067
(dp2068
g1670
g1251
sg1671
(lp2069
g1247
asg382
g1249
sbsS'IwTypes.h'
p2070
g356
(g1666
g358
Ntp2071
Rp2072
(dp2073
g1670
g1517
sg1671
g1707
sg382
g1555
sbsS'unistd.h'
p2074
g356
(g1666
g358
Ntp2075
Rp2076
(dp2077
g1670
g1678
sg1671
g1700
sg382
S'c:/marmalade/7.10/s3e/h/std/unistd.h'
p2078
sbsS's3eCompression.h'
p2079
g356
(g1666
g358
Ntp2080
Rp2081
(dp2082
g1670
g1678
sg1671
g1694
sg382
S'c:/marmalade/7.10/s3e/h/s3eCompression.h'
p2083
sbsS'langinfo.h'
p2084
g356
(g1666
g358
Ntp2085
Rp2086
(dp2087
g1670
g1678
sg1671
g1700
sg382
S'c:/marmalade/7.10/s3e/h/std/langinfo.h'
p2088
sbsS's3edebugHeap.h'
p2089
g356
(g1666
g358
Ntp2090
Rp2091
(dp2092
g1670
g1678
sg1671
g1883
sg382
S'c:/marmalade/7.10/s3e/h/ext/s3edebugHeap.h'
p2093
sbsS'AirplayVersion.h'
p2094
g356
(g1666
g358
Ntp2095
Rp2096
(dp2097
g1670
g1678
sg1671
g1694
sg382
S'c:/marmalade/7.10/s3e/h/AirplayVersion.h'
p2098
sbsS'gl2extimg.h'
p2099
g356
(g1666
g358
Ntp2100
Rp2101
(dp2102
g1670
g1678
sg1671
g1915
sg382
S'c:/marmalade/7.10/s3e/h/GLES2/gl2extimg.h'
p2103
sbsS'app.config.txt'
p2104
g356
(g1666
g358
Ntp2105
Rp2106
(dp2107
g1670
(dp2108
sg1671
g4
sg382
S'd:/Marmalade/Stage1/data/app.config.txt'
p2109
sbsS'IwGeomSqrt.h'
p2110
g356
(g1666
g358
Ntp2111
Rp2112
(dp2113
g1670
g1363
sg1671
g1728
sg382
g1433
sbsS'tiniconv_int.h'
p2114
g356
(g1666
g358
Ntp2115
Rp2116
(dp2117
g1670
g1256
sg1671
(lp2118
g1252
asg382
g1257
sbsS'syslog.h'
p2119
g356
(g1666
g358
Ntp2120
Rp2121
(dp2122
g1670
g1678
sg1671
g1700
sg382
S'c:/marmalade/7.10/s3e/h/std/syslog.h'
p2123
sbsS'IwGxFontTypes.h'
p2124
g356
(g1666
g358
Ntp2125
Rp2126
(dp2127
g1670
g1341
sg1671
g1672
sg382
g1357
sbsS'IwGeomFIntersect.h'
p2128
g356
(g1666
g358
Ntp2129
Rp2130
(dp2131
g1670
g1363
sg1671
g1728
sg382
g1403
sbsS'hash_map'
p2132
g356
(g1666
g358
Ntp2133
Rp2134
(dp2135
g1670
g1678
sg1671
g1679
sg382
S'c:/marmalade/7.10/s3e/h/std/c++/hash_map'
p2136
sbsS's3e.mkf'
p2137
g356
(g1666
g358
Ntp2138
Rp2139
(dp2140
g1670
(dp2141
sg1671
g1694
sg382
S'c:/marmalade/7.10/s3e/s3e.mkf'
p2142
sbsS'IwGeomMat2D.h.tpl'
p2143
g356
(g1666
g358
Ntp2144
Rp2145
(dp2146
g1670
g1363
sg1671
g1728
sg382
g1364
sbsS's3eOSReadString.h'
p2147
g356
(g1666
g358
Ntp2148
Rp2149
(dp2150
g1670
g1678
sg1671
g1883
sg382
S'c:/marmalade/7.10/s3e/h/ext/s3eOSReadString.h'
p2151
sbsS'map'
p2152
g356
(g1666
g358
Ntp2153
Rp2154
(dp2155
g1670
g1678
sg1671
g1679
sg382
S'c:/marmalade/7.10/s3e/h/std/c++/map'
p2156
sbsS'IwOptimiseSpeed.h'
p2157
g356
(g1666
g358
Ntp2158
Rp2159
(dp2160
g1670
g1517
sg1671
g1707
sg382
g1559
sbsS'msl_string.h'
p2161
g356
(g1666
g358
Ntp2162
Rp2163
(dp2164
g1670
g1678
sg1671
g1679
sg382
S'c:/marmalade/7.10/s3e/h/std/c++/msl_string.h'
p2165
sbsS'select.h'
p2166
g356
(g1666
g358
Ntp2167
Rp2168
(dp2169
g1670
g1678
sg1671
g1814
sg382
S'c:/marmalade/7.10/s3e/h/std/sys/select.h'
p2170
sbsS'zlib.mkf'
p2171
g356
(g1666
g358
Ntp2172
Rp2173
(dp2174
g1670
g1627
sg1671
(lp2175
g1617
asg382
g1625
sbsS'signal.h'
p2176
g356
(g1666
g358
Ntp2177
Rp2178
(dp2179
g1670
g1678
sg1671
g1700
sg382
S'c:/marmalade/7.10/s3e/h/std/signal.h'
p2180
sbsS'sigcontext.h'
p2181
g356
(g1666
g358
Ntp2182
Rp2183
(dp2184
g1670
g1678
sg1671
g1700
sg382
S'c:/marmalade/7.10/s3e/h/std/sigcontext.h'
p2185
sbsS'libpng.mkf'
p2186
g356
(g1666
g358
Ntp2187
Rp2188
(dp2189
g1670
g1246
sg1671
(lp2190
g1235
asg382
g1244
sbsS's3eClipboard.h'
p2191
g356
(g1666
g358
Ntp2192
Rp2193
(dp2194
g1670
g1678
sg1671
g1694
sg382
S'c:/marmalade/7.10/s3e/h/s3eClipboard.h'
p2195
sbsS'IwGxFuncTable.h'
p2196
g356
(g1666
g358
Ntp2197
Rp2198
(dp2199
g1670
g1463
sg1671
g1800
sg382
g1505
sbsS'IwResHandlerGROUP.h'
p2200
g356
(g1666
g358
Ntp2201
Rp2202
(dp2203
g1670
g1439
sg1671
g1923
sg382
g1457
sbsS's3eDebug.h'
p2204
g356
(g1666
g358
Ntp2205
Rp2206
(dp2207
g1670
g1678
sg1671
g1694
sg382
S'c:/marmalade/7.10/s3e/h/s3eDebug.h'
p2208
sbsS'socket.h'
p2209
g356
(g1666
g358
Ntp2210
Rp2211
(dp2212
g1670
g1678
sg1671
g1814
sg382
S'c:/marmalade/7.10/s3e/h/std/sys/socket.h'
p2213
sbsS'glext.h'
p2214
g356
(g1666
g358
Ntp2215
Rp2216
(dp2217
g1670
g1678
sg1671
(lp2218
g1680
aS'GL'
p2219
aS'GLES 1.x'
p2220
asg382
S'c:/marmalade/7.10/s3e/h/GLES/glext.h'
p2221
sbsS'typeinfo.h'
p2222
g356
(g1666
g358
Ntp2223
Rp2224
(dp2225
g1670
g1678
sg1671
g1679
sg382
S'c:/marmalade/7.10/s3e/h/std/c++/typeinfo.h'
p2226
sbsS'typeinfo'
p2227
g356
(g1666
g358
Ntp2228
Rp2229
(dp2230
g1670
g1678
sg1671
g1679
sg382
S'c:/marmalade/7.10/s3e/h/std/c++/typeinfo'
p2231
sbsS'fstream.h'
p2232
g356
(g1666
g358
Ntp2233
Rp2234
(dp2235
g1670
g1678
sg1671
g1679
sg382
S'c:/marmalade/7.10/s3e/h/std/c++/fstream.h'
p2236
sbsS's3ePointer.h'
p2237
g356
(g1666
g358
Ntp2238
Rp2239
(dp2240
g1670
g1678
sg1671
g1694
sg382
S'c:/marmalade/7.10/s3e/h/s3ePointer.h'
p2241
sbsS'IwMemBucket.h'
p2242
g356
(g1666
g358
Ntp2243
Rp2244
(dp2245
g1670
g1517
sg1671
g1707
sg382
g1613
sbsS'PVRTexTool.h'
p2246
g356
(g1666
g358
Ntp2247
Rp2248
(dp2249
g1670
g1298
sg1671
(lp2250
S'Extensions'
p2251
ag1292
asg382
g1301
sbsS's3eGL.h'
p2252
g356
(g1666
g358
Ntp2253
Rp2254
(dp2255
g1670
g1678
sg1671
g1694
sg382
S'c:/marmalade/7.10/s3e/h/s3eGL.h'
p2256
sbsS'IwGeomFVec2.h'
p2257
g356
(g1666
g358
Ntp2258
Rp2259
(dp2260
g1670
g1363
sg1671
g1728
sg382
g1419
sbsS'IwGeomSVec4.h'
p2261
g356
(g1666
g358
Ntp2262
Rp2263
(dp2264
g1670
g1363
sg1671
g1728
sg382
g1381
sbsS'poll.h'
p2265
g356
(g1666
g358
Ntp2266
Rp2267
(dp2268
g1670
g1678
sg1671
g1700
sg382
S'c:/marmalade/7.10/s3e/h/std/poll.h'
p2269
sbsS'IwMatAnim.h'
p2270
g356
(g1666
g358
Ntp2271
Rp2272
(dp2273
g1670
g1463
sg1671
g1800
sg382
g1491
sbsS'PVRTexTool.defines.txt'
p2274
g356
(g1666
g358
Ntp2275
Rp2276
(dp2277
g1670
g1298
sg1671
(lp2278
g2251
ag1292
ag1294
asg382
g1299
sbsS'IwGx.h'
p2279
g356
(g1666
g358
Ntp2280
Rp2281
(dp2282
g1670
g1463
sg1671
g1800
sg382
g1480
sbsS'valarray'
p2283
g356
(g1666
g358
Ntp2284
Rp2285
(dp2286
g1670
g1678
sg1671
g1679
sg382
S'c:/marmalade/7.10/s3e/h/std/c++/valarray'
p2287
sbsS'iosfwd'
p2288
g356
(g1666
g358
Ntp2289
Rp2290
(dp2291
g1670
g1678
sg1671
g1679
sg382
S'c:/marmalade/7.10/s3e/h/std/c++/iosfwd'
p2292
sbsS'gl2.h'
p2293
g356
(g1666
g358
Ntp2294
Rp2295
(dp2296
g1670
g1678
sg1671
g1915
sg382
S'c:/marmalade/7.10/s3e/h/GLES2/gl2.h'
p2297
sbsS'jpegint.h'
p2298
g356
(g1666
g358
Ntp2299
Rp2300
(dp2301
g1670
g1633
sg1671
g1758
sg382
g1654
sbsS'stdiostream.h'
p2302
g356
(g1666
g358
Ntp2303
Rp2304
(dp2305
g1670
g1678
sg1671
g1679
sg382
S'c:/marmalade/7.10/s3e/h/std/c++/stdiostream.h'
p2306
sbsS'mem.h'
p2307
g356
(g1666
g358
Ntp2308
Rp2309
(dp2310
g1670
g1678
sg1671
g1679
sg382
S'c:/marmalade/7.10/s3e/h/std/c++/mem.h'
p2311
sbsS'jerror.h'
p2312
g356
(g1666
g358
Ntp2313
Rp2314
(dp2315
g1670
g1633
sg1671
g1758
sg382
g1640
sbsS'zconf.h'
p2316
g356
(g1666
g358
Ntp2317
Rp2318
(dp2319
g1670
g1622
sg1671
(lp2320
g1617
ag1237
asg382
g1620
sbsS's3e.config.txt'
p2321
g356
(g1666
g358
Ntp2322
Rp2323
(dp2324
g1670
g1678
sg1671
g1694
sg382
S'c:/marmalade/7.10/s3e/s3e.config.txt'
p2325
sbsS'numeric'
p2326
g356
(g1666
g358
Ntp2327
Rp2328
(dp2329
g1670
g1678
sg1671
g1679
sg382
S'c:/marmalade/7.10/s3e/h/std/c++/numeric'
p2330
sbsS'utime.h'
p2331
g356
(g1666
g358
Ntp2332
Rp2333
(dp2334
g1670
g1678
sg1671
g1700
sg382
S'c:/marmalade/7.10/s3e/h/std/utime.h'
p2335
sbsS'jdhuff.h'
p2336
g356
(g1666
g358
Ntp2337
Rp2338
(dp2339
g1670
g1633
sg1671
g1758
sg382
g1634
sbsS'IwGxStream.h'
p2340
g356
(g1666
g358
Ntp2341
Rp2342
(dp2343
g1670
g1463
sg1671
g1800
sg382
g1497
sbsS'IwImage.h'
p2344
g356
(g1666
g358
Ntp2345
Rp2346
(dp2347
g1670
g1517
sg1671
g1707
sg382
g1522
sbsS's3eImagePicker.h'
p2348
g356
(g1666
g358
Ntp2349
Rp2350
(dp2351
g1670
g1678
sg1671
g1883
sg382
S'c:/marmalade/7.10/s3e/h/ext/s3eImagePicker.h'
p2352
sbsS'IwTextParserITX.h'
p2353
g356
(g1666
g358
Ntp2354
Rp2355
(dp2356
g1670
g1517
sg1671
g1707
sg382
g1577
sbsS'stdlib.h'
p2357
g356
(g1666
g358
Ntp2358
Rp2359
(dp2360
g1670
g1678
sg1671
g1700
sg382
S'c:/marmalade/7.10/s3e/h/std/stdlib.h'
p2361
sbsS'IwCopyingPtr.h'
p2362
g356
(g1666
g358
Ntp2363
Rp2364
(dp2365
g1670
g1517
sg1671
g1707
sg382
g1597
sbsS'iostream'
p2366
g356
(g1666
g358
Ntp2367
Rp2368
(dp2369
g1670
g1678
sg1671
g1679
sg382
S'c:/marmalade/7.10/s3e/h/std/c++/iostream'
p2370
sbsS'png.h'
p2371
g356
(g1666
g358
Ntp2372
Rp2373
(dp2374
g1670
g1241
sg1671
(lp2375
g1235
ag1237
asg382
g1239
sbsS'stddef.h'
p2376
g356
(g1666
g358
Ntp2377
Rp2378
(dp2379
g1670
g1678
sg1671
g1700
sg382
S'c:/marmalade/7.10/s3e/h/std/stddef.h'
p2380
sbsS'setjmp_win32.h'
p2381
g356
(g1666
g358
Ntp2382
Rp2383
(dp2384
g1670
g1678
sg1671
g1700
sg382
S'c:/marmalade/7.10/s3e/h/std/setjmp_win32.h'
p2385
sbsS'IwGxPrint.h'
p2386
g356
(g1666
g358
Ntp2387
Rp2388
(dp2389
g1670
g1463
sg1671
g1800
sg382
g1461
sbsS'iwgx_public.defines.txt'
p2390
g356
(g1666
g358
Ntp2391
Rp2392
(dp2393
g1670
g1463
sg1671
g1800
sg382
g1509
sbsS'streambuf.h'
p2394
g356
(g1666
g358
Ntp2395
Rp2396
(dp2397
g1670
g1678
sg1671
g1679
sg382
S'c:/marmalade/7.10/s3e/h/std/c++/streambuf.h'
p2398
sbsS'IwGeomFPlane.h'
p2399
g356
(g1666
g358
Ntp2400
Rp2401
(dp2402
g1670
g1363
sg1671
g1728
sg382
g1405
sbsS'wchar.h'
p2403
g356
(g1666
g358
Ntp2404
Rp2405
(dp2406
g1670
g1678
sg1671
g1700
sg382
S'c:/marmalade/7.10/s3e/h/std/wchar.h'
p2407
sbsS's3eCameraCapture.h'
p2408
g356
(g1666
g358
Ntp2409
Rp2410
(dp2411
g1670
g1678
sg1671
g1883
sg382
S'c:/marmalade/7.10/s3e/h/ext/s3eCameraCapture.h'
p2412
sbsS'eglext.h'
p2413
g356
(g1666
g358
Ntp2414
Rp2415
(dp2416
g1670
g1678
sg1671
g2002
sg382
S'c:/marmalade/7.10/s3e/h/EGL/eglext.h'
p2417
sbsS'IwResHandlerImage.h'
p2418
g356
(g1666
g358
Ntp2419
Rp2420
(dp2421
g1670
g1439
sg1671
g1923
sg382
g1442
sbsS'strstream.h'
p2422
g356
(g1666
g358
Ntp2423
Rp2424
(dp2425
g1670
g1678
sg1671
g1679
sg382
S'c:/marmalade/7.10/s3e/h/std/c++/strstream.h'
p2426
sbsS'tiniconv.h'
p2427
g356
(g1666
g358
Ntp2428
Rp2429
(dp2430
g1670
g1256
sg1671
g2118
sg382
g1254
sbsS'IwGLExt.h'
p2431
g356
(g1666
g358
Ntp2432
Rp2433
(dp2434
g1670
g1320
sg1671
g1688
sg382
g1323
sbsS'app.icf'
p2435
g356
(g1666
g358
Ntp2436
Rp2437
(dp2438
g1670
(dp2439
sg1671
g4
sg382
S'd:/Marmalade/Stage1/data/app.icf'
p2440
sbsS'IwClassFactory.h'
p2441
g356
(g1666
g358
Ntp2442
Rp2443
(dp2444
g1670
g1517
sg1671
g1707
sg382
g1530
sbsS'file.h'
p2445
g356
(g1666
g358
Ntp2446
Rp2447
(dp2448
g1670
g1678
sg1671
g1814
sg382
S'c:/marmalade/7.10/s3e/h/std/sys/file.h'
p2449
sbsS'cstring'
p2450
g356
(g1666
g358
Ntp2451
Rp2452
(dp2453
g1670
g1678
sg1671
g1679
sg382
S'c:/marmalade/7.10/s3e/h/std/c++/cstring'
p2454
sbsS'iwutil.config.txt'
p2455
g356
(g1666
g358
Ntp2456
Rp2457
(dp2458
g1670
g1517
sg1671
g1707
sg382
g1599
sbsS's3eSMS.h'
p2459
g356
(g1666
g358
Ntp2460
Rp2461
(dp2462
g1670
g1678
sg1671
g1883
sg382
S'c:/marmalade/7.10/s3e/h/ext/s3eSMS.h'
p2463
sbsS'limits.h'
p2464
g356
(g1666
g358
Ntp2465
Rp2466
(dp2467
g1670
g1678
sg1671
g1700
sg382
S'c:/marmalade/7.10/s3e/h/std/limits.h'
p2468
sbsS'iwgl.config.txt'
p2469
g356
(g1666
g358
Ntp2470
Rp2471
(dp2472
g1670
g1320
sg1671
g1688
sg382
g1321
sbsS'IwMaterial.h'
p2473
g356
(g1666
g358
Ntp2474
Rp2475
(dp2476
g1670
g1463
sg1671
g1800
sg382
g1503
sbsS'amazon-ads-ios-sdk.mkf'
p2477
g356
(g1666
g358
Ntp2478
Rp2479
(dp2480
g1670
g1266
sg1671
(lp2481
g1262
asg382
g1264
sbsS'PVRTexTool_interface.cpp'
p2482
g356
(g1666
g358
Ntp2483
Rp2484
(dp2485
g1670
g1298
sg1671
g2278
sg382
g1296
sbsS'IwGxSurface.h'
p2486
g356
(g1666
g358
Ntp2487
Rp2488
(dp2489
g1670
g1463
sg1671
g1800
sg382
g1466
sbsS's3eSocket.h'
p2490
g356
(g1666
g358
Ntp2491
Rp2492
(dp2493
g1670
g1678
sg1671
g1694
sg382
S'c:/marmalade/7.10/s3e/h/s3eSocket.h'
p2494
sbsS'IwAutoFile.h'
p2495
g356
(g1666
g358
Ntp2496
Rp2497
(dp2498
g1670
g1517
sg1671
g1707
sg382
g1571
sbsS'ipc.h'
p2499
g356
(g1666
g358
Ntp2500
Rp2501
(dp2502
g1670
g1678
sg1671
g1814
sg382
S'c:/marmalade/7.10/s3e/h/std/sys/ipc.h'
p2503
sbsS'poll_1.h'
p2504
g356
(g1666
g358
Ntp2505
Rp2506
(dp2507
g1670
g1678
sg1671
g1814
sg382
S'c:/marmalade/7.10/s3e/h/std/sys/poll.h'
p2508
sbsS's3eThread.h'
p2509
g356
(g1666
g358
Ntp2510
Rp2511
(dp2512
g1670
g1678
sg1671
g1694
sg382
S'c:/marmalade/7.10/s3e/h/s3eThread.h'
p2513
sbsS'ucontext.h'
p2514
g356
(g1666
g358
Ntp2515
Rp2516
(dp2517
g1670
g1678
sg1671
g1700
sg382
S'c:/marmalade/7.10/s3e/h/std/ucontext.h'
p2518
sbsS'time.h'
p2519
g356
(g1666
g358
Ntp2520
Rp2521
(dp2522
g1670
g1678
sg1671
g1700
sg382
S'c:/marmalade/7.10/s3e/h/std/time.h'
p2523
sbsS'jchuff.h'
p2524
g356
(g1666
g358
Ntp2525
Rp2526
(dp2527
g1670
g1633
sg1671
g1758
sg382
g1652
sbsS's3eSoundRecord.h'
p2528
g356
(g1666
g358
Ntp2529
Rp2530
(dp2531
g1670
g1678
sg1671
g1694
sg382
S'c:/marmalade/7.10/s3e/h/s3eSoundRecord.h'
p2532
sbsS'IwFibre.h'
p2533
g356
(g1666
g358
Ntp2534
Rp2535
(dp2536
g1670
g1517
sg1671
g1707
sg382
g1543
sbsS's3eVersion.h'
p2537
g356
(g1666
g358
Ntp2538
Rp2539
(dp2540
g1670
g1678
sg1671
g1694
sg382
S'c:/marmalade/7.10/s3e/h/s3eVersion.h'
p2541
sbsS'input.cpp'
p2542
g356
(g1666
g358
Ntp2543
Rp2544
(dp2545
g1670
g1271
sg1671
(lp2546
g1267
asg382
g1274
sbsS'IwGxFontGlyph.h'
p2547
g356
(g1666
g358
Ntp2548
Rp2549
(dp2550
g1670
g1341
sg1671
g1672
sg382
g1355
sbsS's3eTypes.h'
p2551
g356
(g1666
g358
Ntp2552
Rp2553
(dp2554
g1670
g1678
sg1671
g1694
sg382
S'c:/marmalade/7.10/s3e/h/s3eTypes.h'
p2555
sbsS'signal_2.h'
p2556
g356
(g1666
g358
Ntp2557
Rp2558
(dp2559
g1670
g1678
sg1671
g1679
sg382
S'c:/marmalade/7.10/s3e/h/std/c++/signal.h'
p2560
sbsS'termios.h'
p2561
g356
(g1666
g358
Ntp2562
Rp2563
(dp2564
g1670
g1678
sg1671
g1700
sg382
S'c:/marmalade/7.10/s3e/h/std/termios.h'
p2565
sbsS's3eAmazonAds_interface.cpp'
p2566
g356
(g1666
g358
Ntp2567
Rp2568
(dp2569
g1670
g1284
sg1671
(lp2570
g1276
ag1278
ag1280
asg382
g1285
sbsS'slist'
p2571
g356
(g1666
g358
Ntp2572
Rp2573
(dp2574
g1670
g1678
sg1671
g1679
sg382
S'c:/marmalade/7.10/s3e/h/std/c++/slist'
p2575
sbsS'cstdlib'
p2576
g356
(g1666
g358
Ntp2577
Rp2578
(dp2579
g1670
g1678
sg1671
g1679
sg382
S'c:/marmalade/7.10/s3e/h/std/c++/cstdlib'
p2580
sbsS's3eLocation.h'
p2581
g356
(g1666
g358
Ntp2582
Rp2583
(dp2584
g1670
g1678
sg1671
g1694
sg382
S'c:/marmalade/7.10/s3e/h/s3eLocation.h'
p2585
sbsS'IwMemBucketHelpers.h'
p2586
g356
(g1666
g358
Ntp2587
Rp2588
(dp2589
g1670
g1517
sg1671
g1707
sg382
g1528
sbsS's3eHash.h'
p2590
g356
(g1666
g358
Ntp2591
Rp2592
(dp2593
g1670
g1678
sg1671
g1694
sg382
S'c:/marmalade/7.10/s3e/h/s3eHash.h'
p2594
sbsS'IwGeomFMat.h'
p2595
g356
(g1666
g358
Ntp2596
Rp2597
(dp2598
g1670
g1363
sg1671
g1728
sg382
g1421
sbsS'type_traits.h'
p2599
g356
(g1666
g358
Ntp2600
Rp2601
(dp2602
g1670
g1678
sg1671
g1679
sg382
S'c:/marmalade/7.10/s3e/h/std/c++/type_traits.h'
p2603
sbsS's3eAtomic.h'
p2604
g356
(g1666
g358
Ntp2605
Rp2606
(dp2607
g1670
g1678
sg1671
g1694
sg382
S'c:/marmalade/7.10/s3e/h/s3eAtomic.h'
p2608
sbsS'IwMenu.h'
p2609
g356
(g1666
g358
Ntp2610
Rp2611
(dp2612
g1670
g1517
sg1671
g1707
sg382
g1524
sbsS'IwResHandlerITX.h'
p2613
g356
(g1666
g358
Ntp2614
Rp2615
(dp2616
g1670
g1439
sg1671
g1923
sg382
g1444
sbsS'IwArray.h'
p2617
g356
(g1666
g358
Ntp2618
Rp2619
(dp2620
g1670
g1517
sg1671
g1707
sg382
g1526
sbsS'IwUTF8.h'
p2621
g356
(g1666
g358
Ntp2622
Rp2623
(dp2624
g1670
g1517
sg1671
g1707
sg382
g1607
sbsS'math_rvct.h'
p2625
g356
(g1666
g358
Ntp2626
Rp2627
(dp2628
g1670
g1678
sg1671
g1700
sg382
S'c:/marmalade/7.10/s3e/h/std/math_rvct.h'
p2629
sbsS'IwUtil.h'
p2630
g356
(g1666
g358
Ntp2631
Rp2632
(dp2633
g1670
g1517
sg1671
g1707
sg382
g1541
sbsS'IwFColour.h'
p2634
g356
(g1666
g358
Ntp2635
Rp2636
(dp2637
g1670
g1463
sg1671
g1800
sg382
g1507
sbsS's3eamazonads.mkf'
p2638
g356
(g1666
g358
Ntp2639
Rp2640
(dp2641
g1670
g1289
sg1671
(lp2642
g1276
ag1278
asg382
g1287
sbsS'wctype.h'
p2643
g356
(g1666
g358
Ntp2644
Rp2645
(dp2646
g1670
g1678
sg1671
g1700
sg382
S'c:/marmalade/7.10/s3e/h/std/wctype.h'
p2647
sbsS'cstddef'
p2648
g356
(g1666
g358
Ntp2649
Rp2650
(dp2651
g1670
g1678
sg1671
g1679
sg382
S'c:/marmalade/7.10/s3e/h/std/c++/cstddef'
p2652
sbsS'assert.h'
p2653
g356
(g1666
g358
Ntp2654
Rp2655
(dp2656
g1670
g1678
sg1671
g1700
sg382
S'c:/marmalade/7.10/s3e/h/std/assert.h'
p2657
sbsS'mman.h'
p2658
g356
(g1666
g358
Ntp2659
Rp2660
(dp2661
g1670
g1678
sg1671
g1814
sg382
S'c:/marmalade/7.10/s3e/h/std/sys/mman.h'
p2662
sbsS'IwRandom.h'
p2663
g356
(g1666
g358
Ntp2664
Rp2665
(dp2666
g1670
g1517
sg1671
g1707
sg382
g1583
sbsS'libgen.h'
p2667
g356
(g1666
g358
Ntp2668
Rp2669
(dp2670
g1670
g1678
sg1671
g1700
sg382
S'c:/marmalade/7.10/s3e/h/std/libgen.h'
p2671
sbsS'utsname.h'
p2672
g356
(g1666
g358
Ntp2673
Rp2674
(dp2675
g1670
g1678
sg1671
g1814
sg382
S'c:/marmalade/7.10/s3e/h/std/sys/utsname.h'
p2676
sbsS'wait.h'
p2677
g356
(g1666
g358
Ntp2678
Rp2679
(dp2680
g1670
g1678
sg1671
g1814
sg382
S'c:/marmalade/7.10/s3e/h/std/sys/wait.h'
p2681
sbsS'param.h'
p2682
g356
(g1666
g358
Ntp2683
Rp2684
(dp2685
g1670
g1678
sg1671
g1814
sg382
S'c:/marmalade/7.10/s3e/h/std/sys/param.h'
p2686
sbsS'IwDivide.h'
p2687
g356
(g1666
g358
Ntp2688
Rp2689
(dp2690
g1670
g1517
sg1671
g1707
sg382
g1535
sbsS'IwResManager.h'
p2691
g356
(g1666
g358
Ntp2692
Rp2693
(dp2694
g1670
g1439
sg1671
g1923
sg382
g1446
sbsS'ostream'
p2695
g356
(g1666
g358
Ntp2696
Rp2697
(dp2698
g1670
g1678
sg1671
g1679
sg382
S'c:/marmalade/7.10/s3e/h/std/c++/ostream'
p2699
sbsS'cwctype'
p2700
g356
(g1666
g358
Ntp2701
Rp2702
(dp2703
g1670
g1678
sg1671
g1679
sg382
S'c:/marmalade/7.10/s3e/h/std/c++/cwctype'
p2704
sbsS'set'
p2705
g356
(g1666
g358
Ntp2706
Rp2707
(dp2708
g1670
g1678
sg1671
g1679
sg382
S'c:/marmalade/7.10/s3e/h/std/c++/set'
p2709
sbsS'IwGeomSQuat.h'
p2710
g356
(g1666
g358
Ntp2711
Rp2712
(dp2713
g1670
g1363
sg1671
g1728
sg382
g1407
sbsS'locale'
p2714
g356
(g1666
g358
Ntp2715
Rp2716
(dp2717
g1670
g1678
sg1671
g1679
sg382
S'c:/marmalade/7.10/s3e/h/std/c++/locale'
p2718
sbsS'cstdio'
p2719
g356
(g1666
g358
Ntp2720
Rp2721
(dp2722
g1670
g1678
sg1671
g1679
sg382
S'c:/marmalade/7.10/s3e/h/std/c++/cstdio'
p2723
sbsS'cdjpeg.h'
p2724
g356
(g1666
g358
Ntp2725
Rp2726
(dp2727
g1670
g1633
sg1671
g1758
sg382
g1638
sbsS'IwList.h'
p2728
g356
(g1666
g358
Ntp2729
Rp2730
(dp2731
g1670
g1517
sg1671
g1707
sg382
g1579
sbsS'inttypes.h'
p2732
g356
(g1666
g358
Ntp2733
Rp2734
(dp2735
g1670
g1678
sg1671
g1700
sg382
S'c:/marmalade/7.10/s3e/h/std/inttypes.h'
p2736
sbsS'dirent.h'
p2737
g356
(g1666
g358
Ntp2738
Rp2739
(dp2740
g1670
g1678
sg1671
g1700
sg382
S'c:/marmalade/7.10/s3e/h/std/dirent.h'
p2741
sbsS'IwGeomVec3.h'
p2742
g356
(g1666
g358
Ntp2743
Rp2744
(dp2745
g1670
g1363
sg1671
g1728
sg382
g1391
sbsS'transupp.h'
p2746
g356
(g1666
g358
Ntp2747
Rp2748
(dp2749
g1670
g1633
sg1671
g1758
sg382
g1636
sbsS'IwMath.h'
p2750
g356
(g1666
g358
Ntp2751
Rp2752
(dp2753
g1670
g1517
sg1671
g1707
sg382
g1553
sbsS'IwGeomQuat.h'
p2754
g356
(g1666
g358
Ntp2755
Rp2756
(dp2757
g1670
g1363
sg1671
g1728
sg382
g1361
sbsS'glplatform.h'
p2758
g356
(g1666
g358
Ntp2759
Rp2760
(dp2761
g1670
g1678
sg1671
g2218
sg382
S'c:/marmalade/7.10/s3e/h/GLES/glplatform.h'
p2762
sbsS's3e-default.mkf'
p2763
g356
(g1666
g358
Ntp2764
Rp2765
(dp2766
g1670
g1310
sg1671
(lp2767
g1306
asg382
g1308
sbsS'bitset'
p2768
g356
(g1666
g358
Ntp2769
Rp2770
(dp2771
g1670
g1678
sg1671
g1679
sg382
S'c:/marmalade/7.10/s3e/h/std/c++/bitset'
p2772
sbsS'alloca.h'
p2773
g356
(g1666
g358
Ntp2774
Rp2775
(dp2776
g1670
g1678
sg1671
g1700
sg382
S'c:/marmalade/7.10/s3e/h/std/alloca.h'
p2777
sbsS'IwResHandler.h'
p2778
g356
(g1666
g358
Ntp2779
Rp2780
(dp2781
g1670
g1439
sg1671
g1923
sg382
g1437
sbsS'IwResHandlerMTL.h'
p2782
g356
(g1666
g358
Ntp2783
Rp2784
(dp2785
g1670
g1463
sg1671
g1800
sg382
g1501
sbsS'IwRuntime.h'
p2786
g356
(g1666
g358
Ntp2787
Rp2788
(dp2789
g1670
g1517
sg1671
g1707
sg382
g1605
sbsS'limits'
p2790
g356
(g1666
g358
Ntp2791
Rp2792
(dp2793
g1670
g1678
sg1671
g1679
sg382
S'c:/marmalade/7.10/s3e/h/std/c++/limits'
p2794
sbsS'IwGeomBBox.h'
p2795
g356
(g1666
g358
Ntp2796
Rp2797
(dp2798
g1670
g1363
sg1671
g1728
sg382
g1411
sbsS's3eContacts.h'
p2799
g356
(g1666
g358
Ntp2800
Rp2801
(dp2802
g1670
g1678
sg1671
g1694
sg382
S'c:/marmalade/7.10/s3e/h/s3eContacts.h'
p2803
sbsS's3eLicense.h'
p2804
g356
(g1666
g358
Ntp2805
Rp2806
(dp2807
g1670
g1678
sg1671
g1694
sg382
S'c:/marmalade/7.10/s3e/h/s3eLicense.h'
p2808
sbsS'iwgx.config.txt'
p2809
g356
(g1666
g358
Ntp2810
Rp2811
(dp2812
g1670
g1463
sg1671
g1800
sg382
g1474
sbsS'IwTextParser.h'
p2813
g356
(g1666
g358
Ntp2814
Rp2815
(dp2816
g1670
g1517
sg1671
g1707
sg382
g1557
sbsS's3eTimer.h'
p2817
g356
(g1666
g358
Ntp2818
Rp2819
(dp2820
g1670
g1678
sg1671
g1694
sg382
S'c:/marmalade/7.10/s3e/h/s3eTimer.h'
p2821
sbsS'IwGeomVec.h'
p2822
g356
(g1666
g358
Ntp2823
Rp2824
(dp2825
g1670
g1363
sg1671
g1728
sg382
g1415
sbsS'IwSerialise.h'
p2826
g356
(g1666
g358
Ntp2827
Rp2828
(dp2829
g1670
g1517
sg1671
g1707
sg382
g1551
sbsS'cstdarg'
p2830
g356
(g1666
g358
Ntp2831
Rp2832
(dp2833
g1670
g1678
sg1671
g1679
sg382
S'c:/marmalade/7.10/s3e/h/std/c++/cstdarg'
p2834
sbsS'gl2ext.h'
p2835
g356
(g1666
g358
Ntp2836
Rp2837
(dp2838
g1670
g1678
sg1671
g1915
sg382
S'c:/marmalade/7.10/s3e/h/GLES2/gl2ext.h'
p2839
sbsS'IwChar.h'
p2840
g356
(g1666
g358
Ntp2841
Rp2842
(dp2843
g1670
g1517
sg1671
g1707
sg382
g1567
sbsS's3eSound.h'
p2844
g356
(g1666
g358
Ntp2845
Rp2846
(dp2847
g1670
g1678
sg1671
g1694
sg382
S'c:/marmalade/7.10/s3e/h/s3eSound.h'
p2848
sbsS'IwOptimiseThumb.h'
p2849
g356
(g1666
g358
Ntp2850
Rp2851
(dp2852
g1670
g1517
sg1671
g1707
sg382
g1569
sbsS'exception.h'
p2853
g356
(g1666
g358
Ntp2854
Rp2855
(dp2856
g1670
g1678
sg1671
g1679
sg382
S'c:/marmalade/7.10/s3e/h/std/c++/exception.h'
p2857
sbsS'iwgeom.config.txt'
p2858
g356
(g1666
g358
Ntp2859
Rp2860
(dp2861
g1670
g1363
sg1671
g1728
sg382
g1372
sbsS'gl31.h'
p2862
g356
(g1666
g358
Ntp2863
Rp2864
(dp2865
g1670
g1678
sg1671
g1970
sg382
S'c:/marmalade/7.10/s3e/h/GLES3/gl31.h'
p2866
sbsS'gl.h'
p2867
g356
(g1666
g358
Ntp2868
Rp2869
(dp2870
g1670
g1678
sg1671
g2218
sg382
S'c:/marmalade/7.10/s3e/h/GLES/gl.h'
p2871
sbsS'zlib.h'
p2872
g356
(g1666
g358
Ntp2873
Rp2874
(dp2875
g1670
g1622
sg1671
g2320
sg382
g1623
sbsS'temp_defines_release.h'
p2876
g356
(g1666
g358
Ntp2877
Rp2878
(dp2879
g1670
(lp2880
sg1671
(lp2881
S"'generated files'"
p2882
asg382
S'd:/Marmalade/Stage1/build_stage1_vc14/temp_defines_release.h'
p2883
sbsS'iwgl.mkf'
p2884
g356
(g1666
g358
Ntp2885
Rp2886
(dp2887
g1670
g1317
sg1671
g1688
sg382
g1315
sbsS'IwColour.h'
p2888
g356
(g1666
g358
Ntp2889
Rp2890
(dp2891
g1670
g1463
sg1671
g1800
sg382
g1476
sbsS's3eLibrary.h'
p2892
g356
(g1666
g358
Ntp2893
Rp2894
(dp2895
g1670
g1678
sg1671
g1883
sg382
S'c:/marmalade/7.10/s3e/h/ext/s3eLibrary.h'
p2896
sbsS'types.h'
p2897
g356
(g1666
g358
Ntp2898
Rp2899
(dp2900
g1670
g1678
sg1671
g1814
sg382
S'c:/marmalade/7.10/s3e/h/std/sys/types.h'
p2901
sbsS'ifaddrs.h'
p2902
g356
(g1666
g358
Ntp2903
Rp2904
(dp2905
g1670
g1678
sg1671
g1700
sg382
S'c:/marmalade/7.10/s3e/h/std/ifaddrs.h'
p2906
sbsS'strstream'
p2907
g356
(g1666
g358
Ntp2908
Rp2909
(dp2910
g1670
g1678
sg1671
g1679
sg382
S'c:/marmalade/7.10/s3e/h/std/c++/strstream'
p2911
sbsS'Stage1.cpp'
p2912
g356
(g1666
g358
Ntp2913
Rp2914
(dp2915
g1670
g1271
sg1671
g2546
sg382
g1272
sbsS'exception'
p2916
g356
(g1666
g358
Ntp2917
Rp2918
(dp2919
g1670
g1678
sg1671
g1679
sg382
S'c:/marmalade/7.10/s3e/h/std/c++/exception'
p2920
sbsS's3eAmazonAds.defines.txt'
p2921
g356
(g1666
g358
Ntp2922
Rp2923
(dp2924
g1670
g1284
sg1671
g2570
sg382
g1282
sbsS'rlocks.h'
p2925
g356
(g1666
g358
Ntp2926
Rp2927
(dp2928
g1670
g1678
sg1671
g1679
sg382
S'c:/marmalade/7.10/s3e/h/std/c++/rlocks.h'
p2929
sbsS'ioctl.h'
p2930
g356
(g1666
g358
Ntp2931
Rp2932
(dp2933
g1670
g1678
sg1671
g1814
sg382
S'c:/marmalade/7.10/s3e/h/std/sys/ioctl.h'
p2934
sbsS'rope'
p2935
g356
(g1666
g358
Ntp2936
Rp2937
(dp2938
g1670
g1678
sg1671
g1679
sg382
S'c:/marmalade/7.10/s3e/h/std/c++/rope'
p2939
sbsS'jinclude.h'
p2940
g356
(g1666
g358
Ntp2941
Rp2942
(dp2943
g1670
g1633
sg1671
g1758
sg382
g1656
sbsS'IwEvent.h'
p2944
g356
(g1666
g358
Ntp2945
Rp2946
(dp2947
g1670
g1517
sg1671
g1707
sg382
g1603
sbsS'IwOptimiseSize.h'
p2948
g356
(g1666
g358
Ntp2949
Rp2950
(dp2951
g1670
g1517
sg1671
g1707
sg382
g1593
sbsS'iwgxfont_public.defines.txt'
p2952
g356
(g1666
g358
Ntp2953
Rp2954
(dp2955
g1670
g1341
sg1671
g1672
sg382
g1351
sbsS'iconv.h'
p2956
g356
(g1666
g358
Ntp2957
Rp2958
(dp2959
g1670
g1678
sg1671
g1700
sg382
S'c:/marmalade/7.10/s3e/h/std/iconv.h'
p2960
sbsS'sendfile.h'
p2961
g356
(g1666
g358
Ntp2962
Rp2963
(dp2964
g1670
g1678
sg1671
g1814
sg382
S'c:/marmalade/7.10/s3e/h/std/sys/sendfile.h'
p2965
sbsS'IwGeomSphere.h'
p2966
g356
(g1666
g358
Ntp2967
Rp2968
(dp2969
g1670
g1363
sg1671
g1728
sg382
g1397
sbsS'tiniconv.mkf'
p2970
g356
(g1666
g358
Ntp2971
Rp2972
(dp2973
g1670
g1261
sg1671
g2118
sg382
g1259
sbsS'jdct.h'
p2974
g356
(g1666
g358
Ntp2975
Rp2976
(dp2977
g1670
g1633
sg1671
g1758
sg382
g1646
sbsS'cctype'
p2978
g356
(g1666
g358
Ntp2979
Rp2980
(dp2981
g1670
g1678
sg1671
g1679
sg382
S'c:/marmalade/7.10/s3e/h/std/c++/cctype'
p2982
sbsS's3eConfig.h'
p2983
g356
(g1666
g358
Ntp2984
Rp2985
(dp2986
g1670
g1678
sg1671
g1694
sg382
S'c:/marmalade/7.10/s3e/h/s3eConfig.h'
p2987
sbsS'IwHashString.h'
p2988
g356
(g1666
g358
Ntp2989
Rp2990
(dp2991
g1670
g1517
sg1671
g1707
sg382
g1547
sbsS'stat.h'
p2992
g356
(g1666
g358
Ntp2993
Rp2994
(dp2995
g1670
g1678
sg1671
g1814
sg382
S'c:/marmalade/7.10/s3e/h/std/sys/stat.h'
p2996
sbsS'byteswap.h'
p2997
g356
(g1666
g358
Ntp2998
Rp2999
(dp3000
g1670
g1678
sg1671
g1700
sg382
S'c:/marmalade/7.10/s3e/h/std/byteswap.h'
p3001
sbsS'iwresmanager.mkf'
p3002
g356
(g1666
g358
Ntp3003
Rp3004
(dp3005
g1670
g1452
sg1671
g1923
sg382
g1450
sbsS'IwUtilInitTerm.h'
p3006
g356
(g1666
g358
Ntp3007
Rp3008
(dp3009
g1670
g1517
sg1671
g1707
sg382
g1601
sbsS'pthread_1.h'
p3010
g356
(g1666
g358
Ntp3011
Rp3012
(dp3013
g1670
g1678
sg1671
g1679
sg382
S'c:/marmalade/7.10/s3e/h/std/c++/pthread.h'
p3014
sbsS'iw2d.mkf'
p3015
g356
(g1666
g358
Ntp3016
Rp3017
(dp3018
g1670
g1329
sg1671
g1763
sg382
g1327
sbsS'complex'
p3019
g356
(g1666
g358
Ntp3020
Rp3021
(dp3022
g1670
g1678
sg1671
g1679
sg382
S'c:/marmalade/7.10/s3e/h/std/c++/complex'
p3023
sbsS's3e.icf'
p3024
g356
(g1666
g358
Ntp3025
Rp3026
(dp3027
g1670
g1678
sg1671
g1694
sg382
S'c:/marmalade/7.10/s3e/s3e.icf'
p3028
sbsS'IwVariableBitField.h'
p3029
g356
(g1666
g358
Ntp3030
Rp3031
(dp3032
g1670
g1517
sg1671
g1707
sg382
g1595
sbsS'sem.h'
p3033
g356
(g1666
g358
Ntp3034
Rp3035
(dp3036
g1670
g1678
sg1671
g1814
sg382
S'c:/marmalade/7.10/s3e/h/std/sys/sem.h'
p3037
sbsS'IwGxFontState.h'
p3038
g356
(g1666
g358
Ntp3039
Rp3040
(dp3041
g1670
g1341
sg1671
g1672
sg382
g1349
sbsS'stdio.h'
p3042
g356
(g1666
g358
Ntp3043
Rp3044
(dp3045
g1670
g1678
sg1671
g1700
sg382
S'c:/marmalade/7.10/s3e/h/std/stdio.h'
p3046
sbsS'jmemsys.h'
p3047
g356
(g1666
g358
Ntp3048
Rp3049
(dp3050
g1670
g1633
sg1671
g1758
sg382
g1650
sbsS'ios'
p3051
g356
(g1666
g358
Ntp3052
Rp3053
(dp3054
g1670
g1678
sg1671
g1679
sg382
S'c:/marmalade/7.10/s3e/h/std/c++/ios'
p3055
sbsS'IwGeomFVec4.h'
p3056
g356
(g1666
g358
Ntp3057
Rp3058
(dp3059
g1670
g1363
sg1671
g1728
sg382
g1431
sbsS'stack'
p3060
g356
(g1666
g358
Ntp3061
Rp3062
(dp3063
g1670
g1678
sg1671
g1679
sg382
S'c:/marmalade/7.10/s3e/h/std/c++/stack'
p3064
sbsS'new.h'
p3065
g356
(g1666
g358
Ntp3066
Rp3067
(dp3068
g1670
g1678
sg1671
g1679
sg382
S'c:/marmalade/7.10/s3e/h/std/c++/new.h'
p3069
sbsS's3eAmazonAds.h'
p3070
g356
(g1666
g358
Ntp3071
Rp3072
(dp3073
g1670
g1284
sg1671
g2642
sg382
g1290
sbsS's3eEMail.h'
p3074
g356
(g1666
g358
Ntp3075
Rp3076
(dp3077
g1670
g1678
sg1671
g1883
sg382
S'c:/marmalade/7.10/s3e/h/ext/s3eEMail.h'
p3078
sbsS's3eVideo.h'
p3079
g356
(g1666
g358
Ntp3080
Rp3081
(dp3082
g1670
g1678
sg1671
g1694
sg382
S'c:/marmalade/7.10/s3e/h/s3eVideo.h'
p3083
sbsS'pngconf.h'
p3084
g356
(g1666
g358
Ntp3085
Rp3086
(dp3087
g1670
g1241
sg1671
g2375
sg382
g1242
sbsS'pwd.h'
p3088
g356
(g1666
g358
Ntp3089
Rp3090
(dp3091
g1670
g1678
sg1671
g1700
sg382
S'c:/marmalade/7.10/s3e/h/std/pwd.h'
p3092
sbsS'gl3.h'
p3093
g356
(g1666
g358
Ntp3094
Rp3095
(dp3096
g1670
g1678
sg1671
g1970
sg382
S'c:/marmalade/7.10/s3e/h/GLES3/gl3.h'
p3097
sbsS'IwClip.h'
p3098
g356
(g1666
g358
Ntp3099
Rp3100
(dp3101
g1670
g1463
sg1671
g1800
sg382
g1472
sbsS'iwresmanager.config.txt'
p3102
g356
(g1666
g358
Ntp3103
Rp3104
(dp3105
g1670
g1439
sg1671
g1923
sg382
g1440
sbsS'IwGxShaderTechnique.h'
p3106
g356
(g1666
g358
Ntp3107
Rp3108
(dp3109
g1670
g1463
sg1671
g1800
sg382
g1511
sbsS'IwCore.h'
p3110
g356
(g1666
g358
Ntp3111
Rp3112
(dp3113
g1670
g1517
sg1671
g1707
sg382
g1563
sbsS'cfloat'
p3114
g356
(g1666
g358
Ntp3115
Rp3116
(dp3117
g1670
g1678
sg1671
g1679
sg382
S'c:/marmalade/7.10/s3e/h/std/c++/cfloat'
p3118
sbsS'IwGeomMat2D.h'
p3119
g356
(g1666
g358
Ntp3120
Rp3121
(dp3122
g1670
g1363
sg1671
g1728
sg382
g1427
sbsS'IwAllocator.h'
p3123
g356
(g1666
g358
Ntp3124
Rp3125
(dp3126
g1670
g1517
sg1671
g1707
sg382
g1565
sbsS'IwPath.h'
p3127
g356
(g1666
g358
Ntp3128
Rp3129
(dp3130
g1670
g1517
sg1671
g1707
sg382
g1518
sbsS'iwgxfont.mkf'
p3131
g356
(g1666
g358
Ntp3132
Rp3133
(dp3134
g1670
g1346
sg1671
g1672
sg382
g1344
sbsS'IwTexture.h'
p3135
g356
(g1666
g358
Ntp3136
Rp3137
(dp3138
g1670
g1463
sg1671
g1800
sg382
g1495
sbsS'IwGeomVec.h.tpl'
p3139
g356
(g1666
g358
Ntp3140
Rp3141
(dp3142
g1670
g1363
sg1671
g1728
sg382
g1370
sbsS's3eAccelerometer.h'
p3143
g356
(g1666
g358
Ntp3144
Rp3145
(dp3146
g1670
g1678
sg1671
g1694
sg382
S'c:/marmalade/7.10/s3e/h/s3eAccelerometer.h'
p3147
sbsS'setjmp.h'
p3148
g356
(g1666
g358
Ntp3149
Rp3150
(dp3151
g1670
g1678
sg1671
g1700
sg382
S'c:/marmalade/7.10/s3e/h/std/setjmp.h'
p3152
sbsS'IwFile.h'
p3153
g356
(g1666
g358
Ntp3154
Rp3155
(dp3156
g1670
g1517
sg1671
g1707
sg382
g1520
sbsS'IwTextParseable.h'
p3157
g356
(g1666
g358
Ntp3158
Rp3159
(dp3160
g1670
g1517
sg1671
g1707
sg382
g1589
sbsS'istream.h'
p3161
g356
(g1666
g358
Ntp3162
Rp3163
(dp3164
g1670
g1678
sg1671
g1679
sg382
S'c:/marmalade/7.10/s3e/h/std/c++/istream.h'
p3165
sbsS'stdint.h'
p3166
g356
(g1666
g358
Ntp3167
Rp3168
(dp3169
g1670
g1678
sg1671
g1700
sg382
S'c:/marmalade/7.10/s3e/h/std/stdint.h'
p3170
sbsS'semaphore.h'
p3171
g356
(g1666
g358
Ntp3172
Rp3173
(dp3174
g1670
g1678
sg1671
g1700
sg382
S'c:/marmalade/7.10/s3e/h/std/semaphore.h'
p3175
sbsS'ctime'
p3176
g356
(g1666
g358
Ntp3177
Rp3178
(dp3179
g1670
g1678
sg1671
g1679
sg382
S'c:/marmalade/7.10/s3e/h/std/c++/ctime'
p3180
sbsS'sstream'
p3181
g356
(g1666
g358
Ntp3182
Rp3183
(dp3184
g1670
g1678
sg1671
g1679
sg382
S'c:/marmalade/7.10/s3e/h/std/c++/sstream'
p3185
sbsS'IwGeomFBBox.h'
p3186
g356
(g1666
g358
Ntp3187
Rp3188
(dp3189
g1670
g1363
sg1671
g1728
sg382
g1374
sbsS'IwDebugPrim.h'
p3190
g356
(g1666
g358
Ntp3191
Rp3192
(dp3193
g1670
g1463
sg1671
g1800
sg382
g1482
sbsS'IwGxFontContainer.h'
p3194
g356
(g1666
g358
Ntp3195
Rp3196
(dp3197
g1670
g1341
sg1671
g1672
sg382
g1353
sbsS'IwGeomSVec3.h'
p3198
g356
(g1666
g358
Ntp3199
Rp3200
(dp3201
g1670
g1363
sg1671
g1728
sg382
g1385
sbsS'cassert'
p3202
g356
(g1666
g358
Ntp3203
Rp3204
(dp3205
g1670
g1678
sg1671
g1679
sg382
S'c:/marmalade/7.10/s3e/h/std/c++/cassert'
p3206
sbsS'IwGeomFVec3.h'
p3207
g356
(g1666
g358
Ntp3208
Rp3209
(dp3210
g1670
g1363
sg1671
g1728
sg382
g1425
sbsS'streambuf'
p3211
g356
(g1666
g358
Ntp3212
Rp3213
(dp3214
g1670
g1678
sg1671
g1679
sg382
S'c:/marmalade/7.10/s3e/h/std/c++/streambuf'
p3215
sbsS's3eMetrics.h'
p3216
g356
(g1666
g358
Ntp3217
Rp3218
(dp3219
g1670
g1678
sg1671
g1883
sg382
S'c:/marmalade/7.10/s3e/h/ext/s3eMetrics.h'
p3220
sbsS'IwGxFont.h'
p3221
g356
(g1666
g358
Ntp3222
Rp3223
(dp3224
g1670
g1341
sg1671
g1672
sg382
g1339
sbsS's3eSecureStorage.h'
p3225
g356
(g1666
g358
Ntp3226
Rp3227
(dp3228
g1670
g1678
sg1671
g1694
sg382
S'c:/marmalade/7.10/s3e/h/s3eSecureStorage.h'
p3229
sbsS'string.h'
p3230
g356
(g1666
g358
Ntp3231
Rp3232
(dp3233
g1670
g1678
sg1671
g1700
sg382
S'c:/marmalade/7.10/s3e/h/std/string.h'
p3234
sbsS'IwResource.h'
p3235
g356
(g1666
g358
Ntp3236
Rp3237
(dp3238
g1670
g1517
sg1671
g1707
sg382
g1591
sbsS'IwGeomSVec2.h'
p3239
g356
(g1666
g358
Ntp3240
Rp3241
(dp3242
g1670
g1363
sg1671
g1728
sg382
g1409
sbsS'libjpeg.mkf'
p3243
g356
(g1666
g358
Ntp3244
Rp3245
(dp3246
g1670
g1662
sg1671
(lp3247
g1628
asg382
g1660
sbsS'IwGxDebug.h'
p3248
g356
(g1666
g358
Ntp3249
Rp3250
(dp3251
g1670
g1463
sg1671
g1800
sg382
g1470
sbsS'pthread_types.h'
p3252
g356
(g1666
g358
Ntp3253
Rp3254
(dp3255
g1670
g1678
sg1671
g1700
sg382
S'c:/marmalade/7.10/s3e/h/std/pthread_types.h'
p3256
sbsS'iomanip.h'
p3257
g356
(g1666
g358
Ntp3258
Rp3259
(dp3260
g1670
g1678
sg1671
g1679
sg382
S'c:/marmalade/7.10/s3e/h/std/c++/iomanip.h'
p3261
sbsS'IwKeymap.h'
p3262
g356
(g1666
g358
Ntp3263
Rp3264
(dp3265
g1670
g1517
sg1671
g1707
sg382
g1561
sbsS'IwDebug.h'
p3266
g356
(g1666
g358
Ntp3267
Rp3268
(dp3269
g1670
g1517
sg1671
g1707
sg382
g1587
sbsS's3eIOSBackgroundAudio.h'
p3270
g356
(g1666
g358
Ntp3271
Rp3272
(dp3273
g1670
g1678
sg1671
g1883
sg382
S'c:/marmalade/7.10/s3e/h/ext/s3eIOSBackgroundAudio.h'
p3274
sbsS'IwGeomMenu.h'
p3275
g356
(g1666
g358
Ntp3276
Rp3277
(dp3278
g1670
g1363
sg1671
g1728
sg382
g1417
sbsS'IwDivTable.h'
p3279
g356
(g1666
g358
Ntp3280
Rp3281
(dp3282
g1670
g1517
sg1671
g1707
sg382
g1515
sbsS'ctype.h'
p3283
g356
(g1666
g358
Ntp3284
Rp3285
(dp3286
g1670
g1678
sg1671
g1700
sg382
S'c:/marmalade/7.10/s3e/h/std/ctype.h'
p3287
sbsS'IwGeomMat.h'
p3288
g356
(g1666
g358
Ntp3289
Rp3290
(dp3291
g1670
g1363
sg1671
g1728
sg382
g1429
sbsS'IwResGroup.h'
p3292
g356
(g1666
g358
Ntp3293
Rp3294
(dp3295
g1670
g1439
sg1671
g1923
sg382
g1455
sbsS'signal_1.h'
p3296
g356
(g1666
g358
Ntp3297
Rp3298
(dp3299
g1670
g1678
sg1671
g1814
sg382
S'c:/marmalade/7.10/s3e/h/std/sys/signal.h'
p3300
sbsS'functional'
p3301
g356
(g1666
g358
Ntp3302
Rp3303
(dp3304
g1670
g1678
sg1671
g1679
sg382
S'c:/marmalade/7.10/s3e/h/std/c++/functional'
p3305
sbsS'shm.h'
p3306
g356
(g1666
g358
Ntp3307
Rp3308
(dp3309
g1670
g1678
sg1671
g1814
sg382
S'c:/marmalade/7.10/s3e/h/std/sys/shm.h'
p3310
sbsS'IwManagedList.h'
p3311
g356
(g1666
g358
Ntp3312
Rp3313
(dp3314
g1670
g1517
sg1671
g1707
sg382
g1539
sbsS'prctl.h'
p3315
g356
(g1666
g358
Ntp3316
Rp3317
(dp3318
g1670
g1678
sg1671
g1814
sg382
S'c:/marmalade/7.10/s3e/h/std/sys/prctl.h'
p3319
sbsS'un.h'
p3320
g356
(g1666
g358
Ntp3321
Rp3322
(dp3323
g1670
g1678
sg1671
g1814
sg382
S'c:/marmalade/7.10/s3e/h/std/sys/un.h'
p3324
sbsS'temp_defines_debug.h'
p3325
g356
(g1666
g358
Ntp3326
Rp3327
(dp3328
g1670
(lp3329
sg1671
(lp3330
g2882
asg382
S'd:/Marmalade/Stage1/build_stage1_vc14/temp_defines_debug.h'
p3331
sbsS'utility'
p3332
g356
(g1666
g358
Ntp3333
Rp3334
(dp3335
g1670
g1678
sg1671
g1679
sg382
S'c:/marmalade/7.10/s3e/h/std/c++/utility'
p3336
sbsS'input.h'
p3337
g356
(g1666
g358
Ntp3338
Rp3339
(dp3340
g1670
g1271
sg1671
g2546
sg382
g1269
sbsS'IwGeomLegacy.h'
p3341
g356
(g1666
g358
Ntp3342
Rp3343
(dp3344
g1670
g1363
sg1671
g1728
sg382
g1399
sbsS'IwTPage.h'
p3345
g356
(g1666
g358
Ntp3346
Rp3347
(dp3348
g1670
g1463
sg1671
g1800
sg382
g1499
sbsS'IwResSerialise.h'
p3349
g356
(g1666
g358
Ntp3350
Rp3351
(dp3352
g1670
g1439
sg1671
g1923
sg382
g1448
sbsS's3eCrypto.h'
p3353
g356
(g1666
g358
Ntp3354
Rp3355
(dp3356
g1670
g1678
sg1671
g1694
sg382
S'c:/marmalade/7.10/s3e/h/s3eCrypto.h'
p3357
sbsS's3eKeyboard.h'
p3358
g356
(g1666
g358
Ntp3359
Rp3360
(dp3361
g1670
g1678
sg1671
g1694
sg382
S'c:/marmalade/7.10/s3e/h/s3eKeyboard.h'
p3362
sbsS'fcntl.h'
p3363
g356
(g1666
g358
Ntp3364
Rp3365
(dp3366
g1670
g1678
sg1671
g1700
sg382
S'c:/marmalade/7.10/s3e/h/std/fcntl.h'
p3367
sbsS'memory.h'
p3368
g356
(g1666
g358
Ntp3369
Rp3370
(dp3371
g1670
g1678
sg1671
g1700
sg382
S'c:/marmalade/7.10/s3e/h/std/memory.h'
p3372
sbsS'pthread.h'
p3373
g356
(g1666
g358
Ntp3374
Rp3375
(dp3376
g1670
g1678
sg1671
g1700
sg382
S'c:/marmalade/7.10/s3e/h/std/pthread.h'
p3377
sbsS'IwGeomIntersect.h'
p3378
g356
(g1666
g358
Ntp3379
Rp3380
(dp3381
g1670
g1363
sg1671
g1728
sg382
g1366
sbsS'algorithm'
p3382
g356
(g1666
g358
Ntp3383
Rp3384
(dp3385
g1670
g1678
sg1671
g1679
sg382
S'c:/marmalade/7.10/s3e/h/std/c++/algorithm'
p3386
sbsS'egl_1.h'
p3387
g356
(g1666
g358
Ntp3388
Rp3389
(dp3390
g1670
g1678
sg1671
g2218
sg382
S'c:/marmalade/7.10/s3e/h/GLES/egl.h'
p3391
sbsS'ostream.h'
p3392
g356
(g1666
g358
Ntp3393
Rp3394
(dp3395
g1670
g1678
sg1671
g1679
sg382
S'c:/marmalade/7.10/s3e/h/std/c++/ostream.h'
p3396
sbsS'stl_user_config.h'
p3397
g356
(g1666
g358
Ntp3398
Rp3399
(dp3400
g1670
g1678
sg1671
g1679
sg382
S'c:/marmalade/7.10/s3e/h/std/c++/stl_user_config.h'
p3401
sbsS'iwgx.mkf'
p3402
g356
(g1666
g358
Ntp3403
Rp3404
(dp3405
g1670
g1488
sg1671
g1800
sg382
g1486
sbsS'IwProfileMenu.h'
p3406
g356
(g1666
g358
Ntp3407
Rp3408
(dp3409
g1670
g1517
sg1671
g1707
sg382
g1585
sbsS'MarmaladeVersion.h'
p3410
g356
(g1666
g358
Ntp3411
Rp3412
(dp3413
g1670
g1678
sg1671
g1694
sg382
S'c:/marmalade/7.10/s3e/h/MarmaladeVersion.h'
p3414
sbsS'gl3platform.h'
p3415
g356
(g1666
g358
Ntp3416
Rp3417
(dp3418
g1670
g1678
sg1671
g1970
sg382
S'c:/marmalade/7.10/s3e/h/GLES3/gl3platform.h'
p3419
sbsS'ios.h'
p3420
g356
(g1666
g358
Ntp3421
Rp3422
(dp3423
g1670
g1678
sg1671
g1679
sg382
S'c:/marmalade/7.10/s3e/h/std/c++/ios.h'
p3424
sbsS'IwImageHelper.h'
p3425
g356
(g1666
g358
Ntp3426
Rp3427
(dp3428
g1670
g1517
sg1671
g1707
sg382
g1609
sbsS'hash_set'
p3429
g356
(g1666
g358
Ntp3430
Rp3431
(dp3432
g1670
g1678
sg1671
g1679
sg382
S'c:/marmalade/7.10/s3e/h/std/c++/hash_set'
p3433
sbsS'IwGeomFQuat.h'
p3434
g356
(g1666
g358
Ntp3435
Rp3436
(dp3437
g1670
g1363
sg1671
g1728
sg382
g1395
sbsS'jmorecfg.h'
p3438
g356
(g1666
g358
Ntp3439
Rp3440
(dp3441
g1670
g1633
sg1671
g1758
sg382
g1644
sbsS'eglplatform.h'
p3442
g356
(g1666
g358
Ntp3443
Rp3444
(dp3445
g1670
g1678
sg1671
g2002
sg382
S'c:/marmalade/7.10/s3e/h/EGL/eglplatform.h'
p3446
sbsS'cmath'
p3447
g356
(g1666
g358
Ntp3448
Rp3449
(dp3450
g1670
g1678
sg1671
g1679
sg382
S'c:/marmalade/7.10/s3e/h/std/c++/cmath'
p3451
sbsS'math_gcc.h'
p3452
g356
(g1666
g358
Ntp3453
Rp3454
(dp3455
g1670
g1678
sg1671
g1700
sg382
S'c:/marmalade/7.10/s3e/h/std/math_gcc.h'
p3456
sbsS's3eMemory.h'
p3457
g356
(g1666
g358
Ntp3458
Rp3459
(dp3460
g1670
g1678
sg1671
g1694
sg382
S'c:/marmalade/7.10/s3e/h/s3eMemory.h'
p3461
sbsS'strings.h'
p3462
g356
(g1666
g358
Ntp3463
Rp3464
(dp3465
g1670
g1678
sg1671
g1700
sg382
S'c:/marmalade/7.10/s3e/h/std/strings.h'
p3466
sbsS's3eFile.h'
p3467
g356
(g1666
g358
Ntp3468
Rp3469
(dp3470
g1670
g1678
sg1671
g1694
sg382
S'c:/marmalade/7.10/s3e/h/s3eFile.h'
p3471
sbsS'IwGxTypes.h'
p3472
g356
(g1666
g358
Ntp3473
Rp3474
(dp3475
g1670
g1463
sg1671
g1800
sg382
g1478
sbsS'cerrno'
p3476
g356
(g1666
g358
Ntp3477
Rp3478
(dp3479
g1670
g1678
sg1671
g1679
sg382
S'c:/marmalade/7.10/s3e/h/std/c++/cerrno'
p3480
sbsS'resource.h'
p3481
g356
(g1666
g358
Ntp3482
Rp3483
(dp3484
g1670
g1678
sg1671
g1814
sg382
S'c:/marmalade/7.10/s3e/h/std/sys/resource.h'
p3485
sbsS'clocale'
p3486
g356
(g1666
g358
Ntp3487
Rp3488
(dp3489
g1670
g1678
sg1671
g1679
sg382
S'c:/marmalade/7.10/s3e/h/std/c++/clocale'
p3490
sbsS'pvrtextool.mkf'
p3491
g356
(g1666
g358
Ntp3492
Rp3493
(dp3494
g1670
g1305
sg1671
g2250
sg382
g1303
sbsS'csetjmp'
p3495
g356
(g1666
g358
Ntp3496
Rp3497
(dp3498
g1670
g1678
sg1671
g1679
sg382
S'c:/marmalade/7.10/s3e/h/std/c++/csetjmp'
p3499
sbsS'netdb.h'
p3500
g356
(g1666
g358
Ntp3501
Rp3502
(dp3503
g1670
g1678
sg1671
g1700
sg382
S'c:/marmalade/7.10/s3e/h/std/netdb.h'
p3504
sbsS's3eAndroidJNI.h'
p3505
g356
(g1666
g358
Ntp3506
Rp3507
(dp3508
g1670
g1678
sg1671
g1883
sg382
S'c:/marmalade/7.10/s3e/h/ext/s3eAndroidJNI.h'
p3509
sbsS'stdexcept'
p3510
g356
(g1666
g358
Ntp3511
Rp3512
(dp3513
g1670
g1678
sg1671
g1679
sg382
S'c:/marmalade/7.10/s3e/h/std/c++/stdexcept'
p3514
sbsS'math.h'
p3515
g356
(g1666
g358
Ntp3516
Rp3517
(dp3518
g1670
g1678
sg1671
g1700
sg382
S'c:/marmalade/7.10/s3e/h/std/math.h'
p3519
sbsS'stdbool.h'
p3520
g356
(g1666
g358
Ntp3521
Rp3522
(dp3523
g1670
g1678
sg1671
g1700
sg382
S'c:/marmalade/7.10/s3e/h/std/stdbool.h'
p3524
sbsS'uio.h'
p3525
g356
(g1666
g358
Ntp3526
Rp3527
(dp3528
g1670
g1678
sg1671
g1814
sg382
S'c:/marmalade/7.10/s3e/h/std/sys/uio.h'
p3529
sbsS'IwUncopyable.h'
p3530
g356
(g1666
g358
Ntp3531
Rp3532
(dp3533
g1670
g1517
sg1671
g1707
sg382
g1581
sbssS'juice_build_type'
p3534
g4
sS'tests'
p3535
(lp3536
sS'project_name'
p3537
g364
sS'root_file'
p3538
g143
sS'current_root'
p3539
S'd:/Marmalade/Stage1'
p3540
sS'dependencies'
p3541
(lp3542
sS'include_paths'
p3543
(lp3544
S'c:/marmalade/7.10/extensions/s3eamazonads/h'
p3545
aS'c:/marmalade/7.10/modules/iwutil/h'
p3546
aS'c:/marmalade/7.10/modules/third_party/libjpeg/h'
p3547
aS'c:/marmalade/7.10/modules/third_party/zlib/h'
p3548
aS'c:/marmalade/7.10/modules/third_party/libpng/h'
p3549
aS'c:/marmalade/7.10/modules/iw2d/h'
p3550
aS'c:/marmalade/7.10/modules/iwgx/h'
p3551
aS'c:/marmalade/7.10/modules/iwgl/h'
p3552
aS'c:/marmalade/7.10/modules/iwgeom/h'
p3553
aS'c:/marmalade/7.10/modules/iwresmanager/h'
p3554
aS'c:/marmalade/7.10/extensions/pvrtextool/h'
p3555
aS'c:/marmalade/7.10/modules/iwgxfont/h'
p3556
aS'c:/marmalade/7.10/modules/third_party/tiniconv/source'
p3557
aS'c:/marmalade/7.10/s3e/h'
p3558
aS'c:/marmalade/7.10/s3e/h/ext'
p3559
aS'c:/marmalade/7.10/s3e/h/std'
p3560
aS'c:/marmalade/7.10/s3e/h/std/c++'
p3561
aS'c:/marmalade/7.10/s3e/h/ext_legacy'
p3562
aS'c:/marmalade/7.10/s3e/h/legacy'
p3563
asS'weak_frameworks'
p3564
(lp3565
sS'extprojects'
p3566
(dp3567
sg679
(dp3568
g673
(lp3569
(S'd:/Marmalade/Stage1/data/textures'
p3570
S'textures'
p3571
I0
tp3572
assS'macro_types'
p3573
(dp3574
g610
I0
sg612
I1
sg613
I0
sg614
I0
sg615
I0
sg616
I0
sg618
I0
sg619
I0
sg620
I0
sg621
I0
sg622
I0
sg623
I0
sg625
I0
sg626
I0
sg627
I0
sg628
I0
sg629
I0
sg630
I0
sg631
I0
sg632
I0
sg634
I0
sg635
I0
sg636
I0
sg637
I0
sg638
I0
sg639
I1
sg640
I0
sg641
I0
sg642
I0
sg643
I01
sg644
I1
sg645
I0
sg646
I0
sg647
I0
sg648
I0
sg649
I0
sg650
I0
ssS'commands'
p3575
(lp3576
sg681
(g1228
S'VC14'
p3577
S'X86ARMAARCH64'
p3578
tp3579
sS'build_libs'
p3580
(dp3581
sg683
g0
sS'frameworks'
p3582
(lp3583
sS'environ'
p3584
(dp3585
S'NACL_ROOT'
p3586
S'c:\\marmalade\\7.10/tools/gcc/x86_64/nacl_windows'
p3587
ssS'target_name_debug'
p3588
g364
sS'builders'
p3589
(dp3590
g673
(dp3591
S'.S'
p3592
(dp3593
S'gcc_aarch64'
p3594
(lp3595
S'.obj'
p3596
aS'echo AARCH64 Assembling(GCC) ${SOURCE}...'
p3597
aS'c:/marmalade/7.10/s3e\\gcc\\win32\\aarch64\\bin\\aarch64-none-elf-gcc -c -o ${TARGET} ${SOURCE}'
p3598
asS'rvct'
p3599
(lp3600
g3596
aS'echo ARM Assembling(RVCT) ${SOURCE}...'
p3601
aS'c:/marmalade/7.10/s3e\\rvct\\bin\\armasm -o ${TARGET} ${SOURCE}'
p3602
asg485
(lp3603
g3596
aS'echo ARM Assembling(GCC) ${SOURCE}...'
p3604
aS'c:/marmalade/7.10/s3e\\gcc\\win32\\arm\\bin\\arm-none-eabi-gcc -c -o ${TARGET} ${SOURCE}'
p3605
asS'ppu'
p3606
(lp3607
S'.a'
p3608
aS'echo PPU Assembling(SNC) ${SOURCE}...'
p3609
aS'c:/marmalade/7.10/s3e\\rvct\\bin\\armasm -o ${TARGET} ${SOURCE}'
p3610
assS'.s'
p3611
g3593
sS'.vp'
p3612
(lp3613
NaS'"C:/Marmalade/7.10/s3e/python/python.exe" "c:/marmalade/7.10/modules/iwgx/tools/compile_shaders.py" ${SOURCE}'
p3614
asssS'extproject_names'
p3615
(lp3616
sbtp3617
.