((dp0
S'arm_dbg_args'
p1
S'-via:"d:\\Marmalade\\Stage1\\build_stage1_vc14\\Stage1_vc14_arm_debug.via" -qemu'
p2
sS'game-icf'
p3
S''
p4
sS'dist'
p5
NsS'csproj'
p6
g4
sS'module_path_append'
p7
NsS'tizen_x86_dbg_exe'
p8
S'c:\\marmalade\\7.10\\s3e\\makefile_builder\\tool_launcher.exe'
p9
sS'global_path'
p10
S'd:\\marmalade'
p11
sS'system_path'
p12
S'c:\\marmalade\\7.10\\s3e\\makefile_builder'
p13
sS'android_x86_dbg_args'
p14
S'../../tools/DeployTool/DeployTool.exe --dir "d:\\Marmalade\\Stage1\\build_stage1_vc14"'
p15
sS'aarch64-arch-mod'
p16
g4
sS'no-emit'
p17
NsS'androidnativedebug'
p18
NsS'arm-float-abi'
p19
g4
sS'arm_rel_rtsm_args'
p20
S'-via:"d:\\Marmalade\\Stage1\\build_stage1_vc14\\Stage1_vc14_arm_release.via" -qemu'
p21
sS'amd64'
p22
NsS'line-width'
p23
I80
sS'gcc_dbg_args'
p24
S'-via:"d:\\Marmalade\\Stage1\\build_stage1_vc14\\Stage1_vc14_gcc_debug.via" -qemu'
p25
sS'sim-release-loader'
p26
NsS'android-x86'
p27
NsS'x86_dbg_exe'
p28
S'c:/marmalade/7.10/s3e\\win32\\s3e_simulator_debug.exe'
p29
sS'jflags'
p30
NsS'nacl_x86_64_rel_args'
p31
g15
sS'release'
p32
NsS'no-make'
p33
NsS'xcode-x86-build-settings'
p34
g4
sS'optimise-size'
p35
NsS'fat'
p36
NsS'output-name-debug'
p37
g4
sS'arm-fpu'
p38
g4
sS'proj_name'
p39
S'Stage1_vc14'
p40
sS'rvct-version'
p41
S'none'
p42
sS'compiler'
p43
g4
sS'execute'
p44
NsS'compile-static'
p45
NsS'nacl_x86_64_rel_exe'
p46
g9
sS'msvc-project'
p47
NsS'buildenv'
p48
S'VC14'
p49
sS'quick'
p50
NsS'module_path'
p51
(lp52
S'd:/Marmalade/modules'
p53
asS'mkf_default'
p54
S's3e-default.mkf'
p55
sS'use-release-std-libs'
p56
NsS'using_perforce'
p57
I00
sS'tizen-x86'
p58
NsS'mips-s3e'
p59
NsS's3e-api-lib-name'
p60
S's3e_api_iwgl'
p61
sS'ios-no-pic'
p62
NsS'shared-arm-lib'
p63
NsS'arm-cpu'
p64
g4
sS'compile-thumb'
p65
NsS'no-ide'
p66
NsS'msvc-version'
p67
S'6.0'
p68
sS'arm'
p69
NsS'nacl_x86_64_dbg_exe'
p70
g9
sS'builddir'
p71
g4
sS'compile-debug-as-release'
p72
I0
sS'arm-arch'
p73
g4
sS'brief'
p74
NsS'dll'
p75
NsS'buildenv-toolset'
p76
g4
sS'version'
p77
NsS'aarch64-arch'
p78
g4
sS'ccache'
p79
I0
sS'offline'
p80
NsS'ios-version'
p81
g4
sS'hub_data'
p82
g4
sS'fake_vc_call'
p83
I01
sS'jobs'
p84
I0
sS'linkflags'
p85
NsS'gcc_aarch64_dbg_args'
p86
g15
sS'nacl_x86_64_dbg_args'
p87
g15
sS'debug'
p88
NsS'xcode-build-order'
p89
g4
sS'gcc_aarch64_rel_rtsm_args'
p90
S'-via:"d:\\Marmalade\\Stage1\\build_stage1_vc14\\Stage1_vc14_gcc_aarch64_release.via" -qemu'
p91
sS'gcc_rel_rtsm_args'
p92
S'-via:"d:\\Marmalade\\Stage1\\build_stage1_vc14\\Stage1_vc14_gcc_release.via" -qemu'
p93
sS'done_defaults'
p94
I1
sS'path'
p95
(lp96
S'c:/marmalade/7.10/tools/gcc/x86_64/nacl_windows/toolchain/win_x86_glibc/bin'
p97
asS's3e-data-dir'
p98
S'd:/Marmalade/Stage1\\data'
p99
sS'enable-exceptions'
p100
NsS'osx-dll'
p101
NsS'extension'
p102
g4
sS'no-vc6'
p103
NsS'aarch64'
p104
NsS'win32-console'
p105
NsS'dist-format'
p106
g4
sS's3e-force-arch'
p107
NsS'dump_defines'
p108
NsS'use-shared-std-libs'
p109
NsS'gcc-version'
p110
g4
sS'x86_dbg_args'
p111
S'-via:"d:\\Marmalade\\Stage1\\build_stage1_vc14\\Stage1_vc14_debug.via"'
p112
sS'nacl'
p113
NsS'tizen_x86_dbg_args'
p114
g15
sS'arm-debugger'
p115
g4
sS'use_temp_extension'
p116
NsS'verbose'
p117
I0
sS'log'
p118
NsS'no-strip'
p119
NsS'rebuild'
p120
NsS'mips_dbg_args'
p121
g15
sS'win32-simulator-dll'
p122
NsS'strict'
p123
NsS'xcode-aarch64-build-settings'
p124
g4
sS'enable-global-path'
p125
NsS'gcc_aarch64_rel_args'
p126
g15
sS'cflags'
p127
NsS'dist-dir'
p128
g4
sS'xcode-arm-build-settings'
p129
g4
sS'disable-runtime-checks'
p130
NsS'csprojSDKRefs'
p131
g4
sS'tizen_x86_rel_exe'
p132
g9
sS'builddirroot'
p133
g4
sS'distcc'
p134
NsS'external-compiler'
p135
NsS'stripflags'
p136
NsS'retry-build'
p137
S'0'
p138
sS'preinclude'
p139
NsS'using_sdk'
p140
I01
sS'nologo'
p141
NsS'warn-level'
p142
I2
sS'mips_dbg_exe'
p143
g9
sS'mkb_in'
p144
S'd:/Marmalade/Stage1/Stage1.mkb'
p145
sS'no-objc-arc'
p146
NsS'app-icf'
p147
NsS'arm_dbg_exe'
p148
S'c:/marmalade/7.10/s3e\\bin\\armdebug.exe'
p149
sS'mdev-first'
p150
NsS'csprojDLLRef'
p151
NsS'tizen_x86_rel_args'
p152
g15
sS'android_x86_dbg_exe'
p153
g9
sS'naclx86_64'
p154
NsS'test-config'
p155
g4
sS'list-targets'
p156
NsS'arm_rel_exe'
p157
g9
sS'arm_rel_args'
p158
g15
sS'makedeps'
p159
NsS'android_x86_rel_exe'
p160
g9
sS'default-buildenv'
p161
S'VC14'
p162
sS'x86_rel_exe'
p163
S'c:/marmalade/7.10/s3e\\win32\\s3e_simulator_release.exe'
p164
sS'preprocess-java'
p165
NsS'mips_rel_args'
p166
g15
sS'test-assets'
p167
g4
sS'lib'
p168
NsS'non-interactive'
p169
NsS'global_argv'
p170
(lp171
S'C:\\Marmalade\\7.10\\s3e\\makefile_builder\\mkb.py'
p172
aS'D:/Marmalade/Stage1/Stage1.mkb'
p173
aS'--buildenv=VC14'
p174
aS'--fake-vc-call'
p175
asS'make'
p176
NsS'optimise-speed'
p177
NsS'internal'
p178
NsS'enable-stdinc'
p179
NsS'defines'
p180
NsS'deploy-only'
p181
NsS'x86'
p182
NsS'deploy'
p183
g4
sS'objc-arc'
p184
NsS'x86_run_exe'
p185
S'c:/marmalade/7.10/s3e\\win32\\s3e_simulator_debug.exe'
p186
sS'cxxflags'
p187
NsS'x86_rel_args'
p188
S'-via:"d:\\Marmalade\\Stage1\\build_stage1_vc14\\Stage1_vc14_release.via"'
p189
sS'gcc_rel_args'
p190
g15
sS'mips'
p191
NsS'xcode-build-settings'
p192
g4
sS'csprojPostBuildActions'
p193
NsS'incredibuild'
p194
NsS'strict-compile'
p195
NsS'use-auto-subdirs'
p196
NsS'mips_rel_exe'
p197
g9
sS'android_x86_rel_args'
p198
g15
sS'no-distcc'
p199
NsS'deployargs'
p200
NsS'iosnativedebug'
p201
NsS'use_prebuilt'
p202
NsS'win-target-platform'
p203
g4
sS'mkf_in'
p204
(lp205
S'c:\\marmalade\\7.10\\s3e\\s3e-default.mkf'
p206
aS'c:\\marmalade\\7.10\\extensions\\s3eamazonads\\s3eamazonads.mkf'
p207
aS'c:\\marmalade\\7.10\\modules\\iwutil\\iwutil.mkf'
p208
aS'c:\\marmalade\\7.10\\modules\\third_party\\libjpeg\\libjpeg.mkf'
p209
aS'c:\\marmalade\\7.10\\modules\\third_party\\libpng\\libpng.mkf'
p210
aS'c:\\marmalade\\7.10\\modules\\third_party\\zlib\\zlib.mkf'
p211
aS'c:\\marmalade\\7.10\\platform_libs\\android\\amazon-ads-android-sdk\\amazon-ads-android-sdk.mkf'
p212
aS'c:\\marmalade\\7.10\\platform_libs\\iphone\\amazon-ads-ios-sdk\\amazon-ads-ios-sdk.mkf'
p213
aS'c:\\marmalade\\7.10\\modules\\iw2d\\iw2d.mkf'
p214
aS'c:\\marmalade\\7.10\\modules\\iwgx\\iwgx.mkf'
p215
aS'c:\\marmalade\\7.10\\modules\\iwgl\\iwgl.mkf'
p216
aS'c:\\marmalade\\7.10\\modules\\iwgeom\\iwgeom.mkf'
p217
aS'c:\\marmalade\\7.10\\modules\\iwresmanager\\iwresmanager.mkf'
p218
aS'c:\\marmalade\\7.10\\extensions\\pvrtextool\\pvrtextool.mkf'
p219
aS'c:\\marmalade\\7.10\\modules\\iwgxfont\\iwgxfont.mkf'
p220
aS'c:\\marmalade\\7.10\\modules\\third_party\\tiniconv\\tiniconv.mkf'
p221
aS'c:\\marmalade\\7.10\\modules\\iw2dscenegraph\\iw2dscenegraph.mkf'
p222
aS'c:\\marmalade\\7.10\\modules\\iw2dscenegraphcore\\iw2dscenegraphcore.mkf'
p223
aS'd:\\marmalade\\modules\\soundengine\\soundengine.mkf'
p224
asS'strict-mkb'
p225
NsS'executeargs'
p226
NsS'clean'
p227
NsS'no-asm'
p228
NsS'output-name'
p229
g4
sS'no-modules'
p230
NsS'find_define'
p231
g4
s(dp232
S'c:\\marmalade\\7.10\\s3e\\makefile_builder\\templates\\aarch64_linker_script'
p233
F1443314056.0
sS'c:\\marmalade\\7.10\\s3e\\makefile_builder\\plugins\\xcode4_schememanagement.py'
p234
F1443314056.0
sS'c:\\marmalade\\7.10\\s3e\\makefile_builder\\templates\\wp81_csproj.pyc'
p235
F1443317622.0
sS'c:\\marmalade\\7.10\\s3e\\makefile_builder\\plugins\\s3e_win10.pyc'
p236
F1443317622.0
sS'c:\\marmalade\\7.10\\s3e\\makefile_builder\\mkb_launcher.exe'
p237
F1443315030.0
sS'c:\\marmalade\\7.10\\s3e\\makefile_builder\\templates\\win8_ext_csproj.pyc'
p238
F1443317622.0
sS'c:\\marmalade\\7.10\\s3e\\makefile_builder\\templates\\ws8_ext_sln.pyc'
p239
F1443317588.0
sS'c:\\marmalade\\7.10\\s3e\\makefile_builder\\templates\\ws81_sln.pyc'
p240
F1443317680.0
sS'c:\\marmalade\\7.10\\s3e\\makefile_builder\\templates\\xcode4_DeployTool.xcscheme'
p241
F1443314058.0
sS'c:\\marmalade\\7.10\\s3e\\makefile_builder\\plugins\\linux_vc14.pyc'
p242
F1443317654.0
sS'c:\\marmalade\\7.10\\s3e\\makefile_builder\\templates\\ws81_vcxproj.pyc'
p243
F1443317670.0
sS'c:\\marmalade\\7.10\\s3e\\makefile_builder\\plugins\\MakeEmitter.pyc'
p244
F1443317622.0
sS'c:\\marmalade\\7.10\\s3e\\makefile_builder\\templates\\win8_sln.pyc'
p245
F1443317610.0
sS'c:\\marmalade\\7.10\\s3e\\makefile_builder\\templates\\wp8_ext_csproj.pyc'
p246
F1443317704.0
sS'c:\\marmalade\\7.10\\s3e\\makefile_builder\\templates\\ws8_ext_csproj.pyc'
p247
F1443317594.0
sS'c:\\marmalade\\7.10\\s3e\\makefile_builder\\plugins\\deploy.pyc'
p248
F1443317634.0
sS'c:\\marmalade\\7.10\\s3e\\makefile_builder\\mkb_upstream.pyc'
p249
F1443317644.0
sS'c:\\marmalade\\7.10\\s3e\\makefile_builder\\templates\\wp81_vcxproj.pyc'
p250
F1443317612.0
sS'c:\\marmalade\\7.10\\s3e\\makefile_builder\\templates\\vc14_androidnative_ext_sln.pyc'
p251
F1443317640.0
sS'c:\\marmalade\\7.10\\s3e\\makefile_builder\\tool_launcher.exe'
p252
F1443315032.0
sS'c:\\marmalade\\7.10\\s3e\\makefile_builder\\plugins\\wp81_wp81.pyc'
p253
F1443317580.0
sS'c:\\marmalade\\7.10\\s3e\\makefile_builder\\templates\\qmake_user.py'
p254
F1443314056.0
sS'c:\\marmalade\\7.10\\s3e\\makefile_builder\\templates\\template.opt'
p255
F1443314056.0
sS'c:\\marmalade\\7.10\\s3e\\makefile_builder\\templates\\ws8_csproj_user.pyc'
p256
F1443317586.0
sS'c:\\marmalade\\7.10\\s3e\\makefile_builder\\plugins\\osx_scons.pyc'
p257
F1443317596.0
sS'c:\\marmalade\\7.10\\s3e\\makefile_builder\\plugins\\s3e_make.pyc'
p258
F1443317570.0
sS'c:\\marmalade\\7.10\\s3e\\makefile_builder\\templates\\win32_vcxproj.pyc'
p259
F1443317682.0
sS'c:\\marmalade\\7.10\\s3e\\makefile_builder\\templates\\win32_vcxproj_filters.pyc'
p260
F1443317594.0
sS'c:\\marmalade\\7.10\\s3e\\makefile_builder\\templates\\win32_dsp.pyc'
p261
F1443317690.0
sS'c:\\marmalade\\7.10\\s3e\\makefile_builder\\plugins\\linux_scons.pyc'
p262
F1443317710.0
sS'c:\\marmalade\\7.10\\s3e\\makefile_builder\\templates\\ws8_sln.pyc'
p263
F1443317680.0
sS'c:\\marmalade\\7.10\\s3e\\makefile_builder\\templates\\mips_linker_script'
p264
F1443314056.0
sS'c:\\marmalade\\7.10\\s3e\\makefile_builder\\templates\\wp8_vcxproj.pyc'
p265
F1443317624.0
sS'c:\\marmalade\\7.10\\s3e\\makefile_builder\\docs'
p266
F1446019855.710399
sS'c:\\marmalade\\7.10\\s3e\\makefile_builder\\templates\\xcode4_arm.xcscheme'
p267
F1443314058.0
sS'c:\\marmalade\\7.10\\s3e\\makefile_builder\\mkb_option.pyc'
p268
F1443317578.0
sS'c:\\marmalade\\7.10\\s3e\\makefile_builder\\templates\\xcode.py'
p269
F1443314058.0
sS'c:\\marmalade\\7.10\\s3e\\makefile_builder\\templates\\ws81_ext_sln.pyc'
p270
F1443317604.0
sS'c:\\marmalade\\7.10\\s3e\\makefile_builder\\templates\\win10_csproj.pyc'
p271
F1443317704.0
sS'c:\\marmalade\\7.10\\s3e\\makefile_builder\\templates\\wp8_csproj_user.pyc'
p272
F1443317658.0
sS'c:\\marmalade\\7.10\\s3e\\makefile_builder\\plugins\\s3e_wp8.pyc'
p273
F1443317680.0
sS'c:\\marmalade\\7.10\\s3e\\makefile_builder\\templates\\qmake.py'
p274
F1443314056.0
sS'c:\\marmalade\\7.10\\s3e\\makefile_builder\\templates\\win32_dsw.pyc'
p275
F1443317576.0
sS'c:\\marmalade\\7.10\\s3e\\makefile_builder\\templates\\wp8_sln.pyc'
p276
F1443317596.0
sS'c:\\marmalade\\7.10\\s3e\\makefile_builder\\templates\\vc6_opt.pyc'
p277
F1443317684.0
sS'c:\\marmalade\\7.10\\s3e\\makefile_builder\\plugins\\win10_win10.pyc'
p278
F1443317686.0
sS'c:\\marmalade\\7.10\\s3e\\makefile_builder\\templates\\linker_script'
p279
F1443314056.0
sS'c:\\marmalade\\7.10\\s3e\\makefile_builder\\templates\\win10_ext_sln.pyc'
p280
F1443317588.0
sS'c:\\marmalade\\7.10\\s3e\\makefile_builder\\plugins\\Win8Emitter.pyc'
p281
F1443317652.0
sS'c:\\marmalade\\7.10\\s3e\\makefile_builder\\nacl.mkf'
p282
F1443314056.0
sS'c:\\marmalade\\7.10\\s3e\\makefile_builder\\templates\\win10_ext_csproj.pyc'
p283
F1443317582.0
sS'c:\\marmalade\\7.10\\s3e\\makefile_builder\\templates\\wp81_ext_sln.pyc'
p284
F1443317610.0
sS'c:\\marmalade\\7.10\\s3e\\makefile_builder\\plugins\\s3e_wp81.pyc'
p285
F1443317678.0
sS'c:\\marmalade\\7.10\\s3e\\makefile_builder\\templates\\win8_csproj_user.pyc'
p286
F1443317596.0
sS'c:\\marmalade\\7.10\\s3e\\makefile_builder\\docs\\deployment_options.txt'
p287
F1443314056.0
sS'c:\\marmalade\\7.10\\s3e\\makefile_builder\\plugins\\s3e_vc14_androidnative.pyc'
p288
F1443317612.0
sS'c:\\marmalade\\7.10\\s3e\\makefile_builder\\templates\\wp8_csproj.pyc'
p289
F1443317690.0
sS'c:\\marmalade\\7.10\\s3e\\makefile_builder\\plugins\\VisualStudioEmitter.pyc'
p290
F1443317624.0
sS'c:\\marmalade\\7.10\\s3e\\makefile_builder\\mkb.py'
p291
F1443314056.0
sS'c:\\marmalade\\7.10\\s3e\\makefile_builder\\mkb_globals.pyc'
p292
F1443317674.0
sS'c:\\marmalade\\7.10\\s3e\\makefile_builder\\templates\\win10_sln.pyc'
p293
F1443317688.0
sS'c:\\marmalade\\7.10\\s3e\\makefile_builder\\plugins\\null.pyc'
p294
F1443317640.0
sS'c:\\marmalade\\7.10\\s3e\\makefile_builder\\docs\\mkb.defines.txt'
p295
F1443314056.0
sS'c:\\marmalade\\7.10\\s3e\\makefile_builder\\templates\\vc7_suo.pyc'
p296
F1443317678.0
sS'c:\\marmalade\\7.10\\s3e\\makefile_builder\\plugins\\S3EEmitter.pyc'
p297
F1443317686.0
sS'c:\\marmalade\\7.10\\s3e\\makefile_builder\\templates\\ws81_ext_csproj.pyc'
p298
F1443317660.0
sS'c:\\marmalade\\7.10\\s3e\\makefile_builder\\templates\\win8_vcxproj.pyc'
p299
F1443317706.0
sS'c:\\marmalade\\7.10\\s3e\\makefile_builder\\plugins\\s3e_vc6.pyc'
p300
F1443317594.0
sS'c:\\marmalade\\7.10\\s3e\\makefile_builder\\templates\\vc10_user.pyc'
p301
F1443317674.0
sS'c:\\marmalade\\7.10\\s3e\\makefile_builder\\docs\\deprecated.options.txt'
p302
F1443314056.0
sS'c:\\marmalade\\7.10\\s3e\\makefile_builder\\docs\\deprecated.defines.txt'
p303
F1443314056.0
sS'c:\\marmalade\\7.10\\s3e\\makefile_builder\\templates\\wp81_sln.pyc'
p304
F1443317634.0
sS'c:\\marmalade\\7.10\\s3e\\makefile_builder\\templates\\rvct_linker_script'
p305
F1443314056.0
sS'c:\\marmalade\\7.10\\s3e\\makefile_builder\\templates\\win10_vcxproj.pyc'
p306
F1443317618.0
sS'c:\\marmalade\\7.10\\s3e\\makefile_builder\\templates\\vc14_androidproj.pyc'
p307
F1443317640.0
sS'c:\\marmalade\\7.10\\s3e\\makefile_builder\\plugins\\XcodeEmitter.pyc'
p308
F1446052656.065168
sS'c:\\marmalade\\7.10\\s3e\\makefile_builder\\plugins\\s3e_scons.pyc'
p309
F1443317644.0
sS'c:\\marmalade\\7.10\\s3e\\makefile_builder\\templates\\win32_sln.pyc'
p310
F1443317704.0
sS'c:\\marmalade\\7.10\\s3e\\makefile_builder\\templates\\wp81_ext_csproj.pyc'
p311
F1443317684.0
sS'c:\\marmalade\\7.10\\s3e\\makefile_builder\\templates\\wp81_csproj_user.pyc'
p312
F1443317632.0
sS'c:\\marmalade\\7.10\\s3e\\makefile_builder\\plugins\\win8_utils.pyc'
p313
F1443317686.0
sS'c:\\marmalade\\7.10\\s3e\\makefile_builder\\plugins\\win32_vc6.pyc'
p314
F1443317604.0
sS'c:\\marmalade\\7.10\\s3e\\makefile_builder\\plugins\\ws8_ws8.pyc'
p315
F1443317676.0
sS'c:\\marmalade\\7.10\\s3e\\makefile_builder\\templates\\ws81_csproj.pyc'
p316
F1443317608.0
sS'c:\\marmalade\\7.10\\s3e\\makefile_builder\\plugins\\s3e_qmake.py'
p317
F1443314056.0
sS'c:\\marmalade\\7.10\\s3e\\makefile_builder\\plugins\\Emitter.pyc'
p318
F1443317632.0
sS'c:\\marmalade\\7.10\\s3e\\makefile_builder\\plugins\\wp8_wp8.pyc'
p319
F1443317650.0
sS'c:\\marmalade\\7.10\\s3e\\makefile_builder\\plugins\\s3e_win8.pyc'
p320
F1443317610.0
sS'c:\\marmalade\\7.10\\s3e\\makefile_builder\\templates\\gdb_start.txt'
p321
F1443314056.0
sS'c:\\marmalade\\7.10\\s3e\\makefile_builder\\templates\\Info.plist'
p322
F1443314056.0
sS'c:\\marmalade\\7.10\\s3e\\makefile_builder\\plugins\\vc7_utils.pyc'
p323
F1443317620.0
sS'c:\\marmalade\\7.10\\s3e\\makefile_builder\\templates\\vc8_user.pyc'
p324
F1443317650.0
sS'c:\\marmalade\\7.10\\s3e\\makefile_builder\\plugins\\s3e_ws81.pyc'
p325
F1443317688.0
sS'c:\\marmalade\\7.10\\s3e\\makefile_builder\\templates\\win10_csproj_user.pyc'
p326
F1443317618.0
sS'c:\\marmalade\\7.10\\s3e\\makefile_builder\\templates\\xcode_pbxuser.py'
p327
F1443314058.0
sS'c:\\marmalade\\7.10\\s3e\\makefile_builder\\mkb_parser.pyc'
p328
F1443317612.0
sS'c:\\marmalade\\7.10\\s3e\\makefile_builder\\templates\\ws8_vcxproj.pyc'
p329
F1443317696.0
sS'c:\\marmalade\\7.10\\s3e\\makefile_builder\\plugins\\xcode4_schememanagement.pyc'
p330
F1446052656.0711737
sS'c:\\marmalade\\7.10\\s3e\\makefile_builder\\templates'
p331
F1446019856.4123716
sS'c:\\marmalade\\7.10\\s3e\\makefile_builder\\templates\\xcode4.xcscheme'
p332
F1443314058.0
sS'c:\\marmalade\\7.10\\s3e\\makefile_builder\\plugins\\ws81_ws81.pyc'
p333
F1443317638.0
sS'c:\\marmalade\\7.10\\s3e\\makefile_builder\\docs\\parse_options.pyc'
p334
F1443317690.0
sS'c:\\marmalade\\7.10\\s3e\\makefile_builder\\templates\\template.suo'
p335
F1443314056.0
sS'c:\\marmalade\\7.10\\s3e\\makefile_builder\\docs\\options.txt'
p336
F1443314056.0
sS'c:\\marmalade\\7.10\\s3e\\makefile_builder\\mkb_util.pyc'
p337
F1443317616.0
sS'c:\\marmalade\\7.10\\s3e\\makefile_builder\\templates\\ws81_csproj_user.pyc'
p338
F1443317686.0
sS'c:\\marmalade\\7.10\\s3e\\makefile_builder\\plugins\\s3e_qmake.pyc'
p339
F1446052656.1569195
sS'c:\\marmalade\\7.10\\s3e\\makefile_builder\\templates\\win32_vcproj.pyc'
p340
F1443317676.0
sS'c:\\marmalade\\7.10\\s3e\\makefile_builder\\templates\\vc14_androidnative_vcxproj.pyc'
p341
F1443317580.0
sS'c:\\marmalade\\7.10\\s3e\\makefile_builder\\plugins\\s3e_xcode.pyc'
p342
F1446052656.1934426
sS'c:\\marmalade\\7.10\\s3e\\makefile_builder\\plugins\\s3e_xcode.py'
p343
F1443314056.0
sS'c:\\marmalade\\7.10\\s3e\\makefile_builder\\templates\\MainWindow.xib'
p344
F1443314056.0
sS'c:\\marmalade\\7.10\\s3e\\makefile_builder\\plugins'
p345
F1446052656.1919422
sS'c:\\marmalade\\7.10\\s3e\\makefile_builder\\templates\\win8_csproj.pyc'
p346
F1443317710.0
sS'c:\\marmalade\\7.10\\s3e\\makefile_builder\\plugins\\s3e_web.pyc'
p347
F1443317636.0
sS'c:\\marmalade\\7.10\\s3e\\makefile_builder\\templates\\make.py'
p348
F1443314056.0
sS'c:\\marmalade\\7.10\\s3e\\makefile_builder\\plugins\\s3e_ws8.pyc'
p349
F1443317684.0
sS'c:\\marmalade\\7.10\\s3e\\makefile_builder\\deployment.pyc'
p350
F1443317652.0
sS'c:\\marmalade\\7.10\\s3e\\makefile_builder\\plugins\\XcodeEmitter.py'
p351
F1443314056.0
sS'c:\\marmalade\\7.10\\s3e\\makefile_builder\\plugins\\vc6_utils.pyc'
p352
F1443317682.0
sS'c:\\marmalade\\7.10\\s3e\\makefile_builder\\plugins\\SConsEmitter.pyc'
p353
F1443317608.0
sS'c:\\marmalade\\7.10\\s3e\\makefile_builder\\templates\\ws8_csproj.pyc'
p354
F1443317670.0
sS'c:\\marmalade\\7.10\\s3e\\makefile_builder\\plugins\\java.pyc'
p355
F1443317626.0
sS'c:\\marmalade\\7.10\\s3e\\makefile_builder\\plugins\\osx_xcode.pyc'
p356
F1443317590.0
sS'c:\\marmalade\\7.10\\s3e\\makefile_builder\\templates\\vc14_androidnative_sln.pyc'
p357
F1443317622.0
sS'c:\\marmalade\\7.10\\s3e\\makefile_builder\\templates\\scons.pyc'
p358
F1443317700.0
sS'c:\\marmalade\\7.10\\s3e\\makefile_builder\\mkb_main.pyc'
p359
F1443317632.0
sS'c:\\marmalade\\7.10\\s3e\\makefile_builder\\plugins\\iphone.pyc'
p360
F1443317654.0
sccopy_reg
_reconstructor
p361
(cmkb_main
MkbFile
p362
c__builtin__
object
p363
Ntp364
Rp365
(dp366
g5
(lp367
sS'target_name'
p368
S'Stage1'
p369
sS'current_file'
p370
g145
sS'package_path'
p371
(lp372
sS'post_build'
p373
(lp374
(lp375
S'c:/marmalade/7.10/s3e/tools'
p376
aS'C:\\Marmalade\\7.10\\s3e\\python\\python.exe .\\process_map.py "$(TargetPath)"'
p377
aa(S'c:\\marmalade\\7.10\\s3e\\bin'
p378
S'"s3e_plink" -l "$(TargetPath)" '
p379
g182
tp380
asS'librarys'
p381
(lp382
g361
(cmkb_main
Library
p383
g363
Ntp384
Rp385
(dp386
S'name'
p387
S'vc12_compat.lib'
p388
sS'expand_name'
p389
I00
sS'include_spec_rvct_objs'
p390
(lp391
sS'include_all_objs'
p392
I00
sS'share_arm'
p393
I00
sS'arch'
p394
S'x86'
p395
sS'nodebug'
p396
I00
sg43
Nsbag361
(g383
g363
Ntp397
Rp398
(dp399
g387
S'iwutil'
p400
sg389
I01
sg390
(lp401
sg392
Nsg393
Nsg394
Nsg396
I00
sg43
Nsbag361
(g383
g363
Ntp402
Rp403
(dp404
g387
S'jpeg'
p405
sg389
I01
sg390
g401
sg392
Nsg393
Nsg394
Nsg396
I00
sg43
Nsbag361
(g383
g363
Ntp406
Rp407
(dp408
g387
S'z'
p409
sg389
I01
sg390
g401
sg392
Nsg393
Nsg394
Nsg396
I00
sg43
Nsbag361
(g383
g363
Ntp410
Rp411
(dp412
g387
S'png'
p413
sg389
I01
sg390
g401
sg392
Nsg393
Nsg394
Nsg396
I00
sg43
Nsbag361
(g383
g363
Ntp414
Rp415
(dp416
g387
S'iw2d'
p417
sg389
I01
sg390
g401
sg392
Nsg393
Nsg394
Nsg396
I00
sg43
Nsbag361
(g383
g363
Ntp418
Rp419
(dp420
g387
S'ATI_Compress_MT_VC7.lib'
p421
sg389
I00
sg390
g401
sg392
Nsg393
Nsg394
S'x86'
p422
sg396
I00
sg43
Nsbag361
(g383
g363
Ntp423
Rp424
(dp425
g387
S'iwgx'
p426
sg389
I01
sg390
g401
sg392
Nsg393
Nsg394
Nsg396
I00
sg43
Nsbag361
(g383
g363
Ntp427
Rp428
(dp429
g387
S'iwgl'
p430
sg389
I01
sg390
g401
sg392
Nsg393
Nsg394
Nsg396
I00
sg43
Nsbag361
(g383
g363
Ntp431
Rp432
(dp433
g387
S'iwgeom'
p434
sg389
I01
sg390
g401
sg392
Nsg393
Nsg394
Nsg396
I00
sg43
Nsbag361
(g383
g363
Ntp435
Rp436
(dp437
g387
S'iwresmanager'
p438
sg389
I01
sg390
g401
sg392
Nsg393
Nsg394
Nsg396
I00
sg43
Nsbag361
(g383
g363
Ntp439
Rp440
(dp441
g387
S'iwgxfont'
p442
sg389
I01
sg390
g401
sg392
Nsg393
Nsg394
Nsg396
I00
sg43
Nsbag361
(g383
g363
Ntp443
Rp444
(dp445
g387
S'tiniconv'
p446
sg389
I01
sg390
g401
sg392
Nsg393
Nsg394
Nsg396
I00
sg43
Nsbag361
(g383
g363
Ntp447
Rp448
(dp449
g387
S's3e_cpp'
p450
sg389
I01
sg390
g391
sg392
I00
sg393
I00
sg394
Nsg396
I00
sg43
Nsbag361
(g383
g363
Ntp451
Rp452
(dp453
g387
S's3e_vc14'
p454
sg389
I01
sg390
(lp455
S'iwcrt.o'
p456
asg392
I00
sg393
I00
sg394
S'x86'
p457
sg396
I00
sg43
Nsbag361
(g383
g363
Ntp458
Rp459
(dp460
g387
S's3e'
p461
sg389
I01
sg390
(lp462
g456
asg392
I00
sg393
I00
sg394
S'!x86'
p463
sg396
I00
sg43
Nsbag361
(g383
g363
Ntp464
Rp465
(dp466
g387
g61
sg389
I01
sg390
g391
sg392
I00
sg393
I00
sg394
S'x86'
p467
sg396
I01
sg43
Nsbag361
(g383
g363
Ntp468
Rp469
(dp470
g387
g61
sg389
I01
sg390
g391
sg392
I00
sg393
I00
sg394
S'!x86'
p471
sg396
I01
sg43
Nsbag361
(g383
g363
Ntp472
Rp473
(dp474
g387
S'stdc++'
p475
sg389
I00
sg390
g391
sg392
I00
sg393
I00
sg394
S'mips'
p476
sg396
I00
sg43
Nsbag361
(g383
g363
Ntp477
Rp478
(dp479
g387
S'c'
p480
sg389
I00
sg390
g391
sg392
I00
sg393
I00
sg394
S'mips'
p481
sg396
I00
sg43
Nsbag361
(g383
g363
Ntp482
Rp483
(dp484
g387
S'm'
p485
sg389
I00
sg390
g391
sg392
I00
sg393
I00
sg394
S'mips'
p486
sg396
I00
sg43
Nsbag361
(g383
g363
Ntp487
Rp488
(dp489
g387
S'gcc'
p490
sg389
I00
sg390
g391
sg392
I00
sg393
I00
sg394
S'mips'
p491
sg396
I00
sg43
Nsbag361
(g383
g363
Ntp492
Rp493
(dp494
g387
g490
sg389
I00
sg390
g391
sg392
I00
sg393
I00
sg394
S'naclx86_64'
p495
sg396
I00
sg43
Nsbag361
(g383
g363
Ntp496
Rp497
(dp498
g387
S'gcc_eh'
p499
sg389
I00
sg390
g391
sg392
I00
sg393
I00
sg394
S'naclx86_64'
p500
sg396
I00
sg43
Nsbag361
(g383
g363
Ntp501
Rp502
(dp503
g387
g480
sg389
I00
sg390
g391
sg392
I00
sg393
I00
sg394
S'naclx86_64'
p504
sg396
I00
sg43
Nsbag361
(g383
g363
Ntp505
Rp506
(dp507
g387
g485
sg389
I00
sg390
g391
sg392
I00
sg393
I00
sg394
S'naclx86_64'
p508
sg396
I00
sg43
Nsbag361
(g383
g363
Ntp509
Rp510
(dp511
g387
S'supc++'
p512
sg389
I00
sg390
g391
sg392
I00
sg393
I00
sg394
S'naclx86_64'
p513
sg396
I00
sg43
Nsbag361
(g383
g363
Ntp514
Rp515
(dp516
g387
S'supc++'
p517
sg389
I00
sg390
g391
sg392
I00
sg393
I00
sg394
S'gcc_x86_android'
p518
sg396
I00
sg43
Nsbag361
(g383
g363
Ntp519
Rp520
(dp521
g387
g480
sg389
I00
sg390
g391
sg392
I00
sg393
I00
sg394
S'gcc_x86_android'
p522
sg396
I00
sg43
Nsbag361
(g383
g363
Ntp523
Rp524
(dp525
g387
g485
sg389
I00
sg390
g391
sg392
I00
sg393
I00
sg394
S'gcc_x86_android'
p526
sg396
I00
sg43
Nsbag361
(g383
g363
Ntp527
Rp528
(dp529
g387
g490
sg389
I00
sg390
g391
sg392
I00
sg393
I00
sg394
S'gcc_x86_android'
p530
sg396
I00
sg43
Nsbag361
(g383
g363
Ntp531
Rp532
(dp533
g387
S'dl'
p534
sg389
I00
sg390
g391
sg392
I00
sg393
I00
sg394
S'gcc_x86_android'
p535
sg396
I00
sg43
Nsbag361
(g383
g363
Ntp536
Rp537
(dp538
g387
S'supc++'
p539
sg389
I00
sg390
g391
sg392
I00
sg393
I00
sg394
S'gcc_arm_android'
p540
sg396
I00
sg43
Nsbag361
(g383
g363
Ntp541
Rp542
(dp543
g387
g480
sg389
I00
sg390
g391
sg392
I00
sg393
I00
sg394
S'gcc_arm_android'
p544
sg396
I00
sg43
Nsbag361
(g383
g363
Ntp545
Rp546
(dp547
g387
g485
sg389
I00
sg390
g391
sg392
I00
sg393
I00
sg394
S'gcc_arm_android'
p548
sg396
I00
sg43
Nsbag361
(g383
g363
Ntp549
Rp550
(dp551
g387
g490
sg389
I00
sg390
g391
sg392
I00
sg393
I00
sg394
S'gcc_arm_android'
p552
sg396
I00
sg43
Nsbag361
(g383
g363
Ntp553
Rp554
(dp555
g387
g534
sg389
I00
sg390
g391
sg392
I00
sg393
I00
sg394
S'gcc_arm_android'
p556
sg396
I00
sg43
NsbasS'library_paths'
p557
(lp558
g361
(cmkb_main
LibraryPath
p559
g363
Ntp560
Rp561
(dp562
S'expand_path'
p563
I01
sg387
S'c:/marmalade/7.10/modules/iwutil'
p564
sbag361
(g559
g363
Ntp565
Rp566
(dp567
g563
I01
sg387
S'c:/marmalade/7.10/modules/third_party/libjpeg'
p568
sbag361
(g559
g363
Ntp569
Rp570
(dp571
g563
I01
sg387
S'c:/marmalade/7.10/modules/third_party/zlib'
p572
sbag361
(g559
g363
Ntp573
Rp574
(dp575
g563
I01
sg387
S'c:/marmalade/7.10/modules/third_party/libpng'
p576
sbag361
(g559
g363
Ntp577
Rp578
(dp579
g563
I01
sg387
S'c:/marmalade/7.10/modules/iw2d'
p580
sbag361
(g559
g363
Ntp581
Rp582
(dp583
g563
I00
sg387
S'c:/marmalade/7.10/modules/iwgx/atitools'
p584
sbag361
(g559
g363
Ntp585
Rp586
(dp587
g563
I01
sg387
S'c:/marmalade/7.10/modules/iwgx'
p588
sbag361
(g559
g363
Ntp589
Rp590
(dp591
g563
I01
sg387
S'c:/marmalade/7.10/modules/iwgl'
p592
sbag361
(g559
g363
Ntp593
Rp594
(dp595
g563
I01
sg387
S'c:/marmalade/7.10/modules/iwgeom'
p596
sbag361
(g559
g363
Ntp597
Rp598
(dp599
g563
I01
sg387
S'c:/marmalade/7.10/modules/iwresmanager'
p600
sbag361
(g559
g363
Ntp601
Rp602
(dp603
g563
I01
sg387
S'c:/marmalade/7.10/modules/iwgxfont'
p604
sbag361
(g559
g363
Ntp605
Rp606
(dp607
g563
I01
sg387
S'c:/marmalade/7.10/modules/third_party/tiniconv'
p608
sbag361
(g559
g363
Ntp609
Rp610
(dp611
g563
I01
sg387
S'c:/marmalade/7.10/s3e'
p612
sbasS'macros'
p613
(dp614
S'IW_TRACE_CHANNEL_AMAZONADS'
p615
S'1'
p616
sS'IW_USE_CALLSTACK'
p617
NsS'IW_PLATFORM_S3E'
p618
NsS'I3D_PLATFORM_S3E'
p619
NsS'IW_TRACE_CHANNEL_PVRTEXTOOL_VERBOSE'
p620
S'2'
p621
sS'IW_TRACE_CHANNEL_AMAZONADS_VERBOSE'
p622
g621
sS'IW_MKF_LIBJPEG'
p623
NsS'I3D_OS_S3E'
p624
NsS'IW_MKF_PVRTEXTOOL'
p625
NsS'IW_MKF_AMAZON_ADS_IOS_SDK'
p626
NsS'IW_MKF_TINICONV'
p627
NsS'IW_APP_VERSION'
p628
S'"1.0"'
p629
sS'__S3E__'
p630
NsS'IW_MKF_IWRESMANAGER'
p631
NsS'IW_MKF_FREELICENSE'
p632
NsS'IW_MKF_S3EAMAZONADS'
p633
NsS'IW_MKF_IWUTIL'
p634
NsS'IW_MKF_IWGEOM'
p635
NsS'IW_MKF_AMAZON_ADS_ANDROID_SDK'
p636
NsS'IW_ASSERTION_CHANNEL_2D'
p637
g616
sS'IW_APP_NAME'
p638
S'"Stage1"'
p639
sS'IW_MKF_S3E_DEFAULT'
p640
NsS'IW_MKF_IWGXFONT'
p641
NsS'IW_MKF_ZLIB'
p642
NsS'IW_MKF_IWGX'
p643
NsS'IW_MKF_IW2DSCENEGRAPH'
p644
NsS'IW_MKF_SOUNDENGINE'
p645
NsS'IW_ASSERTION_CHANNEL_AMAZONADS'
p646
g616
sS'IW_USE_ASSERTIONS'
p647
NsS'_CRT_SECURE_NO_DEPRECATE'
p648
NsS'IW_MKF_IWGL'
p649
NsS'IW_MKF_LIBPNG'
p650
NsS'IW_TRACE_CHANNEL_IW_2DSCENEGRAPH'
p651
g616
sS'IW_DEBUG'
p652
NsS'IW_USE_TRACING'
p653
NsS'IW_ASSERTION_CHANNEL_IW_2DSCENEGRAPH'
p654
g616
sS'IW_TRACE_CHANNEL_PVRTEXTOOL'
p655
g616
sS'IW_SDK'
p656
NsS'S3E_INCLUDE_LEGACY'
p657
NsS'IW_MKF_IW2DSCENEGRAPHCORE'
p658
NsS'IW_MKF_IW2D'
p659
NsS'IW_ASSERTION_CHANNEL_PVRTEXTOOL'
p660
g616
ssS'done_warnings'
p661
(dp662
sS'subprojects'
p663
(dp664
g211
S'zlib'
p665
sg221
S'tiniconv'
p666
sg206
S's3e-default.mkf'
p667
sg219
S'PVRTexTool'
p668
sg218
S'iwresmanager'
p669
sg213
S'amazon-ads-ios-sdk'
p670
sg217
S'iwgeom'
p671
sg223
S'../iw2dscenegraphcore'
p672
sg212
S'amazon-ads-android-sdk'
p673
sg215
S'iwgx'
p674
sg210
S'libpng'
p675
sg208
S'iwutil'
p676
sg207
S's3eAmazonAds'
p677
sg222
S'iw2dscenegraph'
p678
sg220
S'iwgxfont'
p679
sg209
S'libjpeg'
p680
sg216
S'iwgl'
p681
sg224
S'SoundEngine'
p682
sg214
S'iw2d'
p683
ssS'deployments'
p684
(dp685
S'Default'
p686
g361
(cdeployment
Deployment
p687
g363
Ntp688
Rp689
(dp690
S'got_version'
p691
I0
sS'assets'
p692
g686
sS'mkb'
p693
g365
sS'target'
p694
Nsg394
(lp695
sS'options'
p696
(dp697
S'iphone-link-lib'
p698
(lp699
S's3eAmazonAds'
p700
asS'game-icf'
p701
NsS'android-tm'
p702
NsS'winmobile-icon32'
p703
NsS'ws8-logo-image150x150'
p704
NsS'wp81-logo-image150x150'
p705
NsS'win10-product-name'
p706
NsS'android-keystore'
p707
NsS'osx-ext-dll'
p708
(lp709
S'c:/marmalade/7.10/extensions/pvrtextool/lib/osx/libPVRTexTool.dylib'
p710
asS'iphone-provisioning-profile'
p711
NsS'win10-identity-name'
p712
NsS'ws8-splash-screen-image620x300'
p713
NsS'wp81-extra-pri'
p714
(lp715
sS'ws8-ext-capabilities'
p716
(lp717
sS'android-icon-hdpi'
p718
NsS'iphone-ipad-only'
p719
NsS'iphone-splash-full-orient'
p720
NsS'wp8-tile-fliptemplate-supports-large'
p721
NsS'iphone-show-status-bar'
p722
NsS'roku-requires-mkv'
p723
NsS'long-caption'
p724
NsS'android-pkgname'
p725
NsS'ws8-ext-native-only-dll'
p726
(lp727
sS'wp81-publisher-display-name'
p728
NsS'win10-logo-image150x150'
p729
NsS'blackberry-permissions-read-device-identifying-information'
p730
NsS'ws81-certificate-end-date'
p731
NsS'psp-dlgcontentid'
p732
NsS'android-version-code'
p733
NsS'win10-ext-uap-capabilities'
p734
(lp735
sS'iphone-minimum-ios-version'
p736
NsS'target-folder'
p737
NsS'tizen-dist1-CA-path'
p738
NsS'symbian-icon2-format'
p739
NsS'tizen-author-key'
p740
NsS'firefoxos-icon-128X128'
p741
NsS'iphone-region'
p742
NsS'uiq3-icon3-mask'
p743
NsS'brew-encoding'
p744
NsS'version'
p745
NsS'nds-initialcode'
p746
NsS'win10-ext-native-dll'
p747
(lp748
sS'iphone-persistent-wifi'
p749
NsS'psp-snd0'
p750
NsS'roku-icon-focus-hd'
p751
NsS'osx-appid'
p752
NsS'ws81-ext-native-only-dll'
p753
(lp754
sS'winmobile-install-folder'
p755
NsS'android-external-res'
p756
(lp757
sS'ws8-product-version'
p758
NsS'brew-priviledges'
p759
NsS'iphone-icon-ipad-search'
p760
NsS'iphone-icon-ipad'
p761
NsS'iphone-skip-icon-generation'
p762
NsS'nacl-icon-128X128'
p763
NsS'roku-hidden'
p764
NsS'psp-titlename'
p765
NsS'wp81-product-version'
p766
NsS'symbian-icon1-mask'
p767
NsS'psp-parentallevel'
p768
NsS'iphone-launch-storyboard'
p769
NsS'splashscreen-use-all'
p770
NsS'symbian-disable-ecompxl'
p771
NsS'splashscreen-auto-onblack'
p772
NsS'iphone-icon-dir'
p773
NsS'iphone-icon-extra'
p774
NsS'win32-ext-dll'
p775
(lp776
S'c:/marmalade/7.10/extensions/pvrtextool/lib/win32/PVRTexTool.dll'
p777
asS'iphone-development-key'
p778
NsS'winmobile-icon48'
p779
NsS'android-unsigned'
p780
NsS'osx-appstore-category'
p781
NsS'version-revision'
p782
NsS'roku-icon-focus-sd'
p783
NsS'ws81-product-version'
p784
NsS'winmobile-png90'
p785
NsS'iphone-icon-ipad-high-res'
p786
NsS'iphone-disable-ipad'
p787
NsS'win10-ext-sdk-ref'
p788
(lp789
sS'ws81-splash-screen-background'
p790
NsS'wp8-ext-capabilities'
p791
(lp792
sS'brew-icon-large'
p793
NsS'symbian-icon1-mask-black'
p794
NsS'ws8-extra-res'
p795
(lp796
sS'iphone-bundle-localisations'
p797
NsS'winmobile-png60'
p798
NsS'blackberry-permissions-access-shared'
p799
NsS'blackberry-author'
p800
NsS'android-icon-xxxhdpi'
p801
NsS'olddeploytoolstyle'
p802
NsS'android_icon_gallery'
p803
NsS'win10-distribution-pfx-password'
p804
NsS'wp81-splash-screen-background'
p805
NsS'wp8-exclude-720p'
p806
NsS'iphone-info-plist'
p807
NsS'ws81-ext-managed-dll'
p808
(lp809
sS'playbook-cskpass'
p810
NsS'win10-description'
p811
NsS'ws8-distribution-pfx-password'
p812
NsS'symbian-key'
p813
NsS'app-icf'
p814
NsS'blackberry-storepass'
p815
NsS'wp8-tile-fliptemplate-back-title'
p816
NsS'brew-compress-loader'
p817
NsS'iphone-testflight'
p818
NsS'win32-pref-windowposy'
p819
NsS'win32-pref-windowposx'
p820
NsS'roku-requires-audiometadata'
p821
NsS'wp8-exclude-low-mem'
p822
NsS'android-min-sdk-version'
p823
NsS'wp8-tile-fliptemplate-title'
p824
NsS'iphone-icon-ipad-search-high-res'
p825
NsS'iphone-link-libdir'
p826
(lp827
S'c:/marmalade/7.10/extensions/s3eamazonads/lib/iphone'
p828
asS'wp81-ext-capabilities'
p829
(lp830
sS'blackberry-permissions-read-geolocation'
p831
NsS'win10-splash-screen-image620x300'
p832
NsS'ws81-ext-device-capabilities'
p833
(lp834
sS'tizen-signed'
p835
NsS'android-extra-application-manifest'
p836
(lp837
S'c:/marmalade/7.10/extensions/s3eamazonads/source/android/ExtraAppManifests.xml'
p838
asS'android-x86'
p839
NsS'win10-extra-res'
p840
(lp841
sS'ws8-ext-native-dll'
p842
(lp843
sS'symbian-icon2-mask'
p844
NsS'iphone-launch-extra'
p845
NsS'webos-memory'
p846
NsS'android-keypass'
p847
NsS'name'
p848
NsS'uiq3-icon2-format'
p849
NsS'roku-splash-screen-sd'
p850
NsS'auto-derbh'
p851
NsS'roku-icon-side-sd'
p852
NsS'android-external-assets'
p853
(lp854
sS'nds-publicsavedatasize'
p855
NsS'splashscreen'
p856
NsS'wp8-product-id'
p857
NsS'iphone-icon-settings-high-res'
p858
NsS'android-manifest'
p859
NsS'ws81-splash-screen-image620x300'
p860
NsS'wp81-product-name'
p861
NsS's3e-compression'
p862
NsS'tizen-author-password'
p863
NsS'wp8-tile-fliptemplate-back-content'
p864
NsS'blackberry-extra-descriptor'
p865
(lp866
sS'android-java-source-version'
p867
NsS'symbian-icon1'
p868
NsS'symbian-icon2'
p869
NsS'nds-makercode'
p870
NsS'android-extra-styles-file'
p871
NsS'android-ext-target-sdk-version'
p872
(lp873
I17
asS'wp81-publisher-id'
p874
NsS'nds-bannertitle-jp'
p875
NsS'wp81-logo-image44x44'
p876
NsS'osx-sign-for-store'
p877
NsS'symbian7-uid'
p878
NsS'wp8-tile-fliptemplate-large-back-content'
p879
NsS'wp81-phone-publisher-id'
p880
NsS'nds-bannertitle-cn'
p881
NsS'iphone-distribution-key'
p882
NsS'win10-phone-publisher-id'
p883
NsS'android-icon-gallery'
p884
NsS'blackberry-keystore'
p885
NsS'iphone-nosign'
p886
NsS'caption'
p887
NsS'nacl-permissions'
p888
NsS'android-extra-manifest'
p889
(lp890
sS'wp81-ext-sdk-ref'
p891
(lp892
sS'android-icon-xxhdpi'
p893
NsS'version-minor'
p894
NsS'iphone-skip-launch-generation'
p895
NsS'iphone-link-libdirs'
p896
(lp897
sS'iphone-icon-large'
p898
NsS'symbian-keypwd'
p899
NsS'symbian8-uid'
p900
NsS'symbian-cert-key'
p901
NsS'winmobile-ampd-part-number'
p902
NsS'arch'
p903
NsS'nds-romheadertemplate'
p904
NsS'webos-icon'
p905
NsS'wp81-ext-device-capabilities'
p906
(lp907
sS'psp-dlgprotectdocument'
p908
NsS'ws8-splash-screen-background'
p909
NsS'android-icon-mdpi'
p910
NsS'android-sdk-build-tools-version'
p911
NsS'nds-icon'
p912
NsS'ws8-custom-manifest-fill'
p913
NsS'iphone-development-cert'
p914
NsS'symbian-icon2-mask-black'
p915
NsS'blackberry-phone-icon'
p916
NsS'iphone-enable-4inch-retina'
p917
NsS'ws8-custom-manifest'
p918
NsS'version-major'
p919
NsS'wp8-genre-isgame'
p920
NsS'uiq3-uid'
p921
NsS'iphone-splash-retina-generate'
p922
NsS'tizen-hw-acceleration'
p923
NsS'iphone_bundle_localisations'
p924
NsS'tizen-dist1-key'
p925
NsS'wp81-custom-manifest-fill'
p926
NsS'wp8-custom-manifest'
p927
NsS'nds-bannertitle-ge'
p928
NsS'iphone-sign-for-distribution'
p929
NsS'wp8-tile-fliptemplate-medium-back-image'
p930
NsS'wp8-publisher-id'
p931
NsS'icon'
p932
NsS'android-target-sdk-version'
p933
NsS'win10-ext-capabilities'
p934
(lp935
sS'wp8-exclude-wxga'
p936
NsS'wp81-identity-name'
p937
NsS'uiq3-icon2-mask'
p938
NsS'iphone-splashscreen-portrait'
p939
NsS'iphone-icon-high-res'
p940
NsS'ws81-distribution-pfx-password'
p941
NsS'playbook-author'
p942
NsS'wp8-custom-manifest-fill'
p943
NsS'linux-ext-lib'
p944
(lp945
sS'blackberry-permissions-access-internet'
p946
NsS'lgtv-use-drm'
p947
NsS'win10-splash-screen-image480x800'
p948
NsS'symbian-platsecflags'
p949
NsS'ws8-description'
p950
NsS'blackberry-playbook-icon'
p951
NsS'win10-distribution-cer'
p952
NsS'copyright'
p953
NsS'winmobile-cab-compress'
p954
NsS'win32-gles-directory'
p955
NsS'wp8-author'
p956
NsS'android-ext-min-sdk-version'
p957
(lp958
I4
asS'iphone-uiviewcontroller-based-status-bar'
p959
NsS'ws81-logo-image150x150'
p960
NsS'osx-signing-identity-app'
p961
NsS'tizen-project-url'
p962
NsS'symbian-icon-svg'
p963
NsS'android-aliasname'
p964
NsS'psp-dlgmanual'
p965
NsS'brew-uid'
p966
NsS'wp81-ext-native-only-dll'
p967
(lp968
sS'symbian-locationsupport'
p969
NsS'wp81-logo-image50x50'
p970
NsS'ws8-ext-managed-dll'
p971
(lp972
sS'nds-bannertitle-it'
p973
NsS'ws81-custom-manifest-fill'
p974
NsS'ws8-ext-sdk-manifest-part'
p975
(lp976
sS'uiq3-icon1-mask'
p977
NsS'winmobile-icon16'
p978
NsS'ws8-product-name'
p979
NsS'blackberry-cskpass'
p980
NsS'winmobile-start-menu-folder'
p981
NsS'brew-clsid'
p982
NsS'roku-requires-bluetooth'
p983
NsS'iphone-default-development-profile'
p984
NsS'ws8-ext-device-capabilities'
p985
(lp986
sS'blackberry-permissions-use-camera'
p987
NsS'ws81-extra-pri'
p988
(lp989
sS'iphone-prerendered-icon'
p990
NsS'iphone-appid'
p991
NsS'ws8-identity-name'
p992
NsS'tizen-dist2-CA-path'
p993
NsS'android-external-jars'
p994
(lp995
S'c:/marmalade/7.10/platform_libs/android/amazon-ads-android-sdk/third_party/lib/amazon-ads-5.5.149.jar'
p996
aS'c:/marmalade/7.10/extensions/s3eamazonads/lib/android/s3eAmazonAds.jar'
p997
asS'winmobile-icon64'
p998
NsS'blackberry-permissions-post-notification'
p999
NsS'winmobile-setup-dll'
p1000
NsS'firefoxos-manifest'
p1001
NsS'win8-winrt-extra-res'
p1002
(lp1003
sS'wp81-ext-sdk-manifest-part'
p1004
(lp1005
sS'symbian9-uid'
p1006
NsS'iphone-icon-ipad-ios7'
p1007
NsS'winmobile-trace-file'
p1008
NsS'roku-splash-color'
p1009
NsS'psp-appversion'
p1010
NsS'android-java-target-version'
p1011
NsS'ws8-publisher-id'
p1012
NsS'win10-splash-screen-background'
p1013
NsS'win10-product-id'
p1014
NsS'win10-logo-image30x30'
p1015
NsS'winmobile-png45'
p1016
NsS'wp81-extra-res'
p1017
(lp1018
sS'android-storepass'
p1019
NsS'nacl-icon-16X16'
p1020
NsS'osx-signing-identity-inst'
p1021
NsS'android-custom-activity'
p1022
NsS'psp-discversion'
p1023
NsS'wp81-ext-managed-dll'
p1024
(lp1025
sS'nacl-clear-user-data'
p1026
NsS'psp-copyright'
p1027
NsS'win10-ext-managed-dll'
p1028
(lp1029
sS'win10-logo-image50x50'
p1030
NsS'embed-icf'
p1031
NsS'tizen-manifest'
p1032
NsS'osx-icon'
p1033
NsS'webos-appinfo'
p1034
NsS'psp-dlghealthwarning'
p1035
NsS'webos-appid'
p1036
NsS'roku-icon-side-hd'
p1037
NsS'iphone-icon-ipad-search-high-res-ios7'
p1038
NsS'iphone-extra-plist'
p1039
(lp1040
sS'ws81-ext-sdk-manifest-part'
p1041
(lp1042
sS'loader_name_prefix'
p1043
NsS'iphone-launch-dir'
p1044
NsS'nds-titlename'
p1045
NsS'ws81-logo-image50x50'
p1046
NsS'wp81-custom-manifest'
p1047
NsS'osx-entitlements-plist'
p1048
NsS'win10-product-version'
p1049
NsS'psp-dlgicon0'
p1050
NsS'winmobile-nouninstall'
p1051
NsS'psp-discid'
p1052
NsS'tizen-dist2-password'
p1053
NsS'android-supports-gl-texture'
p1054
(lp1055
sS'ws8-ext-sdk-ref'
p1056
(lp1057
sS'iphone-extra-string'
p1058
(lp1059
sS'version-string'
p1060
NsS'iphone-icon-high-res-ios7'
p1061
NsS'ws8-certificate-end-date'
p1062
NsS'nacl-skip-zip'
p1063
NsS'win10-custom-manifest'
p1064
NsS'tizen-so'
p1065
(lp1066
sS'win10-logo-image44x44'
p1067
NsS'win10-custom-manifest-fill'
p1068
NsS'wp8-tile-fliptemplate-small-image'
p1069
NsS'win10-certificate-end-date'
p1070
NsS'playbook-authorid'
p1071
NsS'win10-publisher-id'
p1072
NsS'iphone-signing-identity'
p1073
NsS'roku-persist-quota'
p1074
NsS'nds-bannertitle-fr'
p1075
NsS'ws8-distribution-pfx'
p1076
NsS'ws8-publisher-display-name'
p1077
NsS'brew-icon-small'
p1078
NsS'psp-dlgpic2'
p1079
NsS'psp-dlgpic0'
p1080
NsS'win10-phone-product-id'
p1081
NsS'psp-pic0'
p1082
NsS'psp-pic1'
p1083
NsS'win32-pref-windowtitle'
p1084
NsS'psp-icon0'
p1085
NsS'psp-icon1'
p1086
NsS'ws81-identity-name'
p1087
NsS'win10-distribution-pfx'
p1088
NsS'winmobile-icon'
p1089
NsS'iphone-no-splash'
p1090
NsS'iphone-splash'
p1091
NsS'iphone-app-fonts'
p1092
NsS'wp8-ext-native-dll'
p1093
(lp1094
sS'wp81-splash-screen-image480x800'
p1095
NsS'ws81-distribution-cer'
p1096
NsS'win10-ext-sdk-manifest-part'
p1097
(lp1098
sS'uiq3-icon2'
p1099
NsS'uiq3-icon3'
p1100
NsS'uiq3-icon1'
p1101
NsS'uiq3-icon1-format'
p1102
NsS'ws8-logo-image50x50'
p1103
NsS'iphone-info-plist-override'
p1104
NsS'symbian-run-on-install'
p1105
NsS'wp81-description'
p1106
NsS'ws81-publisher-display-name'
p1107
NsS'android-version-name'
p1108
NsS'firefoxos-xulrunner'
p1109
NsS'symbian-soundrecordsupport'
p1110
NsS'iphone-backgroundmode-audio'
p1111
NsS'nds-bannertitle-sp'
p1112
NsS'win10-extra-pri'
p1113
(lp1114
sS'psp-producer'
p1115
NsS'iphone-apple-wwdr-cert'
p1116
NsS'android-icon-nonstandard'
p1117
NsS'win32-pref-processtitle'
p1118
NsS'android-icon-xhdpi'
p1119
NsS'nds-bannertitle-hn'
p1120
NsS'tizen-dist2-key'
p1121
NsS'brew-depends'
p1122
NsS'ws81-custom-manifest'
p1123
NsS'iphone-allow-launch-rotation'
p1124
NsS'brew-mif'
p1125
NsS'iphone-icon-ipad-search-ios7'
p1126
NsS'brew-icon-medium'
p1127
NsS'iphone-bundle-url-name'
p1128
NsS'wp8-tile-fliptemplate-large-front-image'
p1129
NsS'tizen-dist2-CA-root-path'
p1130
NsS'ws81-description'
p1131
NsS'uiq3-icon3-format'
p1132
NsS'win10-publisher-display-name'
p1133
NsS'ws81-logo-image30x30'
p1134
NsS'win10-ext-device-capabilities'
p1135
(lp1136
sS'win8-phone-extra-res'
p1137
(lp1138
sS'iphone-signing-host'
p1139
NsS'tizen-icon'
p1140
NsS'osx-info-plist'
p1141
NsS'symbian-icon1-format'
p1142
NsS'ws81-distribution-pfx'
p1143
NsS'win32-aux-dll'
p1144
(lp1145
sS'blackberry-authorid'
p1146
NsS'ws81-publisher-id'
p1147
NsS'win8-store-extra-res'
p1148
(lp1149
sS'wp8-description'
p1150
NsS'iphone-link-opts'
p1151
(lp1152
S'-Fc:/marmalade/7.10/platform_libs/iphone/amazon-ads-ios-sdk/third_party/Ads -framework AmazonAd'
p1153
aS'-weak_framework AdSupport -weak_framework CoreLocation -weak_framework SystemConfiguration'
p1154
aS'-weak_framework CoreTelephony -weak_framework MediaPlayer'
p1155
aS'-weak_framework EventKit -weak_framework EventKitUI'
p1156
asS'ws81-ext-sdk-ref'
p1157
(lp1158
sS'roku-splash-min-time'
p1159
NsS'wp8-tile-fliptemplate-medium-front-image'
p1160
NsS'iphone-disable-launch-images'
p1161
NsS'android-sdk-platform-version'
p1162
NsS'provider'
p1163
NsS'playbook-keystore'
p1164
NsS'tizen-appid'
p1165
NsS'wp8-extra-res'
p1166
(lp1167
sS'symbian-osexecsupport'
p1168
NsS'android-install-location'
p1169
NsS'nds-privatesavedatasize'
p1170
NsS'iphone-disable-testflight'
p1171
NsS'playbook-storepass'
p1172
NsS'android-icon-ldpi'
p1173
NsS'manufacturer'
p1174
NsS'itunes-artwork'
p1175
NsS'iphone-extra-sections'
p1176
NsS'ws81-product-name'
p1177
NsS'ws81-ext-native-dll'
p1178
(lp1179
sS'ws8-extra-pri'
p1180
(lp1181
sS'win32-icon'
p1182
NsS'ws8-logo-image30x30'
p1183
NsS'wp8-ext-managed-dll'
p1184
(lp1185
sS'iphone-splashscreen-landscape'
p1186
NsS'symbian-maxheapsize'
p1187
NsS'android-extra-packages'
p1188
(lp1189
sS'priv-sign-key'
p1190
NsS'networking'
p1191
NsS'android-icon'
p1192
NsS'iphone-icon-settings'
p1193
NsS'nacl-manifest'
p1194
NsS'wp81-phone-product-id'
p1195
NsS'firefoxos-icon-60X60'
p1196
NsS'iphone-distribution-cert'
p1197
NsS'android_extra_strings'
p1198
NsS'nds-bannertitle-en'
p1199
NsS'blackberry-permissions-record-audio'
p1200
NsS'android-so'
p1201
(lp1202
S'c:/marmalade/7.10/extensions/s3eamazonads/lib/android/libs3eAmazonAds.so'
p1203
asS'wp8-higher-mem'
p1204
NsS'wp8-ext-sdk-ref'
p1205
(lp1206
sS'wp8-fast-resume-mode'
p1207
NsS'roku-splash-screen-hd'
p1208
NsS'iphone-bundle-url-schemes'
p1209
NsS'roku-screensaver-private'
p1210
NsS'osx-extra-res'
p1211
(lp1212
sS'ws81-extra-res'
p1213
(lp1214
sS'playbook-icon'
p1215
NsS'uid'
p1216
NsS'pkguid-as-uid'
p1217
NsS'wp81-ext-native-dll'
p1218
(lp1219
sS'tizen-dist1-password'
p1220
NsS'roku-screensaver-title'
p1221
NsS'osx-minimum-osx-version'
p1222
NsS'symbian-cert'
p1223
NsS'iphone-icon'
p1224
NsS'ws81-ext-capabilities'
p1225
(lp1226
sS'ws8-distribution-cer'
p1227
NsS'playbook-access-shared'
p1228
NsS'iphone-icon-ipad-high-res-ios7'
p1229
NsS'iphone-link-libs'
p1230
(lp1231
sS'wp8-exclude-wvga'
p1232
NsS'assets'
p1233
NsS'wp8-tile-fliptemplate-large-back-image'
p1234
NsS'pub-sign-key'
p1235
NsS'nacl-legacy-ext'
p1236
NsS'android-extra-strings'
p1237
(lp1238
sS'tizen-author-CA-path'
p1239
Nssg387
g686
sbssS'platform'
p1240
S'S3E'
p1241
sg77
S'1.0'
p1242
sS'arcade_platform'
p1243
g4
sS'extensions'
p1244
(dp1245
sS'source_groups_tree'
p1246
(dp1247
S'(libpng)'
p1248
(dp1249
S'h'
p1250
(dp1251
S'c:/marmalade/7.10/modules/third_party/libpng/h/png.h'
p1252
(lp1253
I1
a(dp1254
asS'c:/marmalade/7.10/modules/third_party/libpng/h/pngconf.h'
p1255
(lp1256
I1
ag1254
assS'c:/marmalade/7.10/modules/third_party/libpng/libpng.mkf'
p1257
(lp1258
I1
a(dp1259
assS'(amazon-ads-android-sdk)'
p1260
(dp1261
S'c:/marmalade/7.10/platform_libs/android/amazon-ads-android-sdk/amazon-ads-android-sdk.mkf'
p1262
(lp1263
I1
a(dp1264
assS'(tiniconv)'
p1265
(dp1266
S'c:/marmalade/7.10/modules/third_party/tiniconv/source/tiniconv.h'
p1267
(lp1268
I1
a(dp1269
asS'c:/marmalade/7.10/modules/third_party/tiniconv/source/tiniconv_int.h'
p1270
(lp1271
I1
ag1269
asS'c:/marmalade/7.10/modules/third_party/tiniconv/tiniconv.mkf'
p1272
(lp1273
I1
a(dp1274
assS'(amazon-ads-ios-sdk)'
p1275
(dp1276
S'c:/marmalade/7.10/platform_libs/iphone/amazon-ads-ios-sdk/amazon-ads-ios-sdk.mkf'
p1277
(lp1278
I1
a(dp1279
assS'(SoundEngine)'
p1280
(dp1281
S'd:/marmalade/modules/soundengine/h/IwSoundInst.h'
p1282
(lp1283
I1
a(dp1284
asS'd:/marmalade/modules/soundengine/source/IwSoundPCM.cpp'
p1285
(lp1286
I1
ag1284
asS'd:/marmalade/modules/soundengine/h/IwSoundPCM.h'
p1287
(lp1288
I1
ag1284
asS'd:/marmalade/modules/soundengine/h/IwSoundSpec.h'
p1289
(lp1290
I1
ag1284
asS'd:/marmalade/modules/soundengine/h/IwResHandlerWAV.h'
p1291
(lp1292
I1
ag1284
asS'd:/marmalade/modules/soundengine/h/IwSoundManager.h'
p1293
(lp1294
I1
ag1284
asS'Docs'
p1295
(dp1296
S'd:/marmalade/modules/soundengine/docs/iwsound.config.txt'
p1297
(lp1298
I1
ag1284
assS'd:/marmalade/modules/soundengine/h/IwSound.h'
p1299
(lp1300
I1
ag1284
asS'd:/marmalade/modules/soundengine/source/IwSoundWAV.cpp'
p1301
(lp1302
I1
ag1284
asS'd:/marmalade/modules/soundengine/h/IwSoundParams.h'
p1303
(lp1304
I1
ag1284
asS'd:/marmalade/modules/soundengine/source/IwSoundADPCM.cpp'
p1305
(lp1306
I1
ag1284
asS'd:/marmalade/modules/soundengine/h/IwSoundADPCM.h'
p1307
(lp1308
I1
ag1284
asS'd:/marmalade/modules/soundengine/h/IwSoundWAV.h'
p1309
(lp1310
I1
ag1284
asS'd:/marmalade/modules/soundengine/source/IwResHandlerWAV.cpp'
p1311
(lp1312
I1
ag1284
asS'd:/marmalade/modules/soundengine/source/IwSoundInst.cpp'
p1313
(lp1314
I1
ag1284
asS'd:/marmalade/modules/soundengine/source/IwSoundData.cpp'
p1315
(lp1316
I1
ag1284
asS'd:/marmalade/modules/soundengine/source/IwSoundManager.cpp'
p1317
(lp1318
I1
ag1284
asS'd:/marmalade/modules/soundengine/h/IwSoundData.h'
p1319
(lp1320
I1
ag1284
asS'd:/marmalade/modules/soundengine/source/IwSoundParams.cpp'
p1321
(lp1322
I1
ag1284
asS'd:/marmalade/modules/soundengine/source/IwSoundGroup.cpp'
p1323
(lp1324
I1
ag1284
asS'd:/marmalade/modules/soundengine/soundengine.mkf'
p1325
(lp1326
I1
a(dp1327
asS'd:/marmalade/modules/soundengine/source/IwSoundSpec.cpp'
p1328
(lp1329
I1
ag1284
asS'd:/marmalade/modules/soundengine/h/IwSoundGroup.h'
p1330
(lp1331
I1
ag1284
assS'source'
p1332
(dp1333
S'd:/Marmalade/Stage1/source/input.h'
p1334
(lp1335
I1
a(dp1336
asS'd:/Marmalade/Stage1/source/scene.cpp'
p1337
(lp1338
I1
ag1336
asS'd:/Marmalade/Stage1/source/pauseMenu.h'
p1339
(lp1340
I1
ag1336
asS'd:/Marmalade/Stage1/source/game.h'
p1341
(lp1342
I1
ag1336
asS'd:/Marmalade/Stage1/source/Stage1.cpp'
p1343
(lp1344
I1
ag1336
asS'd:/Marmalade/Stage1/source/mainMenu.h'
p1345
(lp1346
I1
ag1336
asS'd:/Marmalade/Stage1/source/resources.cpp'
p1347
(lp1348
I1
ag1336
asS'd:/Marmalade/Stage1/source/game.cpp'
p1349
(lp1350
I1
ag1336
asS'd:/Marmalade/Stage1/source/audio.h'
p1351
(lp1352
I1
ag1336
asS'd:/Marmalade/Stage1/source/scene.h'
p1353
(lp1354
I1
ag1336
asS'd:/Marmalade/Stage1/source/pauseMenu.cpp'
p1355
(lp1356
I1
ag1336
asS'd:/Marmalade/Stage1/source/audio.cpp'
p1357
(lp1358
I1
ag1336
asS'd:/Marmalade/Stage1/source/resources.h'
p1359
(lp1360
I1
ag1336
asS'd:/Marmalade/Stage1/source/mainMenu.cpp'
p1361
(lp1362
I1
ag1336
asS'd:/Marmalade/Stage1/source/input.cpp'
p1363
(lp1364
I1
ag1336
assS'Extensions'
p1365
(dp1366
S's3eAmazonAds'
p1367
(dp1368
S'interface'
p1369
(dp1370
S'c:/marmalade/7.10/extensions/s3eamazonads/interface/s3eAmazonAds.defines.txt'
p1371
(lp1372
I1
a(dp1373
asS'c:/marmalade/7.10/extensions/s3eamazonads/interface/s3eAmazonAds_interface.cpp'
p1374
(lp1375
I1
ag1373
assS'c:/marmalade/7.10/extensions/s3eamazonads/s3eamazonads.mkf'
p1376
(lp1377
I1
a(dp1378
asS'c:/marmalade/7.10/extensions/s3eamazonads/h/s3eAmazonAds.h'
p1379
(lp1380
I1
ag1373
assS'PVRTexTool'
p1381
(dp1382
S'interface'
p1383
(dp1384
S'c:/marmalade/7.10/extensions/pvrtextool/interface/PVRTexTool_interface.cpp'
p1385
(lp1386
I1
a(dp1387
asS'c:/marmalade/7.10/extensions/pvrtextool/interface/PVRTexTool.defines.txt'
p1388
(lp1389
I1
ag1387
assS'c:/marmalade/7.10/extensions/pvrtextool/h/PVRTexTool.h'
p1390
(lp1391
I1
ag1387
asS'c:/marmalade/7.10/extensions/pvrtextool/pvrtextool.mkf'
p1392
(lp1393
I1
a(dp1394
asssS'(s3e-default)'
p1395
(dp1396
S'c:/marmalade/7.10/s3e/s3e-default.mkf'
p1397
(lp1398
I1
a(dp1399
assS"'Marmalade Studio'"
p1400
(dp1401
S'iw2dscenegraph'
p1402
(dp1403
S'c:/marmalade/7.10/modules/iw2dscenegraph/source/Iw2DSceneGraph.cpp'
p1404
(lp1405
I1
a(dp1406
asS'c:/marmalade/7.10/modules/iw2dscenegraph/iw2dscenegraph.mkf'
p1407
(lp1408
I1
a(dp1409
asS'c:/marmalade/7.10/modules/iw2dscenegraph/h/Iw2DSceneGraph.h'
p1410
(lp1411
I1
ag1406
asS'c:/marmalade/7.10/modules/iw2dscenegraph/docs/iw2dscenegraph.defines.txt'
p1412
(lp1413
I1
ag1406
assS'iwgl'
p1414
(dp1415
S'c:/marmalade/7.10/modules/iwgl/iwgl.mkf'
p1416
(lp1417
I1
a(dp1418
asS'c:/marmalade/7.10/modules/iwgl/h/IwGL.h'
p1419
(lp1420
I1
a(dp1421
asS'c:/marmalade/7.10/modules/iwgl/docs/iwgl.config.txt'
p1422
(lp1423
I1
ag1421
asS'c:/marmalade/7.10/modules/iwgl/h/IwGLExt.h'
p1424
(lp1425
I1
ag1421
assS'iw2d'
p1426
(dp1427
S'c:/marmalade/7.10/modules/iw2d/iw2d.mkf'
p1428
(lp1429
I1
a(dp1430
asS'c:/marmalade/7.10/modules/iw2d/docs/iw2d_public.defines.txt'
p1431
(lp1432
I1
a(dp1433
asS'c:/marmalade/7.10/modules/iw2d/h/Iw2D.h'
p1434
(lp1435
I1
ag1433
asS'c:/marmalade/7.10/modules/iw2d/docs/iw2d.config.txt'
p1436
(lp1437
I1
ag1433
assS'iwgxfont'
p1438
(dp1439
S'c:/marmalade/7.10/modules/iwgxfont/h/IwGxFont.h'
p1440
(lp1441
I1
a(dp1442
asS'c:/marmalade/7.10/modules/iwgxfont/h/IwGxFontPreparedData.h'
p1443
(lp1444
I1
ag1442
asS'c:/marmalade/7.10/modules/iwgxfont/iwgxfont.mkf'
p1445
(lp1446
I1
a(dp1447
asS'c:/marmalade/7.10/modules/iwgxfont/docs/iwgxfont.config.txt'
p1448
(lp1449
I1
ag1442
asS'c:/marmalade/7.10/modules/iwgxfont/h/IwGxFontState.h'
p1450
(lp1451
I1
ag1442
asS'c:/marmalade/7.10/modules/iwgxfont/docs/iwgxfont_public.defines.txt'
p1452
(lp1453
I1
ag1442
asS'c:/marmalade/7.10/modules/iwgxfont/h/IwGxFontContainer.h'
p1454
(lp1455
I1
ag1442
asS'c:/marmalade/7.10/modules/iwgxfont/h/IwGxFontGlyph.h'
p1456
(lp1457
I1
ag1442
asS'c:/marmalade/7.10/modules/iwgxfont/h/IwGxFontTypes.h'
p1458
(lp1459
I1
ag1442
assS'iwgeom'
p1460
(dp1461
S'c:/marmalade/7.10/modules/iwgeom/h/IwGeomQuat.h'
p1462
(lp1463
I1
a(dp1464
asS'c:/marmalade/7.10/modules/iwgeom/h/IwGeomMat2D.h.tpl'
p1465
(lp1466
I1
ag1464
asS'c:/marmalade/7.10/modules/iwgeom/h/IwGeomIntersect.h'
p1467
(lp1468
I1
ag1464
asS'c:/marmalade/7.10/modules/iwgeom/h/IwGeomQuat.h.tpl'
p1469
(lp1470
I1
ag1464
asS'c:/marmalade/7.10/modules/iwgeom/h/IwGeomVec.h.tpl'
p1471
(lp1472
I1
ag1464
asS'c:/marmalade/7.10/modules/iwgeom/docs/iwgeom.config.txt'
p1473
(lp1474
I1
ag1464
asS'c:/marmalade/7.10/modules/iwgeom/h/IwGeomFBBox.h'
p1475
(lp1476
I1
ag1464
asS'c:/marmalade/7.10/modules/iwgeom/iwgeom.mkf'
p1477
(lp1478
I1
a(dp1479
asS'c:/marmalade/7.10/modules/iwgeom/h/IwGeomFSphere.h'
p1480
(lp1481
I1
ag1464
asS'c:/marmalade/7.10/modules/iwgeom/h/IwGeomSVec4.h'
p1482
(lp1483
I1
ag1464
asS'c:/marmalade/7.10/modules/iwgeom/h/IwGeomPlane.h'
p1484
(lp1485
I1
ag1464
asS'c:/marmalade/7.10/modules/iwgeom/h/IwGeomSVec3.h'
p1486
(lp1487
I1
ag1464
asS'c:/marmalade/7.10/modules/iwgeom/h/IwGeomVec4.h'
p1488
(lp1489
I1
ag1464
asS'c:/marmalade/7.10/modules/iwgeom/h/IwGeom.h'
p1490
(lp1491
I1
ag1464
asS'c:/marmalade/7.10/modules/iwgeom/h/IwGeomVec3.h'
p1492
(lp1493
I1
ag1464
asS'c:/marmalade/7.10/modules/iwgeom/h/IwGeomMat.h.tpl'
p1494
(lp1495
I1
ag1464
asS'c:/marmalade/7.10/modules/iwgeom/h/IwGeomFQuat.h'
p1496
(lp1497
I1
ag1464
asS'c:/marmalade/7.10/modules/iwgeom/h/IwGeomSphere.h'
p1498
(lp1499
I1
ag1464
asS'c:/marmalade/7.10/modules/iwgeom/h/IwGeomLegacy.h'
p1500
(lp1501
I1
ag1464
asS'c:/marmalade/7.10/modules/iwgeom/h/IwGeomVec2.h'
p1502
(lp1503
I1
ag1464
asS'c:/marmalade/7.10/modules/iwgeom/h/IwGeomFIntersect.h'
p1504
(lp1505
I1
ag1464
asS'c:/marmalade/7.10/modules/iwgeom/h/IwGeomFPlane.h'
p1506
(lp1507
I1
ag1464
asS'c:/marmalade/7.10/modules/iwgeom/h/IwGeomSQuat.h'
p1508
(lp1509
I1
ag1464
asS'c:/marmalade/7.10/modules/iwgeom/h/IwGeomSVec2.h'
p1510
(lp1511
I1
ag1464
asS'c:/marmalade/7.10/modules/iwgeom/h/IwGeomBBox.h'
p1512
(lp1513
I1
ag1464
asS'c:/marmalade/7.10/modules/iwgeom/h/IwGeomFMat2D.h'
p1514
(lp1515
I1
ag1464
asS'c:/marmalade/7.10/modules/iwgeom/h/IwGeomVec.h'
p1516
(lp1517
I1
ag1464
asS'c:/marmalade/7.10/modules/iwgeom/h/IwGeomMenu.h'
p1518
(lp1519
I1
ag1464
asS'c:/marmalade/7.10/modules/iwgeom/h/IwGeomFVec2.h'
p1520
(lp1521
I1
ag1464
asS'c:/marmalade/7.10/modules/iwgeom/h/IwGeomFMat.h'
p1522
(lp1523
I1
ag1464
asS'c:/marmalade/7.10/modules/iwgeom/h/IwGeomCore.h'
p1524
(lp1525
I1
ag1464
asS'c:/marmalade/7.10/modules/iwgeom/h/IwGeomFVec3.h'
p1526
(lp1527
I1
ag1464
asS'c:/marmalade/7.10/modules/iwgeom/h/IwGeomMat2D.h'
p1528
(lp1529
I1
ag1464
asS'c:/marmalade/7.10/modules/iwgeom/h/IwGeomMat.h'
p1530
(lp1531
I1
ag1464
asS'c:/marmalade/7.10/modules/iwgeom/h/IwGeomFVec4.h'
p1532
(lp1533
I1
ag1464
asS'c:/marmalade/7.10/modules/iwgeom/h/IwGeomSqrt.h'
p1534
(lp1535
I1
ag1464
assS'iwresmanager'
p1536
(dp1537
S'c:/marmalade/7.10/modules/iwresmanager/h/IwResHandler.h'
p1538
(lp1539
I1
a(dp1540
asS'c:/marmalade/7.10/modules/iwresmanager/docs/iwresmanager.config.txt'
p1541
(lp1542
I1
ag1540
asS'c:/marmalade/7.10/modules/iwresmanager/h/IwResHandlerImage.h'
p1543
(lp1544
I1
ag1540
asS'c:/marmalade/7.10/modules/iwresmanager/h/IwResHandlerITX.h'
p1545
(lp1546
I1
ag1540
asS'c:/marmalade/7.10/modules/iwresmanager/h/IwResManager.h'
p1547
(lp1548
I1
ag1540
asS'c:/marmalade/7.10/modules/iwresmanager/h/IwResSerialise.h'
p1549
(lp1550
I1
ag1540
asS'c:/marmalade/7.10/modules/iwresmanager/iwresmanager.mkf'
p1551
(lp1552
I1
a(dp1553
asS'c:/marmalade/7.10/modules/iwresmanager/h/IwResManagerClass.h'
p1554
(lp1555
I1
ag1540
asS'c:/marmalade/7.10/modules/iwresmanager/h/IwResGroup.h'
p1556
(lp1557
I1
ag1540
asS'c:/marmalade/7.10/modules/iwresmanager/h/IwResHandlerGROUP.h'
p1558
(lp1559
I1
ag1540
assS'iwgx'
p1560
(dp1561
S'c:/marmalade/7.10/modules/iwgx/h/IwGxPrint.h'
p1562
(lp1563
I1
a(dp1564
asS'c:/marmalade/7.10/modules/iwgx/h/IwGxError.h'
p1565
(lp1566
I1
ag1564
asS'c:/marmalade/7.10/modules/iwgx/h/IwGxSurface.h'
p1567
(lp1568
I1
ag1564
asS'c:/marmalade/7.10/modules/iwgx/h/IwGxTransformSW.h'
p1569
(lp1570
I1
ag1564
asS'c:/marmalade/7.10/modules/iwgx/h/IwGxDebug.h'
p1571
(lp1572
I1
ag1564
asS'c:/marmalade/7.10/modules/iwgx/h/IwClip.h'
p1573
(lp1574
I1
ag1564
asS'c:/marmalade/7.10/modules/iwgx/docs/iwgx.config.txt'
p1575
(lp1576
I1
ag1564
asS'c:/marmalade/7.10/modules/iwgx/h/IwColour.h'
p1577
(lp1578
I1
ag1564
asS'c:/marmalade/7.10/modules/iwgx/h/IwGxTypes.h'
p1579
(lp1580
I1
ag1564
asS'c:/marmalade/7.10/modules/iwgx/h/IwGx.h'
p1581
(lp1582
I1
ag1564
asS'c:/marmalade/7.10/modules/iwgx/h/IwDebugPrim.h'
p1583
(lp1584
I1
ag1564
asS'c:/marmalade/7.10/modules/iwgx/h/IwGxMetrics.h'
p1585
(lp1586
I1
ag1564
asS'c:/marmalade/7.10/modules/iwgx/iwgx.mkf'
p1587
(lp1588
I1
a(dp1589
asS'c:/marmalade/7.10/modules/iwgx/h/IwClip.inl'
p1590
(lp1591
I1
ag1564
asS'c:/marmalade/7.10/modules/iwgx/h/IwMatAnim.h'
p1592
(lp1593
I1
ag1564
asS'c:/marmalade/7.10/modules/iwgx/h/IwGxState.h'
p1594
(lp1595
I1
ag1564
asS'c:/marmalade/7.10/modules/iwgx/h/IwTexture.h'
p1596
(lp1597
I1
ag1564
asS'c:/marmalade/7.10/modules/iwgx/h/IwGxStream.h'
p1598
(lp1599
I1
ag1564
asS'c:/marmalade/7.10/modules/iwgx/h/IwTPage.h'
p1600
(lp1601
I1
ag1564
asS'c:/marmalade/7.10/modules/iwgx/h/IwResHandlerMTL.h'
p1602
(lp1603
I1
ag1564
asS'c:/marmalade/7.10/modules/iwgx/h/IwMaterial.h'
p1604
(lp1605
I1
ag1564
asS'c:/marmalade/7.10/modules/iwgx/h/IwGxFuncTable.h'
p1606
(lp1607
I1
ag1564
asS'c:/marmalade/7.10/modules/iwgx/h/IwFColour.h'
p1608
(lp1609
I1
ag1564
asS'c:/marmalade/7.10/modules/iwgx/docs/iwgx_public.defines.txt'
p1610
(lp1611
I1
ag1564
asS'c:/marmalade/7.10/modules/iwgx/h/IwGxShaderTechnique.h'
p1612
(lp1613
I1
ag1564
assS'iw2dscenegraphcore'
p1614
(dp1615
S'c:/marmalade/7.10/modules/iw2dscenegraphcore/iw2dscenegraphcore.mkf'
p1616
(lp1617
I1
a(dp1618
asS'c:/marmalade/7.10/modules/iw2dscenegraphcore/h/Iw2DSceneGraphCore.h'
p1619
(lp1620
I1
a(dp1621
asS'c:/marmalade/7.10/modules/iw2dscenegraphcore/source/Iw2DSceneGraphCore.cpp'
p1622
(lp1623
I1
ag1621
assS'iwutil'
p1624
(dp1625
S'c:/marmalade/7.10/modules/iwutil/h/IwDivTable.h'
p1626
(lp1627
I1
a(dp1628
asS'c:/marmalade/7.10/modules/iwutil/h/IwPath.h'
p1629
(lp1630
I1
ag1628
asS'c:/marmalade/7.10/modules/iwutil/h/IwFile.h'
p1631
(lp1632
I1
ag1628
asS'c:/marmalade/7.10/modules/iwutil/h/IwImage.h'
p1633
(lp1634
I1
ag1628
asS'c:/marmalade/7.10/modules/iwutil/h/IwMenu.h'
p1635
(lp1636
I1
ag1628
asS'c:/marmalade/7.10/modules/iwutil/h/IwArray.h'
p1637
(lp1638
I1
ag1628
asS'c:/marmalade/7.10/modules/iwutil/h/IwMemBucketHelpers.h'
p1639
(lp1640
I1
ag1628
asS'c:/marmalade/7.10/modules/iwutil/h/IwClassFactory.h'
p1641
(lp1642
I1
ag1628
asS'c:/marmalade/7.10/modules/iwutil/iwutil.mkf'
p1643
(lp1644
I1
a(dp1645
asS'c:/marmalade/7.10/modules/iwutil/h/IwDivide.h'
p1646
(lp1647
I1
ag1628
asS'c:/marmalade/7.10/modules/iwutil/h/IwMemory.h'
p1648
(lp1649
I1
ag1628
asS'c:/marmalade/7.10/modules/iwutil/h/IwManagedList.h'
p1650
(lp1651
I1
ag1628
asS'c:/marmalade/7.10/modules/iwutil/h/IwUtil.h'
p1652
(lp1653
I1
ag1628
asS'c:/marmalade/7.10/modules/iwutil/h/IwFibre.h'
p1654
(lp1655
I1
ag1628
asS'c:/marmalade/7.10/modules/iwutil/h/IwBuffer.h'
p1656
(lp1657
I1
ag1628
asS'c:/marmalade/7.10/modules/iwutil/h/IwHashString.h'
p1658
(lp1659
I1
ag1628
asS'c:/marmalade/7.10/modules/iwutil/h/IwSingleton.h'
p1660
(lp1661
I1
ag1628
asS'c:/marmalade/7.10/modules/iwutil/h/IwSerialise.h'
p1662
(lp1663
I1
ag1628
asS'c:/marmalade/7.10/modules/iwutil/h/IwMath.h'
p1664
(lp1665
I1
ag1628
asS'c:/marmalade/7.10/modules/iwutil/h/IwTypes.h'
p1666
(lp1667
I1
ag1628
asS'c:/marmalade/7.10/modules/iwutil/h/IwTextParser.h'
p1668
(lp1669
I1
ag1628
asS'c:/marmalade/7.10/modules/iwutil/h/IwOptimiseSpeed.h'
p1670
(lp1671
I1
ag1628
asS'c:/marmalade/7.10/modules/iwutil/h/IwKeymap.h'
p1672
(lp1673
I1
ag1628
asS'c:/marmalade/7.10/modules/iwutil/h/IwCore.h'
p1674
(lp1675
I1
ag1628
asS'c:/marmalade/7.10/modules/iwutil/h/IwAllocator.h'
p1676
(lp1677
I1
ag1628
asS'c:/marmalade/7.10/modules/iwutil/h/IwChar.h'
p1678
(lp1679
I1
ag1628
asS'c:/marmalade/7.10/modules/iwutil/h/IwOptimiseThumb.h'
p1680
(lp1681
I1
ag1628
asS'c:/marmalade/7.10/modules/iwutil/h/IwAutoFile.h'
p1682
(lp1683
I1
ag1628
asS'c:/marmalade/7.10/modules/iwutil/h/IwManaged.h'
p1684
(lp1685
I1
ag1628
asS'c:/marmalade/7.10/modules/iwutil/h/IwOptimiseARM.h'
p1686
(lp1687
I1
ag1628
asS'c:/marmalade/7.10/modules/iwutil/h/IwTextParserITX.h'
p1688
(lp1689
I1
ag1628
asS'c:/marmalade/7.10/modules/iwutil/h/IwList.h'
p1690
(lp1691
I1
ag1628
asS'c:/marmalade/7.10/modules/iwutil/h/IwUncopyable.h'
p1692
(lp1693
I1
ag1628
asS'c:/marmalade/7.10/modules/iwutil/h/IwRandom.h'
p1694
(lp1695
I1
ag1628
asS'c:/marmalade/7.10/modules/iwutil/h/IwProfileMenu.h'
p1696
(lp1697
I1
ag1628
asS'c:/marmalade/7.10/modules/iwutil/h/IwDebug.h'
p1698
(lp1699
I1
ag1628
asS'c:/marmalade/7.10/modules/iwutil/h/IwTextParseable.h'
p1700
(lp1701
I1
ag1628
asS'c:/marmalade/7.10/modules/iwutil/h/IwResource.h'
p1702
(lp1703
I1
ag1628
asS'c:/marmalade/7.10/modules/iwutil/h/IwOptimiseSize.h'
p1704
(lp1705
I1
ag1628
asS'c:/marmalade/7.10/modules/iwutil/h/IwVariableBitField.h'
p1706
(lp1707
I1
ag1628
asS'c:/marmalade/7.10/modules/iwutil/h/IwCopyingPtr.h'
p1708
(lp1709
I1
ag1628
asS'c:/marmalade/7.10/modules/iwutil/docs/iwutil.config.txt'
p1710
(lp1711
I1
ag1628
asS'c:/marmalade/7.10/modules/iwutil/h/IwUtilInitTerm.h'
p1712
(lp1713
I1
ag1628
asS'c:/marmalade/7.10/modules/iwutil/h/IwEvent.h'
p1714
(lp1715
I1
ag1628
asS'c:/marmalade/7.10/modules/iwutil/h/IwRuntime.h'
p1716
(lp1717
I1
ag1628
asS'c:/marmalade/7.10/modules/iwutil/h/IwUTF8.h'
p1718
(lp1719
I1
ag1628
asS'c:/marmalade/7.10/modules/iwutil/h/IwImageHelper.h'
p1720
(lp1721
I1
ag1628
asS'c:/marmalade/7.10/modules/iwutil/h/IwMemManagerDL.h'
p1722
(lp1723
I1
ag1628
asS'c:/marmalade/7.10/modules/iwutil/h/IwMemBucket.h'
p1724
(lp1725
I1
ag1628
asS'c:/marmalade/7.10/modules/iwutil/h/IwString.h'
p1726
(lp1727
I1
ag1628
asssS'(zlib)'
p1728
(dp1729
g1250
(dp1730
S'c:/marmalade/7.10/modules/third_party/zlib/h/zconf.h'
p1731
(lp1732
I1
a(dp1733
asS'c:/marmalade/7.10/modules/third_party/zlib/h/zlib.h'
p1734
(lp1735
I1
ag1733
assS'c:/marmalade/7.10/modules/third_party/zlib/zlib.mkf'
p1736
(lp1737
I1
a(dp1738
assS'(libjpeg)'
p1739
(dp1740
g1250
(dp1741
S'c:/marmalade/7.10/modules/third_party/libjpeg/h/jpeglib.h'
p1742
(lp1743
I1
a(dp1744
asS'c:/marmalade/7.10/modules/third_party/libjpeg/h/jdhuff.h'
p1745
(lp1746
I1
ag1744
asS'c:/marmalade/7.10/modules/third_party/libjpeg/h/transupp.h'
p1747
(lp1748
I1
ag1744
asS'c:/marmalade/7.10/modules/third_party/libjpeg/h/cdjpeg.h'
p1749
(lp1750
I1
ag1744
asS'c:/marmalade/7.10/modules/third_party/libjpeg/h/jerror.h'
p1751
(lp1752
I1
ag1744
asS'c:/marmalade/7.10/modules/third_party/libjpeg/h/jconfig.h'
p1753
(lp1754
I1
ag1744
asS'c:/marmalade/7.10/modules/third_party/libjpeg/h/jmorecfg.h'
p1755
(lp1756
I1
ag1744
asS'c:/marmalade/7.10/modules/third_party/libjpeg/h/jdct.h'
p1757
(lp1758
I1
ag1744
asS'c:/marmalade/7.10/modules/third_party/libjpeg/h/cderror.h'
p1759
(lp1760
I1
ag1744
asS'c:/marmalade/7.10/modules/third_party/libjpeg/h/jmemsys.h'
p1761
(lp1762
I1
ag1744
asS'c:/marmalade/7.10/modules/third_party/libjpeg/h/jchuff.h'
p1763
(lp1764
I1
ag1744
asS'c:/marmalade/7.10/modules/third_party/libjpeg/h/jpegint.h'
p1765
(lp1766
I1
ag1744
asS'c:/marmalade/7.10/modules/third_party/libjpeg/h/jinclude.h'
p1767
(lp1768
I1
ag1744
asS'c:/marmalade/7.10/modules/third_party/libjpeg/h/jversion.h'
p1769
(lp1770
I1
ag1744
assS'c:/marmalade/7.10/modules/third_party/libjpeg/libjpeg.mkf'
p1771
(lp1772
I1
a(dp1773
asssS'files'
p1774
(dp1775
S'IwGxFontPreparedData.h'
p1776
g361
(cmkb_main
File
p1777
g363
Ntp1778
Rp1779
(dp1780
S'flags'
p1781
g1442
sS'group'
p1782
(lp1783
S"'Marmalade Studio'"
p1784
ag1438
asg387
g1443
sbsS'iterator'
p1785
g361
(g1777
g363
Ntp1786
Rp1787
(dp1788
g1781
(dp1789
sg1782
(lp1790
S"'Marmalade System (S3E)'"
p1791
aS'stdc headers'
p1792
aS'c++'
p1793
asg387
S'c:/marmalade/7.10/s3e/h/std/c++/iterator'
p1794
sbsS'IwGL.h'
p1795
g361
(g1777
g363
Ntp1796
Rp1797
(dp1798
g1781
g1421
sg1782
(lp1799
S"'Marmalade Studio'"
p1800
ag1414
asg387
g1419
sbsS's3e.h'
p1801
g361
(g1777
g363
Ntp1802
Rp1803
(dp1804
g1781
g1789
sg1782
(lp1805
g1791
asg387
S'c:/marmalade/7.10/s3e/h/s3e.h'
p1806
sbsS'errno.h'
p1807
g361
(g1777
g363
Ntp1808
Rp1809
(dp1810
g1781
g1789
sg1782
(lp1811
g1791
aS'stdc headers'
p1812
asg387
S'c:/marmalade/7.10/s3e/h/std/errno.h'
p1813
sbsS'IwSingleton.h'
p1814
g361
(g1777
g363
Ntp1815
Rp1816
(dp1817
g1781
g1628
sg1782
(lp1818
S"'Marmalade Studio'"
p1819
ag1624
asg387
g1660
sbsS'dlfcn.h'
p1820
g361
(g1777
g363
Ntp1821
Rp1822
(dp1823
g1781
g1789
sg1782
g1811
sg387
S'c:/marmalade/7.10/s3e/h/std/dlfcn.h'
p1824
sbsS'IwSoundWAV.cpp'
p1825
g361
(g1777
g363
Ntp1826
Rp1827
(dp1828
g1781
g1284
sg1782
(lp1829
g1280
asg387
g1301
sbsS'sched.h'
p1830
g361
(g1777
g363
Ntp1831
Rp1832
(dp1833
g1781
g1789
sg1782
g1811
sg387
S'c:/marmalade/7.10/s3e/h/std/sched.h'
p1834
sbsS'IwSoundPCM.h'
p1835
g361
(g1777
g363
Ntp1836
Rp1837
(dp1838
g1781
g1284
sg1782
g1829
sg387
g1287
sbsS'IwGeomFMat2D.h'
p1839
g361
(g1777
g363
Ntp1840
Rp1841
(dp1842
g1781
g1464
sg1782
(lp1843
S"'Marmalade Studio'"
p1844
ag1460
asg387
g1514
sbsS'cassert'
p1845
g361
(g1777
g363
Ntp1846
Rp1847
(dp1848
g1781
g1789
sg1782
g1790
sg387
S'c:/marmalade/7.10/s3e/h/std/c++/cassert'
p1849
sbsS'grp.h'
p1850
g361
(g1777
g363
Ntp1851
Rp1852
(dp1853
g1781
g1789
sg1782
g1811
sg387
S'c:/marmalade/7.10/s3e/h/std/grp.h'
p1854
sbsS'list'
p1855
g361
(g1777
g363
Ntp1856
Rp1857
(dp1858
g1781
g1789
sg1782
g1790
sg387
S'c:/marmalade/7.10/s3e/h/std/c++/list'
p1859
sbsS'IwSoundSpec.cpp'
p1860
g361
(g1777
g363
Ntp1861
Rp1862
(dp1863
g1781
g1284
sg1782
g1829
sg387
g1328
sbsS'IwGeomMat.h.tpl'
p1864
g361
(g1777
g363
Ntp1865
Rp1866
(dp1867
g1781
g1464
sg1782
g1843
sg387
g1494
sbsS'istream'
p1868
g361
(g1777
g363
Ntp1869
Rp1870
(dp1871
g1781
g1789
sg1782
g1790
sg387
S'c:/marmalade/7.10/s3e/h/std/c++/istream'
p1872
sbsS'jpeglib.h'
p1873
g361
(g1777
g363
Ntp1874
Rp1875
(dp1876
g1781
g1744
sg1782
(lp1877
g1739
ag1250
asg387
g1742
sbsS'iw2d_public.defines.txt'
p1878
g361
(g1777
g363
Ntp1879
Rp1880
(dp1881
g1781
g1433
sg1782
(lp1882
S"'Marmalade Studio'"
p1883
ag1426
asg387
g1431
sbsS'iostream.h'
p1884
g361
(g1777
g363
Ntp1885
Rp1886
(dp1887
g1781
g1789
sg1782
g1790
sg387
S'c:/marmalade/7.10/s3e/h/std/c++/iostream.h'
p1888
sbsS'IwSoundADPCM.h'
p1889
g361
(g1777
g363
Ntp1890
Rp1891
(dp1892
g1781
g1284
sg1782
g1829
sg387
g1307
sbsS'string'
p1893
g361
(g1777
g363
Ntp1894
Rp1895
(dp1896
g1781
g1789
sg1782
g1790
sg387
S'c:/marmalade/7.10/s3e/h/std/c++/string'
p1897
sbsS'IwMemory.h'
p1898
g361
(g1777
g363
Ntp1899
Rp1900
(dp1901
g1781
g1628
sg1782
g1818
sg387
g1648
sbsS'IwGeomPlane.h'
p1902
g361
(g1777
g363
Ntp1903
Rp1904
(dp1905
g1781
g1464
sg1782
g1843
sg387
g1484
sbsS'iw2d.config.txt'
p1906
g361
(g1777
g363
Ntp1907
Rp1908
(dp1909
g1781
g1433
sg1782
g1882
sg387
g1436
sbsS'iomanip'
p1910
g361
(g1777
g363
Ntp1911
Rp1912
(dp1913
g1781
g1789
sg1782
g1790
sg387
S'c:/marmalade/7.10/s3e/h/std/c++/iomanip'
p1914
sbsS'iwgeom.mkf'
p1915
g361
(g1777
g363
Ntp1916
Rp1917
(dp1918
g1781
g1479
sg1782
g1843
sg387
g1477
sbsS'IwGxError.h'
p1919
g361
(g1777
g363
Ntp1920
Rp1921
(dp1922
g1781
g1564
sg1782
(lp1923
S"'Marmalade Studio'"
p1924
ag1560
asg387
g1565
sbsS'IwGeom.h'
p1925
g361
(g1777
g363
Ntp1926
Rp1927
(dp1928
g1781
g1464
sg1782
g1843
sg387
g1490
sbsS'scene.cpp'
p1929
g361
(g1777
g363
Ntp1930
Rp1931
(dp1932
g1781
g1336
sg1782
(lp1933
g1332
asg387
g1337
sbsS'IwGeomVec4.h'
p1934
g361
(g1777
g363
Ntp1935
Rp1936
(dp1937
g1781
g1464
sg1782
g1843
sg387
g1488
sbsS'dir.h'
p1938
g361
(g1777
g363
Ntp1939
Rp1940
(dp1941
g1781
g1789
sg1782
(lp1942
g1791
aS'stdc headers'
p1943
aS'sys'
p1944
asg387
S'c:/marmalade/7.10/s3e/h/std/sys/dir.h'
p1945
sbsS'locale.h'
p1946
g361
(g1777
g363
Ntp1947
Rp1948
(dp1949
g1781
g1789
sg1782
g1811
sg387
S'c:/marmalade/7.10/s3e/h/std/locale.h'
p1950
sbsS'vector'
p1951
g361
(g1777
g363
Ntp1952
Rp1953
(dp1954
g1781
g1789
sg1782
g1790
sg387
S'c:/marmalade/7.10/s3e/h/std/c++/vector'
p1955
sbsS'IwManaged.h'
p1956
g361
(g1777
g363
Ntp1957
Rp1958
(dp1959
g1781
g1628
sg1782
g1818
sg387
g1684
sbsS's3eCompass.h'
p1960
g361
(g1777
g363
Ntp1961
Rp1962
(dp1963
g1781
g1789
sg1782
g1805
sg387
S'c:/marmalade/7.10/s3e/h/s3eCompass.h'
p1964
sbsS'cderror.h'
p1965
g361
(g1777
g363
Ntp1966
Rp1967
(dp1968
g1781
g1744
sg1782
g1877
sg387
g1759
sbsS'climits'
p1969
g361
(g1777
g363
Ntp1970
Rp1971
(dp1972
g1781
g1789
sg1782
g1790
sg387
S'c:/marmalade/7.10/s3e/h/std/c++/climits'
p1973
sbsS'ipc.h'
p1974
g361
(g1777
g363
Ntp1975
Rp1976
(dp1977
g1781
g1789
sg1782
g1942
sg387
S'c:/marmalade/7.10/s3e/h/std/sys/ipc.h'
p1978
sbsS'jversion.h'
p1979
g361
(g1777
g363
Ntp1980
Rp1981
(dp1982
g1781
g1744
sg1782
g1877
sg387
g1769
sbsS'fnmatch.h'
p1983
g361
(g1777
g363
Ntp1984
Rp1985
(dp1986
g1781
g1789
sg1782
g1811
sg387
S'c:/marmalade/7.10/s3e/h/std/fnmatch.h'
p1987
sbsS'IwGxState.h'
p1988
g361
(g1777
g363
Ntp1989
Rp1990
(dp1991
g1781
g1564
sg1782
g1923
sg387
g1594
sbsS'rope'
p1992
g361
(g1777
g363
Ntp1993
Rp1994
(dp1995
g1781
g1789
sg1782
g1790
sg387
S'c:/marmalade/7.10/s3e/h/std/c++/rope'
p1996
sbsS's3eAudio.h'
p1997
g361
(g1777
g363
Ntp1998
Rp1999
(dp2000
g1781
g1789
sg1782
g1805
sg387
S'c:/marmalade/7.10/s3e/h/s3eAudio.h'
p2001
sbsS's3eSurface.h'
p2002
g361
(g1777
g363
Ntp2003
Rp2004
(dp2005
g1781
g1789
sg1782
g1805
sg387
S'c:/marmalade/7.10/s3e/h/s3eSurface.h'
p2006
sbsS'new'
p2007
g361
(g1777
g363
Ntp2008
Rp2009
(dp2010
g1781
g1789
sg1782
g1790
sg387
S'c:/marmalade/7.10/s3e/h/std/c++/new'
p2011
sbsS's3eWindow.h'
p2012
g361
(g1777
g363
Ntp2013
Rp2014
(dp2015
g1781
g1789
sg1782
(lp2016
g1791
aS'Extensions'
p2017
asg387
S'c:/marmalade/7.10/s3e/h/ext/s3eWindow.h'
p2018
sbsS'IwBuffer.h'
p2019
g361
(g1777
g363
Ntp2020
Rp2021
(dp2022
g1781
g1628
sg1782
g1818
sg387
g1656
sbsS'stdio_streambuf'
p2023
g361
(g1777
g363
Ntp2024
Rp2025
(dp2026
g1781
g1789
sg1782
g1790
sg387
S'c:/marmalade/7.10/s3e/h/std/c++/stdio_streambuf'
p2027
sbsS'IwGeomQuat.h.tpl'
p2028
g361
(g1777
g363
Ntp2029
Rp2030
(dp2031
g1781
g1464
sg1782
g1843
sg387
g1469
sbsS's3eOSExec.h'
p2032
g361
(g1777
g363
Ntp2033
Rp2034
(dp2035
g1781
g1789
sg1782
g2016
sg387
S'c:/marmalade/7.10/s3e/h/ext/s3eOSExec.h'
p2036
sbsS'IwGxTransformSW.h'
p2037
g361
(g1777
g363
Ntp2038
Rp2039
(dp2040
g1781
g1564
sg1782
g1923
sg387
g1569
sbsS'IwGxMetrics.h'
p2041
g361
(g1777
g363
Ntp2042
Rp2043
(dp2044
g1781
g1564
sg1782
g1923
sg387
g1585
sbsS'iwgxfont.config.txt'
p2045
g361
(g1777
g363
Ntp2046
Rp2047
(dp2048
g1781
g1442
sg1782
g1783
sg387
g1448
sbsS'gl2platform.h'
p2049
g361
(g1777
g363
Ntp2050
Rp2051
(dp2052
g1781
g1789
sg1782
(lp2053
g1791
aS'GL'
p2054
aS'GLES 2.0'
p2055
asg387
S'c:/marmalade/7.10/s3e/h/GLES2/gl2platform.h'
p2056
sbsS'IwResManagerClass.h'
p2057
g361
(g1777
g363
Ntp2058
Rp2059
(dp2060
g1781
g1540
sg1782
(lp2061
g1400
ag1536
asg387
g1554
sbsS'queue'
p2062
g361
(g1777
g363
Ntp2063
Rp2064
(dp2065
g1781
g1789
sg1782
g1790
sg387
S'c:/marmalade/7.10/s3e/h/std/c++/queue'
p2066
sbsS'time_1.h'
p2067
g361
(g1777
g363
Ntp2068
Rp2069
(dp2070
g1781
g1789
sg1782
g1942
sg387
S'c:/marmalade/7.10/s3e/h/std/sys/time.h'
p2071
sbsS'Iw2D.h'
p2072
g361
(g1777
g363
Ntp2073
Rp2074
(dp2075
g1781
g1433
sg1782
g1882
sg387
g1434
sbsS'IwGeomVec2.h'
p2076
g361
(g1777
g363
Ntp2077
Rp2078
(dp2079
g1781
g1464
sg1782
g1843
sg387
g1502
sbsS'sendfile.h'
p2080
g361
(g1777
g363
Ntp2081
Rp2082
(dp2083
g1781
g1789
sg1782
g1942
sg387
S'c:/marmalade/7.10/s3e/h/std/sys/sendfile.h'
p2084
sbsS'malloc.h'
p2085
g361
(g1777
g363
Ntp2086
Rp2087
(dp2088
g1781
g1789
sg1782
g1811
sg387
S'c:/marmalade/7.10/s3e/h/std/malloc.h'
p2089
sbsS'stdarg.h'
p2090
g361
(g1777
g363
Ntp2091
Rp2092
(dp2093
g1781
g1789
sg1782
g1811
sg387
S'c:/marmalade/7.10/s3e/h/std/stdarg.h'
p2094
sbsS'IwGeomCore.h'
p2095
g361
(g1777
g363
Ntp2096
Rp2097
(dp2098
g1781
g1464
sg1782
g1843
sg387
g1524
sbsS'Iw2DSceneGraph.h'
p2099
g361
(g1777
g363
Ntp2100
Rp2101
(dp2102
g1781
g1406
sg1782
(lp2103
S"'Marmalade Studio'"
p2104
ag1402
asg387
g1410
sbsS'endian.h'
p2105
g361
(g1777
g363
Ntp2106
Rp2107
(dp2108
g1781
g1789
sg1782
g1811
sg387
S'c:/marmalade/7.10/s3e/h/std/endian.h'
p2109
sbsS'gl3ext.h'
p2110
g361
(g1777
g363
Ntp2111
Rp2112
(dp2113
g1781
g1789
sg1782
(lp2114
g1791
aS'GL'
p2115
aS'GLES 3.0'
p2116
asg387
S'c:/marmalade/7.10/s3e/h/GLES3/gl3ext.h'
p2117
sbsS'glob.h'
p2118
g361
(g1777
g363
Ntp2119
Rp2120
(dp2121
g1781
g1789
sg1782
g1811
sg387
S'c:/marmalade/7.10/s3e/h/std/glob.h'
p2122
sbsS'fstream'
p2123
g361
(g1777
g363
Ntp2124
Rp2125
(dp2126
g1781
g1789
sg1782
g1790
sg387
S'c:/marmalade/7.10/s3e/h/std/c++/fstream'
p2127
sbsS's3eCamera.h'
p2128
g361
(g1777
g363
Ntp2129
Rp2130
(dp2131
g1781
g1789
sg1782
g1805
sg387
S'c:/marmalade/7.10/s3e/h/s3eCamera.h'
p2132
sbsS'jconfig.h'
p2133
g361
(g1777
g363
Ntp2134
Rp2135
(dp2136
g1781
g1744
sg1782
g1877
sg387
g1753
sbsS'memory'
p2137
g361
(g1777
g363
Ntp2138
Rp2139
(dp2140
g1781
g1789
sg1782
g1790
sg387
S'c:/marmalade/7.10/s3e/h/std/c++/memory'
p2141
sbsS'egl.h'
p2142
g361
(g1777
g363
Ntp2143
Rp2144
(dp2145
g1781
g1789
sg1782
(lp2146
g1791
aS'GL'
p2147
aS'EGL'
p2148
asg387
S'c:/marmalade/7.10/s3e/h/EGL/egl.h'
p2149
sbsS'egl_1.h'
p2150
g361
(g1777
g363
Ntp2151
Rp2152
(dp2153
g1781
g1789
sg1782
(lp2154
g1791
aS'GL'
p2155
aS'GLES 1.x'
p2156
asg387
S'c:/marmalade/7.10/s3e/h/GLES/egl.h'
p2157
sbsS'IwMemManagerDL.h'
p2158
g361
(g1777
g363
Ntp2159
Rp2160
(dp2161
g1781
g1628
sg1782
g1818
sg387
g1722
sbsS'deque'
p2162
g361
(g1777
g363
Ntp2163
Rp2164
(dp2165
g1781
g1789
sg1782
g1790
sg387
S'c:/marmalade/7.10/s3e/h/std/c++/deque'
p2166
sbsS'IwString.h'
p2167
g361
(g1777
g363
Ntp2168
Rp2169
(dp2170
g1781
g1628
sg1782
g1818
sg387
g1726
sbsS'cwchar'
p2171
g361
(g1777
g363
Ntp2172
Rp2173
(dp2174
g1781
g1789
sg1782
g1790
sg387
S'c:/marmalade/7.10/s3e/h/std/c++/cwchar'
p2175
sbsS'iwutil.mkf'
p2176
g361
(g1777
g363
Ntp2177
Rp2178
(dp2179
g1781
g1645
sg1782
g1818
sg387
g1643
sbsS'csignal'
p2180
g361
(g1777
g363
Ntp2181
Rp2182
(dp2183
g1781
g1789
sg1782
g1790
sg387
S'c:/marmalade/7.10/s3e/h/std/c++/csignal'
p2184
sbsS'pthread_types.h'
p2185
g361
(g1777
g363
Ntp2186
Rp2187
(dp2188
g1781
g1789
sg1782
g1811
sg387
S'c:/marmalade/7.10/s3e/h/std/pthread_types.h'
p2189
sbsS'pthread_alloc'
p2190
g361
(g1777
g363
Ntp2191
Rp2192
(dp2193
g1781
g1789
sg1782
g1790
sg387
S'c:/marmalade/7.10/s3e/h/std/c++/pthread_alloc'
p2194
sbsS'getopt.h'
p2195
g361
(g1777
g363
Ntp2196
Rp2197
(dp2198
g1781
g1789
sg1782
g1811
sg387
S'c:/marmalade/7.10/s3e/h/std/getopt.h'
p2199
sbsS'IwOptimiseARM.h'
p2200
g361
(g1777
g363
Ntp2201
Rp2202
(dp2203
g1781
g1628
sg1782
g1818
sg387
g1686
sbsS'times.h'
p2204
g361
(g1777
g363
Ntp2205
Rp2206
(dp2207
g1781
g1789
sg1782
g1942
sg387
S'c:/marmalade/7.10/s3e/h/std/sys/times.h'
p2208
sbsS'IwGeomFSphere.h'
p2209
g361
(g1777
g363
Ntp2210
Rp2211
(dp2212
g1781
g1464
sg1782
g1843
sg387
g1480
sbsS'amazon-ads-android-sdk.mkf'
p2213
g361
(g1777
g363
Ntp2214
Rp2215
(dp2216
g1781
g1264
sg1782
(lp2217
g1260
asg387
g1262
sbsS'game.h'
p2218
g361
(g1777
g363
Ntp2219
Rp2220
(dp2221
g1781
g1336
sg1782
g1933
sg387
g1341
sbsS'IwTypes.h'
p2222
g361
(g1777
g363
Ntp2223
Rp2224
(dp2225
g1781
g1628
sg1782
g1818
sg387
g1666
sbsS'unistd.h'
p2226
g361
(g1777
g363
Ntp2227
Rp2228
(dp2229
g1781
g1789
sg1782
g1811
sg387
S'c:/marmalade/7.10/s3e/h/std/unistd.h'
p2230
sbsS'audio.cpp'
p2231
g361
(g1777
g363
Ntp2232
Rp2233
(dp2234
g1781
g1336
sg1782
g1933
sg387
g1357
sbsS's3eCompression.h'
p2235
g361
(g1777
g363
Ntp2236
Rp2237
(dp2238
g1781
g1789
sg1782
g1805
sg387
S'c:/marmalade/7.10/s3e/h/s3eCompression.h'
p2239
sbsS'langinfo.h'
p2240
g361
(g1777
g363
Ntp2241
Rp2242
(dp2243
g1781
g1789
sg1782
g1811
sg387
S'c:/marmalade/7.10/s3e/h/std/langinfo.h'
p2244
sbsS's3edebugHeap.h'
p2245
g361
(g1777
g363
Ntp2246
Rp2247
(dp2248
g1781
g1789
sg1782
g2016
sg387
S'c:/marmalade/7.10/s3e/h/ext/s3edebugHeap.h'
p2249
sbsS'AirplayVersion.h'
p2250
g361
(g1777
g363
Ntp2251
Rp2252
(dp2253
g1781
g1789
sg1782
g1805
sg387
S'c:/marmalade/7.10/s3e/h/AirplayVersion.h'
p2254
sbsS'gl2extimg.h'
p2255
g361
(g1777
g363
Ntp2256
Rp2257
(dp2258
g1781
g1789
sg1782
g2053
sg387
S'c:/marmalade/7.10/s3e/h/GLES2/gl2extimg.h'
p2259
sbsS'app.config.txt'
p2260
g361
(g1777
g363
Ntp2261
Rp2262
(dp2263
g1781
(dp2264
sg1782
g4
sg387
S'd:/Marmalade/Stage1/data/app.config.txt'
p2265
sbsS'IwGeomSqrt.h'
p2266
g361
(g1777
g363
Ntp2267
Rp2268
(dp2269
g1781
g1464
sg1782
g1843
sg387
g1534
sbsS'tiniconv_int.h'
p2270
g361
(g1777
g363
Ntp2271
Rp2272
(dp2273
g1781
g1269
sg1782
(lp2274
g1265
asg387
g1270
sbsS'syslog.h'
p2275
g361
(g1777
g363
Ntp2276
Rp2277
(dp2278
g1781
g1789
sg1782
g1811
sg387
S'c:/marmalade/7.10/s3e/h/std/syslog.h'
p2279
sbsS'IwGxFontTypes.h'
p2280
g361
(g1777
g363
Ntp2281
Rp2282
(dp2283
g1781
g1442
sg1782
g1783
sg387
g1458
sbsS'IwGeomFIntersect.h'
p2284
g361
(g1777
g363
Ntp2285
Rp2286
(dp2287
g1781
g1464
sg1782
g1843
sg387
g1504
sbsS'hash_map'
p2288
g361
(g1777
g363
Ntp2289
Rp2290
(dp2291
g1781
g1789
sg1782
g1790
sg387
S'c:/marmalade/7.10/s3e/h/std/c++/hash_map'
p2292
sbsS's3e.mkf'
p2293
g361
(g1777
g363
Ntp2294
Rp2295
(dp2296
g1781
(dp2297
sg1782
g1805
sg387
S'c:/marmalade/7.10/s3e/s3e.mkf'
p2298
sbsS'IwGeomMat2D.h.tpl'
p2299
g361
(g1777
g363
Ntp2300
Rp2301
(dp2302
g1781
g1464
sg1782
g1843
sg387
g1465
sbsS's3eOSReadString.h'
p2303
g361
(g1777
g363
Ntp2304
Rp2305
(dp2306
g1781
g1789
sg1782
g2016
sg387
S'c:/marmalade/7.10/s3e/h/ext/s3eOSReadString.h'
p2307
sbsS'IwSound.h'
p2308
g361
(g1777
g363
Ntp2309
Rp2310
(dp2311
g1781
g1284
sg1782
g1829
sg387
g1299
sbsS'map'
p2312
g361
(g1777
g363
Ntp2313
Rp2314
(dp2315
g1781
g1789
sg1782
g1790
sg387
S'c:/marmalade/7.10/s3e/h/std/c++/map'
p2316
sbsS'IwOptimiseSpeed.h'
p2317
g361
(g1777
g363
Ntp2318
Rp2319
(dp2320
g1781
g1628
sg1782
g1818
sg387
g1670
sbsS'ostream'
p2321
g361
(g1777
g363
Ntp2322
Rp2323
(dp2324
g1781
g1789
sg1782
g1790
sg387
S'c:/marmalade/7.10/s3e/h/std/c++/ostream'
p2325
sbsS'msl_string.h'
p2326
g361
(g1777
g363
Ntp2327
Rp2328
(dp2329
g1781
g1789
sg1782
g1790
sg387
S'c:/marmalade/7.10/s3e/h/std/c++/msl_string.h'
p2330
sbsS'select.h'
p2331
g361
(g1777
g363
Ntp2332
Rp2333
(dp2334
g1781
g1789
sg1782
g1942
sg387
S'c:/marmalade/7.10/s3e/h/std/sys/select.h'
p2335
sbsS'zlib.mkf'
p2336
g361
(g1777
g363
Ntp2337
Rp2338
(dp2339
g1781
g1738
sg1782
(lp2340
g1728
asg387
g1736
sbsS'signal.h'
p2341
g361
(g1777
g363
Ntp2342
Rp2343
(dp2344
g1781
g1789
sg1782
g1811
sg387
S'c:/marmalade/7.10/s3e/h/std/signal.h'
p2345
sbsS'sigcontext.h'
p2346
g361
(g1777
g363
Ntp2347
Rp2348
(dp2349
g1781
g1789
sg1782
g1811
sg387
S'c:/marmalade/7.10/s3e/h/std/sigcontext.h'
p2350
sbsS'libpng.mkf'
p2351
g361
(g1777
g363
Ntp2352
Rp2353
(dp2354
g1781
g1259
sg1782
(lp2355
g1248
asg387
g1257
sbsS's3eClipboard.h'
p2356
g361
(g1777
g363
Ntp2357
Rp2358
(dp2359
g1781
g1789
sg1782
g1805
sg387
S'c:/marmalade/7.10/s3e/h/s3eClipboard.h'
p2360
sbsS'IwGxFuncTable.h'
p2361
g361
(g1777
g363
Ntp2362
Rp2363
(dp2364
g1781
g1564
sg1782
g1923
sg387
g1606
sbsS'IwResHandlerGROUP.h'
p2365
g361
(g1777
g363
Ntp2366
Rp2367
(dp2368
g1781
g1540
sg1782
g2061
sg387
g1558
sbsS's3eDebug.h'
p2369
g361
(g1777
g363
Ntp2370
Rp2371
(dp2372
g1781
g1789
sg1782
g1805
sg387
S'c:/marmalade/7.10/s3e/h/s3eDebug.h'
p2373
sbsS'socket.h'
p2374
g361
(g1777
g363
Ntp2375
Rp2376
(dp2377
g1781
g1789
sg1782
g1942
sg387
S'c:/marmalade/7.10/s3e/h/std/sys/socket.h'
p2378
sbsS'glext.h'
p2379
g361
(g1777
g363
Ntp2380
Rp2381
(dp2382
g1781
g1789
sg1782
g2154
sg387
S'c:/marmalade/7.10/s3e/h/GLES/glext.h'
p2383
sbsS'typeinfo.h'
p2384
g361
(g1777
g363
Ntp2385
Rp2386
(dp2387
g1781
g1789
sg1782
g1790
sg387
S'c:/marmalade/7.10/s3e/h/std/c++/typeinfo.h'
p2388
sbsS'typeinfo'
p2389
g361
(g1777
g363
Ntp2390
Rp2391
(dp2392
g1781
g1789
sg1782
g1790
sg387
S'c:/marmalade/7.10/s3e/h/std/c++/typeinfo'
p2393
sbsS'iwsound.config.txt'
p2394
g361
(g1777
g363
Ntp2395
Rp2396
(dp2397
g1781
g1284
sg1782
(lp2398
g1280
ag1295
asg387
g1297
sbsS'fstream.h'
p2399
g361
(g1777
g363
Ntp2400
Rp2401
(dp2402
g1781
g1789
sg1782
g1790
sg387
S'c:/marmalade/7.10/s3e/h/std/c++/fstream.h'
p2403
sbsS'IwGeomMat.h'
p2404
g361
(g1777
g363
Ntp2405
Rp2406
(dp2407
g1781
g1464
sg1782
g1843
sg387
g1530
sbsS's3ePointer.h'
p2408
g361
(g1777
g363
Ntp2409
Rp2410
(dp2411
g1781
g1789
sg1782
g1805
sg387
S'c:/marmalade/7.10/s3e/h/s3ePointer.h'
p2412
sbsS'iw2d.mkf'
p2413
g361
(g1777
g363
Ntp2414
Rp2415
(dp2416
g1781
g1430
sg1782
g1882
sg387
g1428
sbsS'PVRTexTool.h'
p2417
g361
(g1777
g363
Ntp2418
Rp2419
(dp2420
g1781
g1387
sg1782
(lp2421
S'Extensions'
p2422
ag1381
asg387
g1390
sbsS's3eGL.h'
p2423
g361
(g1777
g363
Ntp2424
Rp2425
(dp2426
g1781
g1789
sg1782
g1805
sg387
S'c:/marmalade/7.10/s3e/h/s3eGL.h'
p2427
sbsS'IwGeomFVec2.h'
p2428
g361
(g1777
g363
Ntp2429
Rp2430
(dp2431
g1781
g1464
sg1782
g1843
sg387
g1520
sbsS'IwGeomSVec4.h'
p2432
g361
(g1777
g363
Ntp2433
Rp2434
(dp2435
g1781
g1464
sg1782
g1843
sg387
g1482
sbsS'poll.h'
p2436
g361
(g1777
g363
Ntp2437
Rp2438
(dp2439
g1781
g1789
sg1782
g1811
sg387
S'c:/marmalade/7.10/s3e/h/std/poll.h'
p2440
sbsS'IwMatAnim.h'
p2441
g361
(g1777
g363
Ntp2442
Rp2443
(dp2444
g1781
g1564
sg1782
g1923
sg387
g1592
sbsS'IwGeomFVec4.h'
p2445
g361
(g1777
g363
Ntp2446
Rp2447
(dp2448
g1781
g1464
sg1782
g1843
sg387
g1532
sbsS'IwGx.h'
p2449
g361
(g1777
g363
Ntp2450
Rp2451
(dp2452
g1781
g1564
sg1782
g1923
sg387
g1581
sbsS'valarray'
p2453
g361
(g1777
g363
Ntp2454
Rp2455
(dp2456
g1781
g1789
sg1782
g1790
sg387
S'c:/marmalade/7.10/s3e/h/std/c++/valarray'
p2457
sbsS'iosfwd'
p2458
g361
(g1777
g363
Ntp2459
Rp2460
(dp2461
g1781
g1789
sg1782
g1790
sg387
S'c:/marmalade/7.10/s3e/h/std/c++/iosfwd'
p2462
sbsS'gl2.h'
p2463
g361
(g1777
g363
Ntp2464
Rp2465
(dp2466
g1781
g1789
sg1782
g2053
sg387
S'c:/marmalade/7.10/s3e/h/GLES2/gl2.h'
p2467
sbsS'jpegint.h'
p2468
g361
(g1777
g363
Ntp2469
Rp2470
(dp2471
g1781
g1744
sg1782
g1877
sg387
g1765
sbsS'stdiostream.h'
p2472
g361
(g1777
g363
Ntp2473
Rp2474
(dp2475
g1781
g1789
sg1782
g1790
sg387
S'c:/marmalade/7.10/s3e/h/std/c++/stdiostream.h'
p2476
sbsS'mem.h'
p2477
g361
(g1777
g363
Ntp2478
Rp2479
(dp2480
g1781
g1789
sg1782
g1790
sg387
S'c:/marmalade/7.10/s3e/h/std/c++/mem.h'
p2481
sbsS'jerror.h'
p2482
g361
(g1777
g363
Ntp2483
Rp2484
(dp2485
g1781
g1744
sg1782
g1877
sg387
g1751
sbsS'zconf.h'
p2486
g361
(g1777
g363
Ntp2487
Rp2488
(dp2489
g1781
g1733
sg1782
(lp2490
g1728
ag1250
asg387
g1731
sbsS's3e.config.txt'
p2491
g361
(g1777
g363
Ntp2492
Rp2493
(dp2494
g1781
g1789
sg1782
g1805
sg387
S'c:/marmalade/7.10/s3e/s3e.config.txt'
p2495
sbsS'numeric'
p2496
g361
(g1777
g363
Ntp2497
Rp2498
(dp2499
g1781
g1789
sg1782
g1790
sg387
S'c:/marmalade/7.10/s3e/h/std/c++/numeric'
p2500
sbsS'utime.h'
p2501
g361
(g1777
g363
Ntp2502
Rp2503
(dp2504
g1781
g1789
sg1782
g1811
sg387
S'c:/marmalade/7.10/s3e/h/std/utime.h'
p2505
sbsS'jdhuff.h'
p2506
g361
(g1777
g363
Ntp2507
Rp2508
(dp2509
g1781
g1744
sg1782
g1877
sg387
g1745
sbsS'IwResHandlerWAV.cpp'
p2510
g361
(g1777
g363
Ntp2511
Rp2512
(dp2513
g1781
g1284
sg1782
g1829
sg387
g1311
sbsS'un.h'
p2514
g361
(g1777
g363
Ntp2515
Rp2516
(dp2517
g1781
g1789
sg1782
g1942
sg387
S'c:/marmalade/7.10/s3e/h/std/sys/un.h'
p2518
sbsS'IwImage.h'
p2519
g361
(g1777
g363
Ntp2520
Rp2521
(dp2522
g1781
g1628
sg1782
g1818
sg387
g1633
sbsS's3eImagePicker.h'
p2523
g361
(g1777
g363
Ntp2524
Rp2525
(dp2526
g1781
g1789
sg1782
g2016
sg387
S'c:/marmalade/7.10/s3e/h/ext/s3eImagePicker.h'
p2527
sbsS'stdlib.h'
p2528
g361
(g1777
g363
Ntp2529
Rp2530
(dp2531
g1781
g1789
sg1782
g1811
sg387
S'c:/marmalade/7.10/s3e/h/std/stdlib.h'
p2532
sbsS'IwCopyingPtr.h'
p2533
g361
(g1777
g363
Ntp2534
Rp2535
(dp2536
g1781
g1628
sg1782
g1818
sg387
g1708
sbsS'iostream'
p2537
g361
(g1777
g363
Ntp2538
Rp2539
(dp2540
g1781
g1789
sg1782
g1790
sg387
S'c:/marmalade/7.10/s3e/h/std/c++/iostream'
p2541
sbsS'png.h'
p2542
g361
(g1777
g363
Ntp2543
Rp2544
(dp2545
g1781
g1254
sg1782
(lp2546
g1248
ag1250
asg387
g1252
sbsS'stddef.h'
p2547
g361
(g1777
g363
Ntp2548
Rp2549
(dp2550
g1781
g1789
sg1782
g1811
sg387
S'c:/marmalade/7.10/s3e/h/std/stddef.h'
p2551
sbsS'setjmp_win32.h'
p2552
g361
(g1777
g363
Ntp2553
Rp2554
(dp2555
g1781
g1789
sg1782
g1811
sg387
S'c:/marmalade/7.10/s3e/h/std/setjmp_win32.h'
p2556
sbsS'pauseMenu.h'
p2557
g361
(g1777
g363
Ntp2558
Rp2559
(dp2560
g1781
g1336
sg1782
g1933
sg387
g1339
sbsS'IwGxPrint.h'
p2561
g361
(g1777
g363
Ntp2562
Rp2563
(dp2564
g1781
g1564
sg1782
g1923
sg387
g1562
sbsS'iwgx_public.defines.txt'
p2565
g361
(g1777
g363
Ntp2566
Rp2567
(dp2568
g1781
g1564
sg1782
g1923
sg387
g1610
sbsS'streambuf.h'
p2569
g361
(g1777
g363
Ntp2570
Rp2571
(dp2572
g1781
g1789
sg1782
g1790
sg387
S'c:/marmalade/7.10/s3e/h/std/c++/streambuf.h'
p2573
sbsS'resources.cpp'
p2574
g361
(g1777
g363
Ntp2575
Rp2576
(dp2577
g1781
g1336
sg1782
g1933
sg387
g1347
sbsS'IwGeomFPlane.h'
p2578
g361
(g1777
g363
Ntp2579
Rp2580
(dp2581
g1781
g1464
sg1782
g1843
sg387
g1506
sbsS'wchar.h'
p2582
g361
(g1777
g363
Ntp2583
Rp2584
(dp2585
g1781
g1789
sg1782
g1811
sg387
S'c:/marmalade/7.10/s3e/h/std/wchar.h'
p2586
sbsS's3eCameraCapture.h'
p2587
g361
(g1777
g363
Ntp2588
Rp2589
(dp2590
g1781
g1789
sg1782
g2016
sg387
S'c:/marmalade/7.10/s3e/h/ext/s3eCameraCapture.h'
p2591
sbsS'eglext.h'
p2592
g361
(g1777
g363
Ntp2593
Rp2594
(dp2595
g1781
g1789
sg1782
g2146
sg387
S'c:/marmalade/7.10/s3e/h/EGL/eglext.h'
p2596
sbsS'IwResHandlerImage.h'
p2597
g361
(g1777
g363
Ntp2598
Rp2599
(dp2600
g1781
g1540
sg1782
g2061
sg387
g1543
sbsS'strstream.h'
p2601
g361
(g1777
g363
Ntp2602
Rp2603
(dp2604
g1781
g1789
sg1782
g1790
sg387
S'c:/marmalade/7.10/s3e/h/std/c++/strstream.h'
p2605
sbsS'tiniconv.h'
p2606
g361
(g1777
g363
Ntp2607
Rp2608
(dp2609
g1781
g1269
sg1782
g2274
sg387
g1267
sbsS'IwGLExt.h'
p2610
g361
(g1777
g363
Ntp2611
Rp2612
(dp2613
g1781
g1421
sg1782
g1799
sg387
g1424
sbsS'app.icf'
p2614
g361
(g1777
g363
Ntp2615
Rp2616
(dp2617
g1781
(dp2618
sg1782
g4
sg387
S'd:/Marmalade/Stage1/data/app.icf'
p2619
sbsS'IwClassFactory.h'
p2620
g361
(g1777
g363
Ntp2621
Rp2622
(dp2623
g1781
g1628
sg1782
g1818
sg387
g1641
sbsS'file.h'
p2624
g361
(g1777
g363
Ntp2625
Rp2626
(dp2627
g1781
g1789
sg1782
g1942
sg387
S'c:/marmalade/7.10/s3e/h/std/sys/file.h'
p2628
sbsS'cstring'
p2629
g361
(g1777
g363
Ntp2630
Rp2631
(dp2632
g1781
g1789
sg1782
g1790
sg387
S'c:/marmalade/7.10/s3e/h/std/c++/cstring'
p2633
sbsS'IwSoundInst.cpp'
p2634
g361
(g1777
g363
Ntp2635
Rp2636
(dp2637
g1781
g1284
sg1782
g1829
sg387
g1313
sbsS'iwutil.config.txt'
p2638
g361
(g1777
g363
Ntp2639
Rp2640
(dp2641
g1781
g1628
sg1782
g1818
sg387
g1710
sbsS's3eSMS.h'
p2642
g361
(g1777
g363
Ntp2643
Rp2644
(dp2645
g1781
g1789
sg1782
g2016
sg387
S'c:/marmalade/7.10/s3e/h/ext/s3eSMS.h'
p2646
sbsS'limits.h'
p2647
g361
(g1777
g363
Ntp2648
Rp2649
(dp2650
g1781
g1789
sg1782
g1811
sg387
S'c:/marmalade/7.10/s3e/h/std/limits.h'
p2651
sbsS'scene.h'
p2652
g361
(g1777
g363
Ntp2653
Rp2654
(dp2655
g1781
g1336
sg1782
g1933
sg387
g1353
sbsS'IwMaterial.h'
p2656
g361
(g1777
g363
Ntp2657
Rp2658
(dp2659
g1781
g1564
sg1782
g1923
sg387
g1604
sbsS'amazon-ads-ios-sdk.mkf'
p2660
g361
(g1777
g363
Ntp2661
Rp2662
(dp2663
g1781
g1279
sg1782
(lp2664
g1275
asg387
g1277
sbsS'PVRTexTool_interface.cpp'
p2665
g361
(g1777
g363
Ntp2666
Rp2667
(dp2668
g1781
g1387
sg1782
(lp2669
g2422
ag1381
ag1383
asg387
g1385
sbsS'IwGxSurface.h'
p2670
g361
(g1777
g363
Ntp2671
Rp2672
(dp2673
g1781
g1564
sg1782
g1923
sg387
g1567
sbsS's3eSocket.h'
p2674
g361
(g1777
g363
Ntp2675
Rp2676
(dp2677
g1781
g1789
sg1782
g1805
sg387
S'c:/marmalade/7.10/s3e/h/s3eSocket.h'
p2678
sbsS'IwAutoFile.h'
p2679
g361
(g1777
g363
Ntp2680
Rp2681
(dp2682
g1781
g1628
sg1782
g1818
sg387
g1682
sbsS's3eVibra.h'
p2683
g361
(g1777
g363
Ntp2684
Rp2685
(dp2686
g1781
g1789
sg1782
g1805
sg387
S'c:/marmalade/7.10/s3e/h/s3eVibra.h'
p2687
sbsS'poll_1.h'
p2688
g361
(g1777
g363
Ntp2689
Rp2690
(dp2691
g1781
g1789
sg1782
g1942
sg387
S'c:/marmalade/7.10/s3e/h/std/sys/poll.h'
p2692
sbsS's3eThread.h'
p2693
g361
(g1777
g363
Ntp2694
Rp2695
(dp2696
g1781
g1789
sg1782
g1805
sg387
S'c:/marmalade/7.10/s3e/h/s3eThread.h'
p2697
sbsS'ucontext.h'
p2698
g361
(g1777
g363
Ntp2699
Rp2700
(dp2701
g1781
g1789
sg1782
g1811
sg387
S'c:/marmalade/7.10/s3e/h/std/ucontext.h'
p2702
sbsS'time.h'
p2703
g361
(g1777
g363
Ntp2704
Rp2705
(dp2706
g1781
g1789
sg1782
g1811
sg387
S'c:/marmalade/7.10/s3e/h/std/time.h'
p2707
sbsS'jchuff.h'
p2708
g361
(g1777
g363
Ntp2709
Rp2710
(dp2711
g1781
g1744
sg1782
g1877
sg387
g1763
sbsS'IwSoundPCM.cpp'
p2712
g361
(g1777
g363
Ntp2713
Rp2714
(dp2715
g1781
g1284
sg1782
g1829
sg387
g1285
sbsS's3eSoundRecord.h'
p2716
g361
(g1777
g363
Ntp2717
Rp2718
(dp2719
g1781
g1789
sg1782
g1805
sg387
S'c:/marmalade/7.10/s3e/h/s3eSoundRecord.h'
p2720
sbsS'IwFibre.h'
p2721
g361
(g1777
g363
Ntp2722
Rp2723
(dp2724
g1781
g1628
sg1782
g1818
sg387
g1654
sbsS's3eVersion.h'
p2725
g361
(g1777
g363
Ntp2726
Rp2727
(dp2728
g1781
g1789
sg1782
g1805
sg387
S'c:/marmalade/7.10/s3e/h/s3eVersion.h'
p2729
sbsS'input.cpp'
p2730
g361
(g1777
g363
Ntp2731
Rp2732
(dp2733
g1781
g1336
sg1782
g1933
sg387
g1363
sbsS'IwSoundGroup.h'
p2734
g361
(g1777
g363
Ntp2735
Rp2736
(dp2737
g1781
g1284
sg1782
g1829
sg387
g1330
sbsS'IwSoundWAV.h'
p2738
g361
(g1777
g363
Ntp2739
Rp2740
(dp2741
g1781
g1284
sg1782
g1829
sg387
g1309
sbsS'IwGxFontGlyph.h'
p2742
g361
(g1777
g363
Ntp2743
Rp2744
(dp2745
g1781
g1442
sg1782
g1783
sg387
g1456
sbsS's3eTypes.h'
p2746
g361
(g1777
g363
Ntp2747
Rp2748
(dp2749
g1781
g1789
sg1782
g1805
sg387
S'c:/marmalade/7.10/s3e/h/s3eTypes.h'
p2750
sbsS'IwSoundSpec.h'
p2751
g361
(g1777
g363
Ntp2752
Rp2753
(dp2754
g1781
g1284
sg1782
g1829
sg387
g1289
sbsS'signal_2.h'
p2755
g361
(g1777
g363
Ntp2756
Rp2757
(dp2758
g1781
g1789
sg1782
g1790
sg387
S'c:/marmalade/7.10/s3e/h/std/c++/signal.h'
p2759
sbsS'termios.h'
p2760
g361
(g1777
g363
Ntp2761
Rp2762
(dp2763
g1781
g1789
sg1782
g1811
sg387
S'c:/marmalade/7.10/s3e/h/std/termios.h'
p2764
sbsS's3eAmazonAds_interface.cpp'
p2765
g361
(g1777
g363
Ntp2766
Rp2767
(dp2768
g1781
g1373
sg1782
(lp2769
g1365
ag1367
ag1369
asg387
g1374
sbsS'iw2dscenegraph.mkf'
p2770
g361
(g1777
g363
Ntp2771
Rp2772
(dp2773
g1781
g1409
sg1782
g2103
sg387
g1407
sbsS'slist'
p2774
g361
(g1777
g363
Ntp2775
Rp2776
(dp2777
g1781
g1789
sg1782
g1790
sg387
S'c:/marmalade/7.10/s3e/h/std/c++/slist'
p2778
sbsS'cstdlib'
p2779
g361
(g1777
g363
Ntp2780
Rp2781
(dp2782
g1781
g1789
sg1782
g1790
sg387
S'c:/marmalade/7.10/s3e/h/std/c++/cstdlib'
p2783
sbsS's3eLocation.h'
p2784
g361
(g1777
g363
Ntp2785
Rp2786
(dp2787
g1781
g1789
sg1782
g1805
sg387
S'c:/marmalade/7.10/s3e/h/s3eLocation.h'
p2788
sbsS'IwMemBucketHelpers.h'
p2789
g361
(g1777
g363
Ntp2790
Rp2791
(dp2792
g1781
g1628
sg1782
g1818
sg387
g1639
sbsS's3eHash.h'
p2793
g361
(g1777
g363
Ntp2794
Rp2795
(dp2796
g1781
g1789
sg1782
g1805
sg387
S'c:/marmalade/7.10/s3e/h/s3eHash.h'
p2797
sbsS'IwSoundGroup.cpp'
p2798
g361
(g1777
g363
Ntp2799
Rp2800
(dp2801
g1781
g1284
sg1782
g1829
sg387
g1323
sbsS'IwGeomFMat.h'
p2802
g361
(g1777
g363
Ntp2803
Rp2804
(dp2805
g1781
g1464
sg1782
g1843
sg387
g1522
sbsS'type_traits.h'
p2806
g361
(g1777
g363
Ntp2807
Rp2808
(dp2809
g1781
g1789
sg1782
g1790
sg387
S'c:/marmalade/7.10/s3e/h/std/c++/type_traits.h'
p2810
sbsS's3eAtomic.h'
p2811
g361
(g1777
g363
Ntp2812
Rp2813
(dp2814
g1781
g1789
sg1782
g1805
sg387
S'c:/marmalade/7.10/s3e/h/s3eAtomic.h'
p2815
sbsS'IwMenu.h'
p2816
g361
(g1777
g363
Ntp2817
Rp2818
(dp2819
g1781
g1628
sg1782
g1818
sg387
g1635
sbsS'IwResHandlerITX.h'
p2820
g361
(g1777
g363
Ntp2821
Rp2822
(dp2823
g1781
g1540
sg1782
g2061
sg387
g1545
sbsS'IwSoundData.h'
p2824
g361
(g1777
g363
Ntp2825
Rp2826
(dp2827
g1781
g1284
sg1782
g1829
sg387
g1319
sbsS'IwArray.h'
p2828
g361
(g1777
g363
Ntp2829
Rp2830
(dp2831
g1781
g1628
sg1782
g1818
sg387
g1637
sbsS'IwUTF8.h'
p2832
g361
(g1777
g363
Ntp2833
Rp2834
(dp2835
g1781
g1628
sg1782
g1818
sg387
g1718
sbsS'math_rvct.h'
p2836
g361
(g1777
g363
Ntp2837
Rp2838
(dp2839
g1781
g1789
sg1782
g1811
sg387
S'c:/marmalade/7.10/s3e/h/std/math_rvct.h'
p2840
sbsS'IwUtil.h'
p2841
g361
(g1777
g363
Ntp2842
Rp2843
(dp2844
g1781
g1628
sg1782
g1818
sg387
g1652
sbsS'IwFColour.h'
p2845
g361
(g1777
g363
Ntp2846
Rp2847
(dp2848
g1781
g1564
sg1782
g1923
sg387
g1608
sbsS's3eamazonads.mkf'
p2849
g361
(g1777
g363
Ntp2850
Rp2851
(dp2852
g1781
g1378
sg1782
(lp2853
g1365
ag1367
asg387
g1376
sbsS'wctype.h'
p2854
g361
(g1777
g363
Ntp2855
Rp2856
(dp2857
g1781
g1789
sg1782
g1811
sg387
S'c:/marmalade/7.10/s3e/h/std/wctype.h'
p2858
sbsS'mainMenu.h'
p2859
g361
(g1777
g363
Ntp2860
Rp2861
(dp2862
g1781
g1336
sg1782
g1933
sg387
g1345
sbsS'cstddef'
p2863
g361
(g1777
g363
Ntp2864
Rp2865
(dp2866
g1781
g1789
sg1782
g1790
sg387
S'c:/marmalade/7.10/s3e/h/std/c++/cstddef'
p2867
sbsS'assert.h'
p2868
g361
(g1777
g363
Ntp2869
Rp2870
(dp2871
g1781
g1789
sg1782
g1811
sg387
S'c:/marmalade/7.10/s3e/h/std/assert.h'
p2872
sbsS'mman.h'
p2873
g361
(g1777
g363
Ntp2874
Rp2875
(dp2876
g1781
g1789
sg1782
g1942
sg387
S'c:/marmalade/7.10/s3e/h/std/sys/mman.h'
p2877
sbsS'IwRandom.h'
p2878
g361
(g1777
g363
Ntp2879
Rp2880
(dp2881
g1781
g1628
sg1782
g1818
sg387
g1694
sbsS'libgen.h'
p2882
g361
(g1777
g363
Ntp2883
Rp2884
(dp2885
g1781
g1789
sg1782
g1811
sg387
S'c:/marmalade/7.10/s3e/h/std/libgen.h'
p2886
sbsS'utsname.h'
p2887
g361
(g1777
g363
Ntp2888
Rp2889
(dp2890
g1781
g1789
sg1782
g1942
sg387
S'c:/marmalade/7.10/s3e/h/std/sys/utsname.h'
p2891
sbsS'wait.h'
p2892
g361
(g1777
g363
Ntp2893
Rp2894
(dp2895
g1781
g1789
sg1782
g1942
sg387
S'c:/marmalade/7.10/s3e/h/std/sys/wait.h'
p2896
sbsS'param.h'
p2897
g361
(g1777
g363
Ntp2898
Rp2899
(dp2900
g1781
g1789
sg1782
g1942
sg387
S'c:/marmalade/7.10/s3e/h/std/sys/param.h'
p2901
sbsS'IwDivide.h'
p2902
g361
(g1777
g363
Ntp2903
Rp2904
(dp2905
g1781
g1628
sg1782
g1818
sg387
g1646
sbsS'Iw2DSceneGraphCore.cpp'
p2906
g361
(g1777
g363
Ntp2907
Rp2908
(dp2909
g1781
g1621
sg1782
(lp2910
S"'Marmalade Studio'"
p2911
ag1614
asg387
g1622
sbsS'IwResManager.h'
p2912
g361
(g1777
g363
Ntp2913
Rp2914
(dp2915
g1781
g1540
sg1782
g2061
sg387
g1547
sbsS'IwSoundManager.h'
p2916
g361
(g1777
g363
Ntp2917
Rp2918
(dp2919
g1781
g1284
sg1782
g1829
sg387
g1293
sbsS'cwctype'
p2920
g361
(g1777
g363
Ntp2921
Rp2922
(dp2923
g1781
g1789
sg1782
g1790
sg387
S'c:/marmalade/7.10/s3e/h/std/c++/cwctype'
p2924
sbsS'set'
p2925
g361
(g1777
g363
Ntp2926
Rp2927
(dp2928
g1781
g1789
sg1782
g1790
sg387
S'c:/marmalade/7.10/s3e/h/std/c++/set'
p2929
sbsS'IwGeomSQuat.h'
p2930
g361
(g1777
g363
Ntp2931
Rp2932
(dp2933
g1781
g1464
sg1782
g1843
sg387
g1508
sbsS'locale'
p2934
g361
(g1777
g363
Ntp2935
Rp2936
(dp2937
g1781
g1789
sg1782
g1790
sg387
S'c:/marmalade/7.10/s3e/h/std/c++/locale'
p2938
sbsS'cstdio'
p2939
g361
(g1777
g363
Ntp2940
Rp2941
(dp2942
g1781
g1789
sg1782
g1790
sg387
S'c:/marmalade/7.10/s3e/h/std/c++/cstdio'
p2943
sbsS'cdjpeg.h'
p2944
g361
(g1777
g363
Ntp2945
Rp2946
(dp2947
g1781
g1744
sg1782
g1877
sg387
g1749
sbsS'audio.h'
p2948
g361
(g1777
g363
Ntp2949
Rp2950
(dp2951
g1781
g1336
sg1782
g1933
sg387
g1351
sbsS'IwList.h'
p2952
g361
(g1777
g363
Ntp2953
Rp2954
(dp2955
g1781
g1628
sg1782
g1818
sg387
g1690
sbsS'pauseMenu.cpp'
p2956
g361
(g1777
g363
Ntp2957
Rp2958
(dp2959
g1781
g1336
sg1782
g1933
sg387
g1355
sbsS'inttypes.h'
p2960
g361
(g1777
g363
Ntp2961
Rp2962
(dp2963
g1781
g1789
sg1782
g1811
sg387
S'c:/marmalade/7.10/s3e/h/std/inttypes.h'
p2964
sbsS'dirent.h'
p2965
g361
(g1777
g363
Ntp2966
Rp2967
(dp2968
g1781
g1789
sg1782
g1811
sg387
S'c:/marmalade/7.10/s3e/h/std/dirent.h'
p2969
sbsS'IwGeomVec3.h'
p2970
g361
(g1777
g363
Ntp2971
Rp2972
(dp2973
g1781
g1464
sg1782
g1843
sg387
g1492
sbsS'transupp.h'
p2974
g361
(g1777
g363
Ntp2975
Rp2976
(dp2977
g1781
g1744
sg1782
g1877
sg387
g1747
sbsS'IwMath.h'
p2978
g361
(g1777
g363
Ntp2979
Rp2980
(dp2981
g1781
g1628
sg1782
g1818
sg387
g1664
sbsS'IwGeomQuat.h'
p2982
g361
(g1777
g363
Ntp2983
Rp2984
(dp2985
g1781
g1464
sg1782
g1843
sg387
g1462
sbsS'glplatform.h'
p2986
g361
(g1777
g363
Ntp2987
Rp2988
(dp2989
g1781
g1789
sg1782
g2154
sg387
S'c:/marmalade/7.10/s3e/h/GLES/glplatform.h'
p2990
sbsS's3e-default.mkf'
p2991
g361
(g1777
g363
Ntp2992
Rp2993
(dp2994
g1781
g1399
sg1782
(lp2995
g1395
asg387
g1397
sbsS'iwgl.config.txt'
p2996
g361
(g1777
g363
Ntp2997
Rp2998
(dp2999
g1781
g1421
sg1782
g1799
sg387
g1422
sbsS'bitset'
p3000
g361
(g1777
g363
Ntp3001
Rp3002
(dp3003
g1781
g1789
sg1782
g1790
sg387
S'c:/marmalade/7.10/s3e/h/std/c++/bitset'
p3004
sbsS'alloca.h'
p3005
g361
(g1777
g363
Ntp3006
Rp3007
(dp3008
g1781
g1789
sg1782
g1811
sg387
S'c:/marmalade/7.10/s3e/h/std/alloca.h'
p3009
sbsS'IwResHandler.h'
p3010
g361
(g1777
g363
Ntp3011
Rp3012
(dp3013
g1781
g1540
sg1782
g2061
sg387
g1538
sbsS'IwResHandlerMTL.h'
p3014
g361
(g1777
g363
Ntp3015
Rp3016
(dp3017
g1781
g1564
sg1782
g1923
sg387
g1602
sbsS'IwRuntime.h'
p3018
g361
(g1777
g363
Ntp3019
Rp3020
(dp3021
g1781
g1628
sg1782
g1818
sg387
g1716
sbsS'limits'
p3022
g361
(g1777
g363
Ntp3023
Rp3024
(dp3025
g1781
g1789
sg1782
g1790
sg387
S'c:/marmalade/7.10/s3e/h/std/c++/limits'
p3026
sbsS'IwGeomBBox.h'
p3027
g361
(g1777
g363
Ntp3028
Rp3029
(dp3030
g1781
g1464
sg1782
g1843
sg387
g1512
sbsS's3eContacts.h'
p3031
g361
(g1777
g363
Ntp3032
Rp3033
(dp3034
g1781
g1789
sg1782
g1805
sg387
S'c:/marmalade/7.10/s3e/h/s3eContacts.h'
p3035
sbsS's3eLicense.h'
p3036
g361
(g1777
g363
Ntp3037
Rp3038
(dp3039
g1781
g1789
sg1782
g1805
sg387
S'c:/marmalade/7.10/s3e/h/s3eLicense.h'
p3040
sbsS'iwgx.config.txt'
p3041
g361
(g1777
g363
Ntp3042
Rp3043
(dp3044
g1781
g1564
sg1782
g1923
sg387
g1575
sbsS'IwTextParser.h'
p3045
g361
(g1777
g363
Ntp3046
Rp3047
(dp3048
g1781
g1628
sg1782
g1818
sg387
g1668
sbsS's3eTimer.h'
p3049
g361
(g1777
g363
Ntp3050
Rp3051
(dp3052
g1781
g1789
sg1782
g1805
sg387
S'c:/marmalade/7.10/s3e/h/s3eTimer.h'
p3053
sbsS'IwGeomVec.h'
p3054
g361
(g1777
g363
Ntp3055
Rp3056
(dp3057
g1781
g1464
sg1782
g1843
sg387
g1516
sbsS'IwSerialise.h'
p3058
g361
(g1777
g363
Ntp3059
Rp3060
(dp3061
g1781
g1628
sg1782
g1818
sg387
g1662
sbsS'cstdarg'
p3062
g361
(g1777
g363
Ntp3063
Rp3064
(dp3065
g1781
g1789
sg1782
g1790
sg387
S'c:/marmalade/7.10/s3e/h/std/c++/cstdarg'
p3066
sbsS'gl2ext.h'
p3067
g361
(g1777
g363
Ntp3068
Rp3069
(dp3070
g1781
g1789
sg1782
g2053
sg387
S'c:/marmalade/7.10/s3e/h/GLES2/gl2ext.h'
p3071
sbsS'IwChar.h'
p3072
g361
(g1777
g363
Ntp3073
Rp3074
(dp3075
g1781
g1628
sg1782
g1818
sg387
g1678
sbsS's3eSound.h'
p3076
g361
(g1777
g363
Ntp3077
Rp3078
(dp3079
g1781
g1789
sg1782
g1805
sg387
S'c:/marmalade/7.10/s3e/h/s3eSound.h'
p3080
sbsS'IwOptimiseThumb.h'
p3081
g361
(g1777
g363
Ntp3082
Rp3083
(dp3084
g1781
g1628
sg1782
g1818
sg387
g1680
sbsS'exception.h'
p3085
g361
(g1777
g363
Ntp3086
Rp3087
(dp3088
g1781
g1789
sg1782
g1790
sg387
S'c:/marmalade/7.10/s3e/h/std/c++/exception.h'
p3089
sbsS'iwgeom.config.txt'
p3090
g361
(g1777
g363
Ntp3091
Rp3092
(dp3093
g1781
g1464
sg1782
g1843
sg387
g1473
sbsS'gl31.h'
p3094
g361
(g1777
g363
Ntp3095
Rp3096
(dp3097
g1781
g1789
sg1782
g2114
sg387
S'c:/marmalade/7.10/s3e/h/GLES3/gl31.h'
p3098
sbsS'gl.h'
p3099
g361
(g1777
g363
Ntp3100
Rp3101
(dp3102
g1781
g1789
sg1782
g2154
sg387
S'c:/marmalade/7.10/s3e/h/GLES/gl.h'
p3103
sbsS'zlib.h'
p3104
g361
(g1777
g363
Ntp3105
Rp3106
(dp3107
g1781
g1733
sg1782
g2490
sg387
g1734
sbsS'temp_defines_release.h'
p3108
g361
(g1777
g363
Ntp3109
Rp3110
(dp3111
g1781
(lp3112
sg1782
(lp3113
S"'generated files'"
p3114
asg387
S'd:/Marmalade/Stage1/build_stage1_vc14/temp_defines_release.h'
p3115
sbsS'iwgl.mkf'
p3116
g361
(g1777
g363
Ntp3117
Rp3118
(dp3119
g1781
g1418
sg1782
g1799
sg387
g1416
sbsS'IwColour.h'
p3120
g361
(g1777
g363
Ntp3121
Rp3122
(dp3123
g1781
g1564
sg1782
g1923
sg387
g1577
sbsS's3eLibrary.h'
p3124
g361
(g1777
g363
Ntp3125
Rp3126
(dp3127
g1781
g1789
sg1782
g2016
sg387
S'c:/marmalade/7.10/s3e/h/ext/s3eLibrary.h'
p3128
sbsS'types.h'
p3129
g361
(g1777
g363
Ntp3130
Rp3131
(dp3132
g1781
g1789
sg1782
g1942
sg387
S'c:/marmalade/7.10/s3e/h/std/sys/types.h'
p3133
sbsS'ifaddrs.h'
p3134
g361
(g1777
g363
Ntp3135
Rp3136
(dp3137
g1781
g1789
sg1782
g1811
sg387
S'c:/marmalade/7.10/s3e/h/std/ifaddrs.h'
p3138
sbsS'strstream'
p3139
g361
(g1777
g363
Ntp3140
Rp3141
(dp3142
g1781
g1789
sg1782
g1790
sg387
S'c:/marmalade/7.10/s3e/h/std/c++/strstream'
p3143
sbsS'Stage1.cpp'
p3144
g361
(g1777
g363
Ntp3145
Rp3146
(dp3147
g1781
g1336
sg1782
g1933
sg387
g1343
sbsS'exception'
p3148
g361
(g1777
g363
Ntp3149
Rp3150
(dp3151
g1781
g1789
sg1782
g1790
sg387
S'c:/marmalade/7.10/s3e/h/std/c++/exception'
p3152
sbsS's3eAmazonAds.defines.txt'
p3153
g361
(g1777
g363
Ntp3154
Rp3155
(dp3156
g1781
g1373
sg1782
g2769
sg387
g1371
sbsS'rlocks.h'
p3157
g361
(g1777
g363
Ntp3158
Rp3159
(dp3160
g1781
g1789
sg1782
g1790
sg387
S'c:/marmalade/7.10/s3e/h/std/c++/rlocks.h'
p3161
sbsS'ioctl.h'
p3162
g361
(g1777
g363
Ntp3163
Rp3164
(dp3165
g1781
g1789
sg1782
g1942
sg387
S'c:/marmalade/7.10/s3e/h/std/sys/ioctl.h'
p3166
sbsS'sem.h'
p3167
g361
(g1777
g363
Ntp3168
Rp3169
(dp3170
g1781
g1789
sg1782
g1942
sg387
S'c:/marmalade/7.10/s3e/h/std/sys/sem.h'
p3171
sbsS'jinclude.h'
p3172
g361
(g1777
g363
Ntp3173
Rp3174
(dp3175
g1781
g1744
sg1782
g1877
sg387
g1767
sbsS'IwEvent.h'
p3176
g361
(g1777
g363
Ntp3177
Rp3178
(dp3179
g1781
g1628
sg1782
g1818
sg387
g1714
sbsS'IwOptimiseSize.h'
p3180
g361
(g1777
g363
Ntp3181
Rp3182
(dp3183
g1781
g1628
sg1782
g1818
sg387
g1704
sbsS'iwgxfont_public.defines.txt'
p3184
g361
(g1777
g363
Ntp3185
Rp3186
(dp3187
g1781
g1442
sg1782
g1783
sg387
g1452
sbsS'iconv.h'
p3188
g361
(g1777
g363
Ntp3189
Rp3190
(dp3191
g1781
g1789
sg1782
g1811
sg387
S'c:/marmalade/7.10/s3e/h/std/iconv.h'
p3192
sbsS's3eDevice.h'
p3193
g361
(g1777
g363
Ntp3194
Rp3195
(dp3196
g1781
g1789
sg1782
g1805
sg387
S'c:/marmalade/7.10/s3e/h/s3eDevice.h'
p3197
sbsS'IwGeomSphere.h'
p3198
g361
(g1777
g363
Ntp3199
Rp3200
(dp3201
g1781
g1464
sg1782
g1843
sg387
g1498
sbsS'tiniconv.mkf'
p3202
g361
(g1777
g363
Ntp3203
Rp3204
(dp3205
g1781
g1274
sg1782
g2274
sg387
g1272
sbsS'iw2dscenegraph.defines.txt'
p3206
g361
(g1777
g363
Ntp3207
Rp3208
(dp3209
g1781
g1406
sg1782
g2103
sg387
g1412
sbsS'jdct.h'
p3210
g361
(g1777
g363
Ntp3211
Rp3212
(dp3213
g1781
g1744
sg1782
g1877
sg387
g1757
sbsS'cctype'
p3214
g361
(g1777
g363
Ntp3215
Rp3216
(dp3217
g1781
g1789
sg1782
g1790
sg387
S'c:/marmalade/7.10/s3e/h/std/c++/cctype'
p3218
sbsS'IwSoundADPCM.cpp'
p3219
g361
(g1777
g363
Ntp3220
Rp3221
(dp3222
g1781
g1284
sg1782
g1829
sg387
g1305
sbsS's3eConfig.h'
p3223
g361
(g1777
g363
Ntp3224
Rp3225
(dp3226
g1781
g1789
sg1782
g1805
sg387
S'c:/marmalade/7.10/s3e/h/s3eConfig.h'
p3227
sbsS'IwHashString.h'
p3228
g361
(g1777
g363
Ntp3229
Rp3230
(dp3231
g1781
g1628
sg1782
g1818
sg387
g1658
sbsS'stat.h'
p3232
g361
(g1777
g363
Ntp3233
Rp3234
(dp3235
g1781
g1789
sg1782
g1942
sg387
S'c:/marmalade/7.10/s3e/h/std/sys/stat.h'
p3236
sbsS'byteswap.h'
p3237
g361
(g1777
g363
Ntp3238
Rp3239
(dp3240
g1781
g1789
sg1782
g1811
sg387
S'c:/marmalade/7.10/s3e/h/std/byteswap.h'
p3241
sbsS'iwresmanager.mkf'
p3242
g361
(g1777
g363
Ntp3243
Rp3244
(dp3245
g1781
g1553
sg1782
g2061
sg387
g1551
sbsS'IwUtilInitTerm.h'
p3246
g361
(g1777
g363
Ntp3247
Rp3248
(dp3249
g1781
g1628
sg1782
g1818
sg387
g1712
sbsS'pthread_1.h'
p3250
g361
(g1777
g363
Ntp3251
Rp3252
(dp3253
g1781
g1789
sg1782
g1790
sg387
S'c:/marmalade/7.10/s3e/h/std/c++/pthread.h'
p3254
sbsS'IwMemBucket.h'
p3255
g361
(g1777
g363
Ntp3256
Rp3257
(dp3258
g1781
g1628
sg1782
g1818
sg387
g1724
sbsS'complex'
p3259
g361
(g1777
g363
Ntp3260
Rp3261
(dp3262
g1781
g1789
sg1782
g1790
sg387
S'c:/marmalade/7.10/s3e/h/std/c++/complex'
p3263
sbsS'game.cpp'
p3264
g361
(g1777
g363
Ntp3265
Rp3266
(dp3267
g1781
g1336
sg1782
g1933
sg387
g1349
sbsS'algorithm'
p3268
g361
(g1777
g363
Ntp3269
Rp3270
(dp3271
g1781
g1789
sg1782
g1790
sg387
S'c:/marmalade/7.10/s3e/h/std/c++/algorithm'
p3272
sbsS's3e.icf'
p3273
g361
(g1777
g363
Ntp3274
Rp3275
(dp3276
g1781
g1789
sg1782
g1805
sg387
S'c:/marmalade/7.10/s3e/s3e.icf'
p3277
sbsS'IwVariableBitField.h'
p3278
g361
(g1777
g363
Ntp3279
Rp3280
(dp3281
g1781
g1628
sg1782
g1818
sg387
g1706
sbsS'resources.h'
p3282
g361
(g1777
g363
Ntp3283
Rp3284
(dp3285
g1781
g1336
sg1782
g1933
sg387
g1359
sbsS'IwGxFontState.h'
p3286
g361
(g1777
g363
Ntp3287
Rp3288
(dp3289
g1781
g1442
sg1782
g1783
sg387
g1450
sbsS'stdio.h'
p3290
g361
(g1777
g363
Ntp3291
Rp3292
(dp3293
g1781
g1789
sg1782
g1811
sg387
S'c:/marmalade/7.10/s3e/h/std/stdio.h'
p3294
sbsS'jmemsys.h'
p3295
g361
(g1777
g363
Ntp3296
Rp3297
(dp3298
g1781
g1744
sg1782
g1877
sg387
g1761
sbsS'ios'
p3299
g361
(g1777
g363
Ntp3300
Rp3301
(dp3302
g1781
g1789
sg1782
g1790
sg387
S'c:/marmalade/7.10/s3e/h/std/c++/ios'
p3303
sbsS'PVRTexTool.defines.txt'
p3304
g361
(g1777
g363
Ntp3305
Rp3306
(dp3307
g1781
g1387
sg1782
g2669
sg387
g1388
sbsS'stack'
p3308
g361
(g1777
g363
Ntp3309
Rp3310
(dp3311
g1781
g1789
sg1782
g1790
sg387
S'c:/marmalade/7.10/s3e/h/std/c++/stack'
p3312
sbsS'IwSoundParams.h'
p3313
g361
(g1777
g363
Ntp3314
Rp3315
(dp3316
g1781
g1284
sg1782
g1829
sg387
g1303
sbsS'new.h'
p3317
g361
(g1777
g363
Ntp3318
Rp3319
(dp3320
g1781
g1789
sg1782
g1790
sg387
S'c:/marmalade/7.10/s3e/h/std/c++/new.h'
p3321
sbsS's3eAmazonAds.h'
p3322
g361
(g1777
g363
Ntp3323
Rp3324
(dp3325
g1781
g1373
sg1782
g2853
sg387
g1379
sbsS's3eEMail.h'
p3326
g361
(g1777
g363
Ntp3327
Rp3328
(dp3329
g1781
g1789
sg1782
g2016
sg387
S'c:/marmalade/7.10/s3e/h/ext/s3eEMail.h'
p3330
sbsS's3eVideo.h'
p3331
g361
(g1777
g363
Ntp3332
Rp3333
(dp3334
g1781
g1789
sg1782
g1805
sg387
S'c:/marmalade/7.10/s3e/h/s3eVideo.h'
p3335
sbsS'pngconf.h'
p3336
g361
(g1777
g363
Ntp3337
Rp3338
(dp3339
g1781
g1254
sg1782
g2546
sg387
g1255
sbsS'pwd.h'
p3340
g361
(g1777
g363
Ntp3341
Rp3342
(dp3343
g1781
g1789
sg1782
g1811
sg387
S'c:/marmalade/7.10/s3e/h/std/pwd.h'
p3344
sbsS'gl3.h'
p3345
g361
(g1777
g363
Ntp3346
Rp3347
(dp3348
g1781
g1789
sg1782
g2114
sg387
S'c:/marmalade/7.10/s3e/h/GLES3/gl3.h'
p3349
sbsS'IwClip.h'
p3350
g361
(g1777
g363
Ntp3351
Rp3352
(dp3353
g1781
g1564
sg1782
g1923
sg387
g1573
sbsS'IwSoundInst.h'
p3354
g361
(g1777
g363
Ntp3355
Rp3356
(dp3357
g1781
g1284
sg1782
g1829
sg387
g1282
sbsS'iwresmanager.config.txt'
p3358
g361
(g1777
g363
Ntp3359
Rp3360
(dp3361
g1781
g1540
sg1782
g2061
sg387
g1541
sbsS'IwGxShaderTechnique.h'
p3362
g361
(g1777
g363
Ntp3363
Rp3364
(dp3365
g1781
g1564
sg1782
g1923
sg387
g1612
sbsS'IwCore.h'
p3366
g361
(g1777
g363
Ntp3367
Rp3368
(dp3369
g1781
g1628
sg1782
g1818
sg387
g1674
sbsS'cfloat'
p3370
g361
(g1777
g363
Ntp3371
Rp3372
(dp3373
g1781
g1789
sg1782
g1790
sg387
S'c:/marmalade/7.10/s3e/h/std/c++/cfloat'
p3374
sbsS'IwGeomMat2D.h'
p3375
g361
(g1777
g363
Ntp3376
Rp3377
(dp3378
g1781
g1464
sg1782
g1843
sg387
g1528
sbsS'IwAllocator.h'
p3379
g361
(g1777
g363
Ntp3380
Rp3381
(dp3382
g1781
g1628
sg1782
g1818
sg387
g1676
sbsS'IwPath.h'
p3383
g361
(g1777
g363
Ntp3384
Rp3385
(dp3386
g1781
g1628
sg1782
g1818
sg387
g1629
sbsS'iwgxfont.mkf'
p3387
g361
(g1777
g363
Ntp3388
Rp3389
(dp3390
g1781
g1447
sg1782
g1783
sg387
g1445
sbsS'IwTexture.h'
p3391
g361
(g1777
g363
Ntp3392
Rp3393
(dp3394
g1781
g1564
sg1782
g1923
sg387
g1596
sbsS'IwGeomVec.h.tpl'
p3395
g361
(g1777
g363
Ntp3396
Rp3397
(dp3398
g1781
g1464
sg1782
g1843
sg387
g1471
sbsS's3eAccelerometer.h'
p3399
g361
(g1777
g363
Ntp3400
Rp3401
(dp3402
g1781
g1789
sg1782
g1805
sg387
S'c:/marmalade/7.10/s3e/h/s3eAccelerometer.h'
p3403
sbsS'setjmp.h'
p3404
g361
(g1777
g363
Ntp3405
Rp3406
(dp3407
g1781
g1789
sg1782
g1811
sg387
S'c:/marmalade/7.10/s3e/h/std/setjmp.h'
p3408
sbsS'IwSoundParams.cpp'
p3409
g361
(g1777
g363
Ntp3410
Rp3411
(dp3412
g1781
g1284
sg1782
g1829
sg387
g1321
sbsS'IwFile.h'
p3413
g361
(g1777
g363
Ntp3414
Rp3415
(dp3416
g1781
g1628
sg1782
g1818
sg387
g1631
sbsS'IwTextParseable.h'
p3417
g361
(g1777
g363
Ntp3418
Rp3419
(dp3420
g1781
g1628
sg1782
g1818
sg387
g1700
sbsS'istream.h'
p3421
g361
(g1777
g363
Ntp3422
Rp3423
(dp3424
g1781
g1789
sg1782
g1790
sg387
S'c:/marmalade/7.10/s3e/h/std/c++/istream.h'
p3425
sbsS'stdint.h'
p3426
g361
(g1777
g363
Ntp3427
Rp3428
(dp3429
g1781
g1789
sg1782
g1811
sg387
S'c:/marmalade/7.10/s3e/h/std/stdint.h'
p3430
sbsS'semaphore.h'
p3431
g361
(g1777
g363
Ntp3432
Rp3433
(dp3434
g1781
g1789
sg1782
g1811
sg387
S'c:/marmalade/7.10/s3e/h/std/semaphore.h'
p3435
sbsS'ctime'
p3436
g361
(g1777
g363
Ntp3437
Rp3438
(dp3439
g1781
g1789
sg1782
g1790
sg387
S'c:/marmalade/7.10/s3e/h/std/c++/ctime'
p3440
sbsS'sstream'
p3441
g361
(g1777
g363
Ntp3442
Rp3443
(dp3444
g1781
g1789
sg1782
g1790
sg387
S'c:/marmalade/7.10/s3e/h/std/c++/sstream'
p3445
sbsS'IwGeomFBBox.h'
p3446
g361
(g1777
g363
Ntp3447
Rp3448
(dp3449
g1781
g1464
sg1782
g1843
sg387
g1475
sbsS'IwDebugPrim.h'
p3450
g361
(g1777
g363
Ntp3451
Rp3452
(dp3453
g1781
g1564
sg1782
g1923
sg387
g1583
sbsS'IwGxFontContainer.h'
p3454
g361
(g1777
g363
Ntp3455
Rp3456
(dp3457
g1781
g1442
sg1782
g1783
sg387
g1454
sbsS'IwGeomSVec3.h'
p3458
g361
(g1777
g363
Ntp3459
Rp3460
(dp3461
g1781
g1464
sg1782
g1843
sg387
g1486
sbsS'iw2dscenegraphcore.mkf'
p3462
g361
(g1777
g363
Ntp3463
Rp3464
(dp3465
g1781
g1618
sg1782
g2910
sg387
g1616
sbsS's3eExt.h'
p3466
g361
(g1777
g363
Ntp3467
Rp3468
(dp3469
g1781
g1789
sg1782
g1805
sg387
S'c:/marmalade/7.10/s3e/h/s3eExt.h'
p3470
sbsS'IwGeomFVec3.h'
p3471
g361
(g1777
g363
Ntp3472
Rp3473
(dp3474
g1781
g1464
sg1782
g1843
sg387
g1526
sbsS'streambuf'
p3475
g361
(g1777
g363
Ntp3476
Rp3477
(dp3478
g1781
g1789
sg1782
g1790
sg387
S'c:/marmalade/7.10/s3e/h/std/c++/streambuf'
p3479
sbsS's3eMetrics.h'
p3480
g361
(g1777
g363
Ntp3481
Rp3482
(dp3483
g1781
g1789
sg1782
g2016
sg387
S'c:/marmalade/7.10/s3e/h/ext/s3eMetrics.h'
p3484
sbsS'IwGxFont.h'
p3485
g361
(g1777
g363
Ntp3486
Rp3487
(dp3488
g1781
g1442
sg1782
g1783
sg387
g1440
sbsS's3eSecureStorage.h'
p3489
g361
(g1777
g363
Ntp3490
Rp3491
(dp3492
g1781
g1789
sg1782
g1805
sg387
S'c:/marmalade/7.10/s3e/h/s3eSecureStorage.h'
p3493
sbsS'string.h'
p3494
g361
(g1777
g363
Ntp3495
Rp3496
(dp3497
g1781
g1789
sg1782
g1811
sg387
S'c:/marmalade/7.10/s3e/h/std/string.h'
p3498
sbsS'IwResource.h'
p3499
g361
(g1777
g363
Ntp3500
Rp3501
(dp3502
g1781
g1628
sg1782
g1818
sg387
g1702
sbsS'IwGeomSVec2.h'
p3503
g361
(g1777
g363
Ntp3504
Rp3505
(dp3506
g1781
g1464
sg1782
g1843
sg387
g1510
sbsS'libjpeg.mkf'
p3507
g361
(g1777
g363
Ntp3508
Rp3509
(dp3510
g1781
g1773
sg1782
(lp3511
g1739
asg387
g1771
sbsS'IwGxDebug.h'
p3512
g361
(g1777
g363
Ntp3513
Rp3514
(dp3515
g1781
g1564
sg1782
g1923
sg387
g1571
sbsS'float.h'
p3516
g361
(g1777
g363
Ntp3517
Rp3518
(dp3519
g1781
g1789
sg1782
g1811
sg387
S'c:/marmalade/7.10/s3e/h/std/float.h'
p3520
sbsS'iomanip.h'
p3521
g361
(g1777
g363
Ntp3522
Rp3523
(dp3524
g1781
g1789
sg1782
g1790
sg387
S'c:/marmalade/7.10/s3e/h/std/c++/iomanip.h'
p3525
sbsS'IwKeymap.h'
p3526
g361
(g1777
g363
Ntp3527
Rp3528
(dp3529
g1781
g1628
sg1782
g1818
sg387
g1672
sbsS'IwDebug.h'
p3530
g361
(g1777
g363
Ntp3531
Rp3532
(dp3533
g1781
g1628
sg1782
g1818
sg387
g1698
sbsS's3eIOSBackgroundAudio.h'
p3534
g361
(g1777
g363
Ntp3535
Rp3536
(dp3537
g1781
g1789
sg1782
g2016
sg387
S'c:/marmalade/7.10/s3e/h/ext/s3eIOSBackgroundAudio.h'
p3538
sbsS'IwGeomMenu.h'
p3539
g361
(g1777
g363
Ntp3540
Rp3541
(dp3542
g1781
g1464
sg1782
g1843
sg387
g1518
sbsS'IwDivTable.h'
p3543
g361
(g1777
g363
Ntp3544
Rp3545
(dp3546
g1781
g1628
sg1782
g1818
sg387
g1626
sbsS'ctype.h'
p3547
g361
(g1777
g363
Ntp3548
Rp3549
(dp3550
g1781
g1789
sg1782
g1811
sg387
S'c:/marmalade/7.10/s3e/h/std/ctype.h'
p3551
sbsS'mainMenu.cpp'
p3552
g361
(g1777
g363
Ntp3553
Rp3554
(dp3555
g1781
g1336
sg1782
g1933
sg387
g1361
sbsS'IwResGroup.h'
p3556
g361
(g1777
g363
Ntp3557
Rp3558
(dp3559
g1781
g1540
sg1782
g2061
sg387
g1556
sbsS'signal_1.h'
p3560
g361
(g1777
g363
Ntp3561
Rp3562
(dp3563
g1781
g1789
sg1782
g1942
sg387
S'c:/marmalade/7.10/s3e/h/std/sys/signal.h'
p3564
sbsS'IwSoundData.cpp'
p3565
g361
(g1777
g363
Ntp3566
Rp3567
(dp3568
g1781
g1284
sg1782
g1829
sg387
g1315
sbsS'functional'
p3569
g361
(g1777
g363
Ntp3570
Rp3571
(dp3572
g1781
g1789
sg1782
g1790
sg387
S'c:/marmalade/7.10/s3e/h/std/c++/functional'
p3573
sbsS'shm.h'
p3574
g361
(g1777
g363
Ntp3575
Rp3576
(dp3577
g1781
g1789
sg1782
g1942
sg387
S'c:/marmalade/7.10/s3e/h/std/sys/shm.h'
p3578
sbsS'IwManagedList.h'
p3579
g361
(g1777
g363
Ntp3580
Rp3581
(dp3582
g1781
g1628
sg1782
g1818
sg387
g1650
sbsS'prctl.h'
p3583
g361
(g1777
g363
Ntp3584
Rp3585
(dp3586
g1781
g1789
sg1782
g1942
sg387
S'c:/marmalade/7.10/s3e/h/std/sys/prctl.h'
p3587
sbsS'IwGxStream.h'
p3588
g361
(g1777
g363
Ntp3589
Rp3590
(dp3591
g1781
g1564
sg1782
g1923
sg387
g1598
sbsS'temp_defines_debug.h'
p3592
g361
(g1777
g363
Ntp3593
Rp3594
(dp3595
g1781
(lp3596
sg1782
(lp3597
g3114
asg387
S'd:/Marmalade/Stage1/build_stage1_vc14/temp_defines_debug.h'
p3598
sbsS'utility'
p3599
g361
(g1777
g363
Ntp3600
Rp3601
(dp3602
g1781
g1789
sg1782
g1790
sg387
S'c:/marmalade/7.10/s3e/h/std/c++/utility'
p3603
sbsS'input.h'
p3604
g361
(g1777
g363
Ntp3605
Rp3606
(dp3607
g1781
g1336
sg1782
g1933
sg387
g1334
sbsS'IwGeomLegacy.h'
p3608
g361
(g1777
g363
Ntp3609
Rp3610
(dp3611
g1781
g1464
sg1782
g1843
sg387
g1500
sbsS'IwTPage.h'
p3612
g361
(g1777
g363
Ntp3613
Rp3614
(dp3615
g1781
g1564
sg1782
g1923
sg387
g1600
sbsS'IwResSerialise.h'
p3616
g361
(g1777
g363
Ntp3617
Rp3618
(dp3619
g1781
g1540
sg1782
g2061
sg387
g1549
sbsS's3eCrypto.h'
p3620
g361
(g1777
g363
Ntp3621
Rp3622
(dp3623
g1781
g1789
sg1782
g1805
sg387
S'c:/marmalade/7.10/s3e/h/s3eCrypto.h'
p3624
sbsS's3eKeyboard.h'
p3625
g361
(g1777
g363
Ntp3626
Rp3627
(dp3628
g1781
g1789
sg1782
g1805
sg387
S'c:/marmalade/7.10/s3e/h/s3eKeyboard.h'
p3629
sbsS'fcntl.h'
p3630
g361
(g1777
g363
Ntp3631
Rp3632
(dp3633
g1781
g1789
sg1782
g1811
sg387
S'c:/marmalade/7.10/s3e/h/std/fcntl.h'
p3634
sbsS'Iw2DSceneGraphCore.h'
p3635
g361
(g1777
g363
Ntp3636
Rp3637
(dp3638
g1781
g1621
sg1782
g2910
sg387
g1619
sbsS'memory.h'
p3639
g361
(g1777
g363
Ntp3640
Rp3641
(dp3642
g1781
g1789
sg1782
g1811
sg387
S'c:/marmalade/7.10/s3e/h/std/memory.h'
p3643
sbsS'pthread.h'
p3644
g361
(g1777
g363
Ntp3645
Rp3646
(dp3647
g1781
g1789
sg1782
g1811
sg387
S'c:/marmalade/7.10/s3e/h/std/pthread.h'
p3648
sbsS'IwGeomIntersect.h'
p3649
g361
(g1777
g363
Ntp3650
Rp3651
(dp3652
g1781
g1464
sg1782
g1843
sg387
g1467
sbsS'IwTextParserITX.h'
p3653
g361
(g1777
g363
Ntp3654
Rp3655
(dp3656
g1781
g1628
sg1782
g1818
sg387
g1688
sbsS'IwClip.inl'
p3657
g361
(g1777
g363
Ntp3658
Rp3659
(dp3660
g1781
g1564
sg1782
g1923
sg387
g1590
sbsS'Iw2DSceneGraph.cpp'
p3661
g361
(g1777
g363
Ntp3662
Rp3663
(dp3664
g1781
g1406
sg1782
g2103
sg387
g1404
sbsS'ostream.h'
p3665
g361
(g1777
g363
Ntp3666
Rp3667
(dp3668
g1781
g1789
sg1782
g1790
sg387
S'c:/marmalade/7.10/s3e/h/std/c++/ostream.h'
p3669
sbsS'stl_user_config.h'
p3670
g361
(g1777
g363
Ntp3671
Rp3672
(dp3673
g1781
g1789
sg1782
g1790
sg387
S'c:/marmalade/7.10/s3e/h/std/c++/stl_user_config.h'
p3674
sbsS'iwgx.mkf'
p3675
g361
(g1777
g363
Ntp3676
Rp3677
(dp3678
g1781
g1589
sg1782
g1923
sg387
g1587
sbsS'IwProfileMenu.h'
p3679
g361
(g1777
g363
Ntp3680
Rp3681
(dp3682
g1781
g1628
sg1782
g1818
sg387
g1696
sbsS'MarmaladeVersion.h'
p3683
g361
(g1777
g363
Ntp3684
Rp3685
(dp3686
g1781
g1789
sg1782
g1805
sg387
S'c:/marmalade/7.10/s3e/h/MarmaladeVersion.h'
p3687
sbsS'IwResHandlerWAV.h'
p3688
g361
(g1777
g363
Ntp3689
Rp3690
(dp3691
g1781
g1284
sg1782
g1829
sg387
g1291
sbsS'gl3platform.h'
p3692
g361
(g1777
g363
Ntp3693
Rp3694
(dp3695
g1781
g1789
sg1782
g2114
sg387
S'c:/marmalade/7.10/s3e/h/GLES3/gl3platform.h'
p3696
sbsS'ios.h'
p3697
g361
(g1777
g363
Ntp3698
Rp3699
(dp3700
g1781
g1789
sg1782
g1790
sg387
S'c:/marmalade/7.10/s3e/h/std/c++/ios.h'
p3701
sbsS'IwImageHelper.h'
p3702
g361
(g1777
g363
Ntp3703
Rp3704
(dp3705
g1781
g1628
sg1782
g1818
sg387
g1720
sbsS'hash_set'
p3706
g361
(g1777
g363
Ntp3707
Rp3708
(dp3709
g1781
g1789
sg1782
g1790
sg387
S'c:/marmalade/7.10/s3e/h/std/c++/hash_set'
p3710
sbsS'IwGeomFQuat.h'
p3711
g361
(g1777
g363
Ntp3712
Rp3713
(dp3714
g1781
g1464
sg1782
g1843
sg387
g1496
sbsS'jmorecfg.h'
p3715
g361
(g1777
g363
Ntp3716
Rp3717
(dp3718
g1781
g1744
sg1782
g1877
sg387
g1755
sbsS'eglplatform.h'
p3719
g361
(g1777
g363
Ntp3720
Rp3721
(dp3722
g1781
g1789
sg1782
g2146
sg387
S'c:/marmalade/7.10/s3e/h/EGL/eglplatform.h'
p3723
sbsS'cmath'
p3724
g361
(g1777
g363
Ntp3725
Rp3726
(dp3727
g1781
g1789
sg1782
g1790
sg387
S'c:/marmalade/7.10/s3e/h/std/c++/cmath'
p3728
sbsS'math_gcc.h'
p3729
g361
(g1777
g363
Ntp3730
Rp3731
(dp3732
g1781
g1789
sg1782
g1811
sg387
S'c:/marmalade/7.10/s3e/h/std/math_gcc.h'
p3733
sbsS's3eMemory.h'
p3734
g361
(g1777
g363
Ntp3735
Rp3736
(dp3737
g1781
g1789
sg1782
g1805
sg387
S'c:/marmalade/7.10/s3e/h/s3eMemory.h'
p3738
sbsS'strings.h'
p3739
g361
(g1777
g363
Ntp3740
Rp3741
(dp3742
g1781
g1789
sg1782
g1811
sg387
S'c:/marmalade/7.10/s3e/h/std/strings.h'
p3743
sbsS's3eFile.h'
p3744
g361
(g1777
g363
Ntp3745
Rp3746
(dp3747
g1781
g1789
sg1782
g1805
sg387
S'c:/marmalade/7.10/s3e/h/s3eFile.h'
p3748
sbsS'IwGxTypes.h'
p3749
g361
(g1777
g363
Ntp3750
Rp3751
(dp3752
g1781
g1564
sg1782
g1923
sg387
g1579
sbsS'cerrno'
p3753
g361
(g1777
g363
Ntp3754
Rp3755
(dp3756
g1781
g1789
sg1782
g1790
sg387
S'c:/marmalade/7.10/s3e/h/std/c++/cerrno'
p3757
sbsS'IwSoundManager.cpp'
p3758
g361
(g1777
g363
Ntp3759
Rp3760
(dp3761
g1781
g1284
sg1782
g1829
sg387
g1317
sbsS'soundengine.mkf'
p3762
g361
(g1777
g363
Ntp3763
Rp3764
(dp3765
g1781
g1327
sg1782
g1829
sg387
g1325
sbsS'resource.h'
p3766
g361
(g1777
g363
Ntp3767
Rp3768
(dp3769
g1781
g1789
sg1782
g1942
sg387
S'c:/marmalade/7.10/s3e/h/std/sys/resource.h'
p3770
sbsS'clocale'
p3771
g361
(g1777
g363
Ntp3772
Rp3773
(dp3774
g1781
g1789
sg1782
g1790
sg387
S'c:/marmalade/7.10/s3e/h/std/c++/clocale'
p3775
sbsS'pvrtextool.mkf'
p3776
g361
(g1777
g363
Ntp3777
Rp3778
(dp3779
g1781
g1394
sg1782
g2421
sg387
g1392
sbsS'csetjmp'
p3780
g361
(g1777
g363
Ntp3781
Rp3782
(dp3783
g1781
g1789
sg1782
g1790
sg387
S'c:/marmalade/7.10/s3e/h/std/c++/csetjmp'
p3784
sbsS'netdb.h'
p3785
g361
(g1777
g363
Ntp3786
Rp3787
(dp3788
g1781
g1789
sg1782
g1811
sg387
S'c:/marmalade/7.10/s3e/h/std/netdb.h'
p3789
sbsS's3eAndroidJNI.h'
p3790
g361
(g1777
g363
Ntp3791
Rp3792
(dp3793
g1781
g1789
sg1782
g2016
sg387
S'c:/marmalade/7.10/s3e/h/ext/s3eAndroidJNI.h'
p3794
sbsS'stdexcept'
p3795
g361
(g1777
g363
Ntp3796
Rp3797
(dp3798
g1781
g1789
sg1782
g1790
sg387
S'c:/marmalade/7.10/s3e/h/std/c++/stdexcept'
p3799
sbsS'math.h'
p3800
g361
(g1777
g363
Ntp3801
Rp3802
(dp3803
g1781
g1789
sg1782
g1811
sg387
S'c:/marmalade/7.10/s3e/h/std/math.h'
p3804
sbsS'stdbool.h'
p3805
g361
(g1777
g363
Ntp3806
Rp3807
(dp3808
g1781
g1789
sg1782
g1811
sg387
S'c:/marmalade/7.10/s3e/h/std/stdbool.h'
p3809
sbsS'uio.h'
p3810
g361
(g1777
g363
Ntp3811
Rp3812
(dp3813
g1781
g1789
sg1782
g1942
sg387
S'c:/marmalade/7.10/s3e/h/std/sys/uio.h'
p3814
sbsS'IwUncopyable.h'
p3815
g361
(g1777
g363
Ntp3816
Rp3817
(dp3818
g1781
g1628
sg1782
g1818
sg387
g1692
sbssS'juice_build_type'
p3819
g4
sS'tests'
p3820
(lp3821
sS'project_name'
p3822
g369
sS'root_file'
p3823
g145
sS'current_root'
p3824
S'd:/Marmalade/Stage1'
p3825
sS'dependencies'
p3826
(lp3827
sS'include_paths'
p3828
(lp3829
S'c:/marmalade/7.10/extensions/s3eamazonads/h'
p3830
aS'c:/marmalade/7.10/modules/iwutil/h'
p3831
aS'c:/marmalade/7.10/modules/third_party/libjpeg/h'
p3832
aS'c:/marmalade/7.10/modules/third_party/zlib/h'
p3833
aS'c:/marmalade/7.10/modules/third_party/libpng/h'
p3834
aS'c:/marmalade/7.10/modules/iw2d/h'
p3835
aS'c:/marmalade/7.10/modules/iwgx/h'
p3836
aS'c:/marmalade/7.10/modules/iwgl/h'
p3837
aS'c:/marmalade/7.10/modules/iwgeom/h'
p3838
aS'c:/marmalade/7.10/modules/iwresmanager/h'
p3839
aS'c:/marmalade/7.10/extensions/pvrtextool/h'
p3840
aS'c:/marmalade/7.10/modules/iwgxfont/h'
p3841
aS'c:/marmalade/7.10/modules/third_party/tiniconv/source'
p3842
aS'c:/marmalade/7.10/modules/iw2dscenegraph/h'
p3843
aS'c:/marmalade/7.10/modules/iw2dscenegraphcore/h'
p3844
aS'd:/marmalade/modules/soundengine/h'
p3845
aS'd:/marmalade/modules/soundengine/source'
p3846
aS'c:/marmalade/7.10/s3e/h'
p3847
aS'c:/marmalade/7.10/s3e/h/ext'
p3848
aS'c:/marmalade/7.10/s3e/h/std'
p3849
aS'c:/marmalade/7.10/s3e/h/std/c++'
p3850
aS'c:/marmalade/7.10/s3e/h/ext_legacy'
p3851
aS'c:/marmalade/7.10/s3e/h/legacy'
p3852
asS'weak_frameworks'
p3853
(lp3854
sS'extprojects'
p3855
(dp3856
sg692
(dp3857
g686
(lp3858
(S'd:/Marmalade/Stage1/data/textures'
p3859
S'textures'
p3860
I0
tp3861
a(S'd:/Marmalade/Stage1/data/audio'
p3862
S'audio'
p3863
I0
tp3864
assS'macro_types'
p3865
(dp3866
g615
I0
sg617
I1
sg618
I0
sg619
I0
sg620
I0
sg622
I0
sg623
I0
sg624
I0
sg625
I0
sg626
I0
sg627
I0
sg628
I0
sg630
I0
sg631
I0
sg632
I0
sg633
I0
sg634
I0
sg635
I0
sg636
I0
sg637
I0
sg638
I0
sg640
I0
sg641
I0
sg642
I0
sg643
I0
sg644
I0
sg645
I0
sg646
I0
sg647
I1
sg648
I0
sg649
I0
sg650
I0
sg651
I0
sg652
I01
sg653
I1
sg654
I0
sg655
I0
sg656
I0
sg657
I0
sg658
I0
sg659
I0
sg660
I0
ssS'commands'
p3867
(lp3868
sg694
(g1241
S'VC14'
p3869
S'X86ARMAARCH64'
p3870
tp3871
sS'build_libs'
p3872
(dp3873
sg696
g0
sS'frameworks'
p3874
(lp3875
sS'environ'
p3876
(dp3877
S'NACL_ROOT'
p3878
S'c:\\marmalade\\7.10/tools/gcc/x86_64/nacl_windows'
p3879
ssS'target_name_debug'
p3880
g369
sS'builders'
p3881
(dp3882
g686
(dp3883
S'.S'
p3884
(dp3885
S'gcc_aarch64'
p3886
(lp3887
S'.obj'
p3888
aS'echo AARCH64 Assembling(GCC) ${SOURCE}...'
p3889
aS'c:/marmalade/7.10/s3e\\gcc\\win32\\aarch64\\bin\\aarch64-none-elf-gcc -c -o ${TARGET} ${SOURCE}'
p3890
asS'rvct'
p3891
(lp3892
g3888
aS'echo ARM Assembling(RVCT) ${SOURCE}...'
p3893
aS'c:/marmalade/7.10/s3e\\rvct\\bin\\armasm -o ${TARGET} ${SOURCE}'
p3894
asg490
(lp3895
g3888
aS'echo ARM Assembling(GCC) ${SOURCE}...'
p3896
aS'c:/marmalade/7.10/s3e\\gcc\\win32\\arm\\bin\\arm-none-eabi-gcc -c -o ${TARGET} ${SOURCE}'
p3897
asS'ppu'
p3898
(lp3899
S'.a'
p3900
aS'echo PPU Assembling(SNC) ${SOURCE}...'
p3901
aS'c:/marmalade/7.10/s3e\\rvct\\bin\\armasm -o ${TARGET} ${SOURCE}'
p3902
assS'.s'
p3903
g3885
sS'.vp'
p3904
(lp3905
NaS'"C:/Marmalade/7.10/s3e/python/python.exe" "c:/marmalade/7.10/modules/iwgx/tools/compile_shaders.py" ${SOURCE}'
p3906
asssS'extproject_names'
p3907
(lp3908
sbtp3909
.